(dp0
S'../../Data/x264_18.csv'
p1
(dp2
S'../../Data/x264_19.csv'
p3
(dp4
I60
(lp5
cnumpy.core.multiarray
scalar
p6
(cnumpy
dtype
p7
(S'f8'
p8
I0
I1
tp9
Rp10
(I3
S'<'
p11
NNNI-1
I-1
I0
tp12
bS'\xd8\xf4\x19\xf9 \x80D@'
p13
tp14
Rp15
ag6
(g10
S'36u\xd8dnJ@'
p16
tp17
Rp18
ag6
(g10
S'36u\xd8dnJ@'
p19
tp20
Rp21
ag6
(g10
S'36u\xd8dnJ@'
p22
tp23
Rp24
ag6
(g10
S'\xb1\x80\xc5\xbe\xddyD@'
p25
tp26
Rp27
ag6
(g10
S'\x80\xfb]\x7f\x02\xe6J@'
p28
tp29
Rp30
ag6
(g10
S'36u\xd8dnJ@'
p31
tp32
Rp33
ag6
(g10
S'\x80\xfb]\x7f\x02\xe6J@'
p34
tp35
Rp36
ag6
(g10
S'\xd8\xf4\x19\xf9 \x80D@'
p37
tp38
Rp39
ag6
(g10
S'36u\xd8dnJ@'
p40
tp41
Rp42
ag6
(g10
S'\xc3w7\x9f\x0e\x96J@'
p43
tp44
Rp45
ag6
(g10
S'36u\xd8dnJ@'
p46
tp47
Rp48
ag6
(g10
S'36u\xd8dnJ@'
p49
tp50
Rp51
ag6
(g10
S'36u\xd8dnJ@'
p52
tp53
Rp54
ag6
(g10
S'\x80\xfb]\x7f\x02\xe6J@'
p55
tp56
Rp57
ag6
(g10
S'36u\xd8dnJ@'
p58
tp59
Rp60
ag6
(g10
S'\xc4t\xc7\xc1q\x87J@'
p61
tp62
Rp63
ag6
(g10
S'36u\xd8dnJ@'
p64
tp65
Rp66
ag6
(g10
S'\x80\xfb]\x7f\x02\xe6J@'
p67
tp68
Rp69
ag6
(g10
S'36u\xd8dnJ@'
p70
tp71
Rp72
ag6
(g10
S'\xb1\x80\xc5\xbe\xddyD@'
p73
tp74
Rp75
ag6
(g10
S'~\xcb\x00~\xcbNE@'
p76
tp77
Rp78
ag6
(g10
S'\x80\xfb]\x7f\x02\xe6J@'
p79
tp80
Rp81
ag6
(g10
S'36u\xd8dnJ@'
p82
tp83
Rp84
ag6
(g10
S'\x80\xfb]\x7f\x02\xe6J@'
p85
tp86
Rp87
ag6
(g10
S'\x83\xf8\xed\xa1e\xd7J@'
p88
tp89
Rp90
ag6
(g10
S'\x80\xfb]\x7f\x02\xe6J@'
p91
tp92
Rp93
ag6
(g10
S'36u\xd8dnJ@'
p94
tp95
Rp96
ag6
(g10
S'36u\xd8dnJ@'
p97
tp98
Rp99
ag6
(g10
S'\x12:\xb0h\x0f\xffJ@'
p100
tp101
Rp102
asss.