(dp0
S'../../Data/x264_18.csv'
p1
(dp2
S'../../Data/x264_20.csv'
p3
(dp4
I14
(lp5
cnumpy.core.multiarray
scalar
p6
(cnumpy
dtype
p7
(S'f8'
p8
I0
I1
tp9
Rp10
(I3
S'<'
p11
NNNI-1
I-1
I0
tp12
bS'&\x01]@\xd7\xe6+@'
p13
tp14
Rp15
ag6
(g10
S'.Ur\xc2,\xdf\x17@'
p16
tp17
Rp18
ag6
(g10
S'\xdfWBF"\xa0<@'
p19
tp20
Rp21
ag6
(g10
S'\x9eQeb\xbb\xa6$@'
p22
tp23
Rp24
ag6
(g10
S'\x92\xc8G^`%4@'
p25
tp26
Rp27
ag6
(g10
S'\x92\xc8G^`%4@'
p28
tp29
Rp30
ag6
(g10
S'\x92\xc8G^`%4@'
p31
tp32
Rp33
ag6
(g10
S'\xb2@\xab\xf3\xb7\x0e+@'
p34
tp35
Rp36
ag6
(g10
S'z\x81H,Q\x946@'
p37
tp38
Rp39
ag6
(g10
S'\xb2@\xab\xf3\xb7\x0e+@'
p40
tp41
Rp42
ag6
(g10
S'\x92\xc8G^`%4@'
p43
tp44
Rp45
ag6
(g10
S'\xb2@\xab\xf3\xb7\x0e+@'
p46
tp47
Rp48
ag6
(g10
S'\x92\xc8G^`%4@'
p49
tp50
Rp51
ag6
(g10
S'\x9eQeb\xbb\xa6$@'
p52
tp53
Rp54
ag6
(g10
S'z\x81H,Q\x946@'
p55
tp56
Rp57
ag6
(g10
S'\xb2@\xab\xf3\xb7\x0e+@'
p58
tp59
Rp60
ag6
(g10
S'\x05AN@\x9d\t9@'
p61
tp62
Rp63
ag6
(g10
S'\x7f]l\xabp\xc2*@'
p64
tp65
Rp66
ag6
(g10
S"\xf4\xfd\x94\xa6\xe1N'@"
p67
tp68
Rp69
ag6
(g10
S'\\\xbd\xe6\xfc\xe40<@'
p70
tp71
Rp72
ag6
(g10
S'\xce\x94\xa6GP\xa7\x0f@'
p73
tp74
Rp75
ag6
(g10
S"\x9d\x81\xfc\xe9\x99'$@"
p76
tp77
Rp78
ag6
(g10
S'\x0cM\x9a\x85\xc4\x1d&@'
p79
tp80
Rp81
ag6
(g10
S'[uQK\xbac\n@'
p82
tp83
Rp84
ag6
(g10
S'\x05AN@\x9d\t9@'
p85
tp86
Rp87
ag6
(g10
S'l\x17\xda\x06\\\xd74@'
p88
tp89
Rp90
ag6
(g10
S'\x92\xc8G^`%4@'
p91
tp92
Rp93
ag6
(g10
S'\x92\xc8G^`%4@'
p94
tp95
Rp96
ag6
(g10
S'\xce\x94\xa6GP\xa7\x0f@'
p97
tp98
Rp99
ag6
(g10
S'\x92\xc8G^`%4@'
p100
tp101
Rp102
asss.