(dp0
S'../../Data/x264_8.csv'
p1
(dp2
S'../../Data/x264_19.csv'
p3
(dp4
I60
(lp5
cnumpy.core.multiarray
scalar
p6
(cnumpy
dtype
p7
(S'f8'
p8
I0
I1
tp9
Rp10
(I3
S'<'
p11
NNNI-1
I-1
I0
tp12
bS'36u\xd8dnJ@'
p13
tp14
Rp15
ag6
(g10
S'36u\xd8dnJ@'
p16
tp17
Rp18
ag6
(g10
S'36u\xd8dnJ@'
p19
tp20
Rp21
ag6
(g10
S'36u\xd8dnJ@'
p22
tp23
Rp24
ag6
(g10
S'\xc3w7\x9f\x0e\x96J@'
p25
tp26
Rp27
ag6
(g10
S'\x10\x8e\x90{\xbevJ@'
p28
tp29
Rp30
ag6
(g10
S'\xc3w7\x9f\x0e\x96J@'
p31
tp32
Rp33
ag6
(g10
S'o\x04\xec\x9e\xd1\xc9D@'
p34
tp35
Rp36
ag6
(g10
S'\xc3w7\x9f\x0e\x96J@'
p37
tp38
Rp39
ag6
(g10
S'o\x04\xec\x9e\xd1\xc9D@'
p40
tp41
Rp42
ag6
(g10
S'\xc3w7\x9f\x0e\x96J@'
p43
tp44
Rp45
ag6
(g10
S'36u\xd8dnJ@'
p46
tp47
Rp48
ag6
(g10
S'\xc3w7\x9f\x0e\x96J@'
p49
tp50
Rp51
ag6
(g10
S'\xc3w7\x9f\x0e\x96J@'
p52
tp53
Rp54
ag6
(g10
S'\xb0\x93\xf7C\xc5\x14K@'
p55
tp56
Rp57
ag6
(g10
S'\xc3w7\x9f\x0e\x96J@'
p58
tp59
Rp60
ag6
(g10
S'36u\xd8dnJ@'
p61
tp62
Rp63
ag6
(g10
S'G\x90\x97d\x8e\xc3D@'
p64
tp65
Rp66
ag6
(g10
S'\xc3w7\x9f\x0e\x96J@'
p67
tp68
Rp69
ag6
(g10
S'\xc3w7\x9f\x0e\x96J@'
p70
tp71
Rp72
ag6
(g10
S'36u\xd8dnJ@'
p73
tp74
Rp75
ag6
(g10
S'36u\xd8dnJ@'
p76
tp77
Rp78
ag6
(g10
S'\xc3w7\x9f\x0e\x96J@'
p79
tp80
Rp81
ag6
(g10
S'\xc3w7\x9f\x0e\x96J@'
p82
tp83
Rp84
ag6
(g10
S'36u\xd8dnJ@'
p85
tp86
Rp87
ag6
(g10
S'\xc3w7\x9f\x0e\x96J@'
p88
tp89
Rp90
ag6
(g10
S'\x94X\xf0\xe8\xc8IE@'
p91
tp92
Rp93
ag6
(g10
S'36u\xd8dnJ@'
p94
tp95
Rp96
ag6
(g10
S'\xc3w7\x9f\x0e\x96J@'
p97
tp98
Rp99
ag6
(g10
S'\xc3w7\x9f\x0e\x96J@'
p100
tp101
Rp102
asss.