(dp0
S'../../Data/x264_9.csv'
p1
(dp2
S'../../Data/x264_20.csv'
p3
(dp4
I7
(lp5
cnumpy.core.multiarray
scalar
p6
(cnumpy
dtype
p7
(S'f8'
p8
I0
I1
tp9
Rp10
(I3
S'<'
p11
NNNI-1
I-1
I0
tp12
bS'\x90\xe8\xd0\xaf\x0eq8@'
p13
tp14
Rp15
ag6
(g10
S'U?\x08\xae)\x82\x12@'
p16
tp17
Rp18
ag6
(g10
S"\xf4\xfd\x94\xa6\xe1N'@"
p19
tp20
Rp21
ag6
(g10
S'\x17|_No1"@'
p22
tp23
Rp24
ag6
(g10
S'\xc7o\x96B\xc3,,@'
p25
tp26
Rp27
ag6
(g10
S'M*\xdal]\xef\x15@'
p28
tp29
Rp30
ag6
(g10
S'WX*\x8fy\x931@'
p31
tp32
Rp33
ag6
(g10
S'\xc7o\x96B\xc3,,@'
p34
tp35
Rp36
ag6
(g10
S'U?\x08\xae)\x82\x12@'
p37
tp38
Rp39
ag6
(g10
S'M*\xdal]\xef\x15@'
p40
tp41
Rp42
ag6
(g10
S'M*\xdal]\xef\x15@'
p43
tp44
Rp45
ag6
(g10
S'[{o\x87\xf9{#@'
p46
tp47
Rp48
ag6
(g10
S'M*\xdal]\xef\x15@'
p49
tp50
Rp51
ag6
(g10
S'\x17|_No1"@'
p52
tp53
Rp54
ag6
(g10
S'\xe1\xae \x06(\xe5!@'
p55
tp56
Rp57
ag6
(g10
S'l\x17\xda\x06\\\xd74@'
p58
tp59
Rp60
ag6
(g10
S'WX*\x8fy\x931@'
p61
tp62
Rp63
ag6
(g10
S'\xbc6+\xc4\xe295@'
p64
tp65
Rp66
ag6
(g10
S'[{o\x87\xf9{#@'
p67
tp68
Rp69
ag6
(g10
S'\x17|_No1"@'
p70
tp71
Rp72
ag6
(g10
S'[{o\x87\xf9{#@'
p73
tp74
Rp75
ag6
(g10
S'\xc7o\x96B\xc3,,@'
p76
tp77
Rp78
ag6
(g10
S'\xbc\xc6\xef\xec\xb9_7@'
p79
tp80
Rp81
ag6
(g10
S'[{o\x87\xf9{#@'
p82
tp83
Rp84
ag6
(g10
S'\xbc\xc6\xef\xec\xb9_7@'
p85
tp86
Rp87
ag6
(g10
S'\x17|_No1"@'
p88
tp89
Rp90
ag6
(g10
S'[{o\x87\xf9{#@'
p91
tp92
Rp93
ag6
(g10
S'x\x18\xa7\xe2\xc5\xae.@'
p94
tp95
Rp96
ag6
(g10
S'M*\xdal]\xef\x15@'
p97
tp98
Rp99
ag6
(g10
S'U?\x08\xae)\x82\x12@'
p100
tp101
Rp102
asss.