(dp0
S'../Data/x264_9.csv'
p1
(dp2
S'../Data/x264_3.csv'
p3
(dp4
S'rank'
p5
(lp6
I3
aI3
aI3
aI3
aI3
aI3
aI3
aI3
aI3
aI3
aI3
aI3
aI3
aI3
aI3
aI3
aI3
aI3
aI3
aI3
aI3
aI3
aI3
aI3
aI3
aI3
aI3
aI3
aI3
aI3
asss.