(dp0
S'../Data/x264_11.csv'
p1
(dp2
S'../Data/x264_1.csv'
p3
(dp4
S'mmre'
p5
(lp6
cnumpy.core.multiarray
scalar
p7
(cnumpy
dtype
p8
(S'f8'
p9
I0
I1
tp10
Rp11
(I3
S'<'
p12
NNNI-1
I-1
I0
tp13
bS'\xfaY`8\r6f@'
p14
tp15
Rp16
ag7
(g11
S'K56\x1d\x0f6f@'
p17
tp18
Rp19
ag7
(g11
S'\x96\x9d\x9d6\x026f@'
p20
tp21
Rp22
ag7
(g11
S'\x1b\x18H\x8f\x0b6f@'
p23
tp24
Rp25
ag7
(g11
S'\xe3`\x9ad\x0c6f@'
p26
tp27
Rp28
ag7
(g11
S'G?\xe9\x0b\x016f@'
p29
tp30
Rp31
ag7
(g11
S'\xf3B\xf3t\x0e6f@'
p32
tp33
Rp34
ag7
(g11
S'\xf71\xe3\x1c\x0e6f@'
p35
tp36
Rp37
ag7
(g11
S'gr\xd7\xaf\x056f@'
p38
tp39
Rp40
ag7
(g11
S'H\xd8\xb8<\x016f@'
p41
tp42
Rp43
ag7
(g11
S'\xe4\x12\xbd&\x0c6f@'
p44
tp45
Rp46
ag7
(g11
S'\xe41\xf5x\x0e6f@'
p47
tp48
Rp49
ag7
(g11
S'A\x87\xd5X\n6f@'
p50
tp51
Rp52
ag7
(g11
S'\x9f\xd1\x06\xa4\x0b6f@'
p53
tp54
Rp55
ag7
(g11
S'\xf8&\x8ff\x026f@'
p56
tp57
Rp58
ag7
(g11
S'T\x8d=!\r6f@'
p59
tp60
Rp61
ag7
(g11
S'\xd0\x8f\xa8\x9c\x0b6f@'
p62
tp63
Rp64
ag7
(g11
S'\xfd\xd2\xab\xf7\x026f@'
p65
tp66
Rp67
ag7
(g11
S'\xe5\xe1/\xe2\r6f@'
p68
tp69
Rp70
ag7
(g11
S'<VI~\x0b6f@'
p71
tp72
Rp73
ag7
(g11
S'\xa1\x95\xbf\xf0\t6f@'
p74
tp75
Rp76
ag7
(g11
S'\x14\xc5@\xc0\x046f@'
p77
tp78
Rp79
ag7
(g11
S'\xac\xa0b\xe8\x006f@'
p80
tp81
Rp82
ag7
(g11
S'9d1\x7f\x0c6f@'
p83
tp84
Rp85
ag7
(g11
S'\xe7G/\x11\x0c6f@'
p86
tp87
Rp88
ag7
(g11
S'.\xb1\xae\xd4\x0c6f@'
p89
tp90
Rp91
ag7
(g11
S'`K\x1b\x10\x0b6f@'
p92
tp93
Rp94
ag7
(g11
S'0\x03\xacz\x0b6f@'
p95
tp96
Rp97
ag7
(g11
S'\x16z75\n6f@'
p98
tp99
Rp100
ag7
(g11
S'O\x89\xcbj\r6f@'
p101
tp102
Rp103
asss.