(dp0
S'../Data/x264_8.csv'
p1
(dp2
S'../Data/x264_2.csv'
p3
(dp4
S'mmre'
p5
(lp6
cnumpy.core.multiarray
scalar
p7
(cnumpy
dtype
p8
(S'f8'
p9
I0
I1
tp10
Rp11
(I3
S'<'
p12
NNNI-1
I-1
I0
tp13
bS'"$\xf0\xee\xcfvs@'
p14
tp15
Rp16
ag7
(g11
S'G%.h\xd0vs@'
p17
tp18
Rp19
ag7
(g11
S'\xb1-2+\xd0vs@'
p20
tp21
Rp22
ag7
(g11
S'\xb8\xc6\x87\x10\xd0vs@'
p23
tp24
Rp25
ag7
(g11
S'o\xcbR\xe4\xcfvs@'
p26
tp27
Rp28
ag7
(g11
S'u&\xeb&\xd0vs@'
p29
tp30
Rp31
ag7
(g11
S'e6:!\xd0vs@'
p32
tp33
Rp34
ag7
(g11
S'9\xf0\x9eB\xd0vs@'
p35
tp36
Rp37
ag7
(g11
S'D\xe3\xe8[\xd0vs@'
p38
tp39
Rp40
ag7
(g11
S'9\xbfz6\xd0vs@'
p41
tp42
Rp43
ag7
(g11
S'^\xeeL?\xd0vs@'
p44
tp45
Rp46
ag7
(g11
S'$]z@\xd0vs@'
p47
tp48
Rp49
ag7
(g11
S"\xfb\xf9\x83'\xd0vs@"
p50
tp51
Rp52
ag7
(g11
S'\xfd\xe9\x91\xee\xcfvs@'
p53
tp54
Rp55
ag7
(g11
S'\xbd\xaf\xb4\x0c\xd0vs@'
p56
tp57
Rp58
ag7
(g11
S'\xe9A\xf8\x14\xd0vs@'
p59
tp60
Rp61
ag7
(g11
S'\xa45\x153\xd0vs@'
p62
tp63
Rp64
ag7
(g11
S'\xf8\xb7\xb74\xd0vs@'
p65
tp66
Rp67
ag7
(g11
S'^\xdc\x9aW\xd0vs@'
p68
tp69
Rp70
ag7
(g11
S'zd\x89Q\xd0vs@'
p71
tp72
Rp73
ag7
(g11
S'\xb8G\xbb\x13\xd0vs@'
p74
tp75
Rp76
ag7
(g11
S'*\x90a\xeb\xcfvs@'
p77
tp78
Rp79
ag7
(g11
S'\x9c\x10@\xf9\xcfvs@'
p80
tp81
Rp82
ag7
(g11
S'a\xf2T4\xd0vs@'
p83
tp84
Rp85
ag7
(g11
S'\xe7\xe4\xdf4\xd0vs@'
p86
tp87
Rp88
ag7
(g11
S'|\xca\x1f\x1d\xd0vs@'
p89
tp90
Rp91
ag7
(g11
S'\xbe\xf2m\x07\xd0vs@'
p92
tp93
Rp94
ag7
(g11
S'\x80M2i\xd0vs@'
p95
tp96
Rp97
ag7
(g11
S'5\x9b\xe7\xc1\xcfvs@'
p98
tp99
Rp100
ag7
(g11
S'\xa2t\xa1*\xd0vs@'
p101
tp102
Rp103
asss.