(dp0
S'../Data/x264_2.csv'
p1
(dp2
S'../Data/x264_9.csv'
p3
(dp4
S'mmre'
p5
(lp6
cnumpy.core.multiarray
scalar
p7
(cnumpy
dtype
p8
(S'f8'
p9
I0
I1
tp10
Rp11
(I3
S'<'
p12
NNNI-1
I-1
I0
tp13
bS'.\xb0\xa5Xr\xf8i@'
p14
tp15
Rp16
ag7
(g11
S'.S1\x83|\xf8i@'
p17
tp18
Rp19
ag7
(g11
S'\xa1\xa4%[r\xf8i@'
p20
tp21
Rp22
ag7
(g11
S"\xe2_'+{\xf8i@"
p23
tp24
Rp25
ag7
(g11
S'.S1\x83|\xf8i@'
p26
tp27
Rp28
ag7
(g11
S':\x1ds*{\xf8i@'
p29
tp30
Rp31
ag7
(g11
S'\xf2@\xe3\xcd{\xf8i@'
p32
tp33
Rp34
ag7
(g11
S'\x00\x0b%uz\xf8i@'
p35
tp36
Rp37
ag7
(g11
S'pk\xa7({\xf8i@'
p38
tp39
Rp40
ag7
(g11
S'\xccE\x10\xb4}\xf8i@'
p41
tp42
Rp43
ag7
(g11
S'\xf5\xa3\xfa3r\xf8i@'
p44
tp45
Rp46
ag7
(g11
S'.\xb0\xa5Xr\xf8i@'
p47
tp48
Rp49
ag7
(g11
S'\x8e\xffO\x01q\xf8i@'
p50
tp51
Rp52
ag7
(g11
S'\xbddT\x11}\xf8i@'
p53
tp54
Rp55
ag7
(g11
S'\x93c\xdef~\xf8i@'
p56
tp57
Rp58
ag7
(g11
S':\x0e\xe5Np\xf8i@'
p59
tp60
Rp61
ag7
(g11
S'\xbddT\x11}\xf8i@'
p62
tp63
Rp64
ag7
(g11
S'\x86s\x94\xe8r\xf8i@'
p65
tp66
Rp67
ag7
(g11
S'\x1a\xae[){\xf8i@'
p68
tp69
Rp70
ag7
(g11
S'\x93c\xdef~\xf8i@'
p71
tp72
Rp73
ag7
(g11
S'T\xb1\x1b\x03q\xf8i@'
p74
tp75
Rp76
ag7
(g11
S'\x95TP\x8bs\xf8i@'
p77
tp78
Rp79
ag7
(g11
S'z\xa9RAt\xf8i@'
p80
tp81
Rp82
ag7
(g11
S'\x81R\x06\\|\xf8i@'
p83
tp84
Rp85
ag7
(g11
S'\xe3\xbc\x9b\x00q\xf8i@'
p86
tp87
Rp88
ag7
(g11
S'\x14\x13\x125r\xf8i@'
p89
tp90
Rp91
ag7
(g11
S'\xe5P\x99Op\xf8i@'
p92
tp93
Rp94
ag7
(g11
S'\xd9\xf2YYr\xf8i@'
p95
tp96
Rp97
ag7
(g11
S'>\xa6\x92g~\xf8i@'
p98
tp99
Rp100
ag7
(g11
S'\xf5\xb2\x88\x0f}\xf8i@'
p101
tp102
Rp103
asss.