(dp0
S'../Data/x264_2.csv'
p1
(dp2
S'../Data/x264_13.csv'
p3
(dp4
S'mmre'
p5
(lp6
cnumpy.core.multiarray
scalar
p7
(cnumpy
dtype
p8
(S'f8'
p9
I0
I1
tp10
Rp11
(I3
S'<'
p12
NNNI-1
I-1
I0
tp13
bS'\xff\xa3u\xd8\xa4>5@'
p14
tp15
Rp16
ag7
(g11
S'\xfaZ\xfe\xeeZ>5@'
p17
tp18
Rp19
ag7
(g11
S'9\x0e\x1f\xd6[>5@'
p20
tp21
Rp22
ag7
(g11
S'\xad\xbb\xc0\xe5\xa3>5@'
p23
tp24
Rp25
ag7
(g11
S'\x91\xefaM\xa6>5@'
p26
tp27
Rp28
ag7
(g11
S'\xca\x7f\x18\xa0Z>5@'
p29
tp30
Rp31
ag7
(g11
S'\xe9"~\xb8\\>5@'
p32
tp33
Rp34
ag7
(g11
S'T\xd4\x056[>5@'
p35
tp36
Rp37
ag7
(g11
S'\xbc\xfa:\x12\\>5@'
p38
tp39
Rp40
ag7
(g11
S'\xa06\xe3W\xa5>5@'
p41
tp42
Rp43
ag7
(g11
S'\xca\x7f\x18\xa0Z>5@'
p44
tp45
Rp46
ag7
(g11
S'\xc2A\x92O\xa4>5@'
p47
tp48
Rp49
ag7
(g11
S'7\xe5\x9d\xdb\\>5@'
p50
tp51
Rp52
ag7
(g11
S'\x7fj\xfcD\xa4>5@'
p53
tp54
Rp55
ag7
(g11
S'2\x17 \xf7Z>5@'
p56
tp57
Rp58
ag7
(g11
S'F.\xae\x8b\xa4>5@'
p59
tp60
Rp61
ag7
(g11
S'\xac\x92?\xeb\xa4>5@'
p62
tp63
Rp64
ag7
(g11
S'-z@t\\>5@'
p65
tp66
Rp67
ag7
(g11
S'\xdf\x05\xea\t[>5@'
p68
tp69
Rp70
ag7
(g11
S'\x80\x8bva\\>5@'
p71
tp72
Rp73
ag7
(g11
S'F.\xae\x8b\xa4>5@'
p74
tp75
Rp76
ag7
(g11
S')\xc7\x9d\xcb\\>5@'
p77
tp78
Rp79
ag7
(g11
S'\x0b\xbf\xe9\xda\xa4>5@'
p80
tp81
Rp82
ag7
(g11
S'\x04\xc6[V[>5@'
p83
tp84
Rp85
ag7
(g11
S'\n\xbdZ5\\>5@'
p86
tp87
Rp88
ag7
(g11
S'!_\xccq\\>5@'
p89
tp90
Rp91
ag7
(g11
S'-z@t\\>5@'
p92
tp93
Rp94
ag7
(g11
S'\xb5\x03<3[>5@'
p95
tp96
Rp97
ag7
(g11
S"'\x83A\x95[>5@"
p98
tp99
Rp100
ag7
(g11
S'\xc98\x91.\xa5>5@'
p101
tp102
Rp103
asss.