(dp0
S'../Data/x264_7.csv'
p1
(dp2
S'../Data/x264_18.csv'
p3
(dp4
S'mmre'
p5
(lp6
cnumpy.core.multiarray
scalar
p7
(cnumpy
dtype
p8
(S'f8'
p9
I0
I1
tp10
Rp11
(I3
S'<'
p12
NNNI-1
I-1
I0
tp13
bS'\xdb\xab\x9e[Q_`@'
p14
tp15
Rp16
ag7
(g11
S'\xdb\xab\x9e[Q_`@'
p17
tp18
Rp19
ag7
(g11
S'\xdb\xab\x9e[Q_`@'
p20
tp21
Rp22
ag7
(g11
S'\xdb\xab\x9e[Q_`@'
p23
tp24
Rp25
ag7
(g11
S'\xdb\xab\x9e[Q_`@'
p26
tp27
Rp28
ag7
(g11
S'\xdb\xab\x9e[Q_`@'
p29
tp30
Rp31
ag7
(g11
S'\xdb\xab\x9e[Q_`@'
p32
tp33
Rp34
ag7
(g11
S'\xdb\xab\x9e[Q_`@'
p35
tp36
Rp37
ag7
(g11
S'\xdb\xab\x9e[Q_`@'
p38
tp39
Rp40
ag7
(g11
S'\xdb\xab\x9e[Q_`@'
p41
tp42
Rp43
ag7
(g11
S'\xdb\xab\x9e[Q_`@'
p44
tp45
Rp46
ag7
(g11
S'\xdb\xab\x9e[Q_`@'
p47
tp48
Rp49
ag7
(g11
S'\xdb\xab\x9e[Q_`@'
p50
tp51
Rp52
ag7
(g11
S'\xdb\xab\x9e[Q_`@'
p53
tp54
Rp55
ag7
(g11
S'\xdb\xab\x9e[Q_`@'
p56
tp57
Rp58
ag7
(g11
S'\xdb\xab\x9e[Q_`@'
p59
tp60
Rp61
ag7
(g11
S'\xdb\xab\x9e[Q_`@'
p62
tp63
Rp64
ag7
(g11
S'\xdb\xab\x9e[Q_`@'
p65
tp66
Rp67
ag7
(g11
S'\xdb\xab\x9e[Q_`@'
p68
tp69
Rp70
ag7
(g11
S'\xdb\xab\x9e[Q_`@'
p71
tp72
Rp73
ag7
(g11
S'\xdb\xab\x9e[Q_`@'
p74
tp75
Rp76
ag7
(g11
S'\xdb\xab\x9e[Q_`@'
p77
tp78
Rp79
ag7
(g11
S'\xdb\xab\x9e[Q_`@'
p80
tp81
Rp82
ag7
(g11
S'\xdb\xab\x9e[Q_`@'
p83
tp84
Rp85
ag7
(g11
S'\xdb\xab\x9e[Q_`@'
p86
tp87
Rp88
ag7
(g11
S'\xdb\xab\x9e[Q_`@'
p89
tp90
Rp91
ag7
(g11
S'\xdb\xab\x9e[Q_`@'
p92
tp93
Rp94
ag7
(g11
S'\xdb\xab\x9e[Q_`@'
p95
tp96
Rp97
ag7
(g11
S'\xdb\xab\x9e[Q_`@'
p98
tp99
Rp100
ag7
(g11
S'\xdb\xab\x9e[Q_`@'
p101
tp102
Rp103
asss.