(dp0
S'../Data/x264_8.csv'
p1
(dp2
S'../Data/x264_11.csv'
p3
(dp4
S'mmre'
p5
(lp6
cnumpy.core.multiarray
scalar
p7
(cnumpy
dtype
p8
(S'f8'
p9
I0
I1
tp10
Rp11
(I3
S'<'
p12
NNNI-1
I-1
I0
tp13
bS'|X3\xd8-Y)@'
p14
tp15
Rp16
ag7
(g11
S'M\xba\x90MdY)@'
p17
tp18
Rp19
ag7
(g11
S':\xd4\x12\xcdkY)@'
p20
tp21
Rp22
ag7
(g11
S'mm\x86CkY)@'
p23
tp24
Rp25
ag7
(g11
S'\x92\x94\xfc\xf6\xfcX)@'
p26
tp27
Rp28
ag7
(g11
S'\xb8)+\x95\x94Y)@'
p29
tp30
Rp31
ag7
(g11
S'}\xeee\x93\x8aY)@'
p32
tp33
Rp34
ag7
(g11
S'\xcb$^g\x17Y)@'
p35
tp36
Rp37
ag7
(g11
S'\xae\xde\xa8\xeb\xe9X)@'
p38
tp39
Rp40
ag7
(g11
S'}\xe5\xee_\x97Y)@'
p41
tp42
Rp43
ag7
(g11
S'BJ\x03\x1d-Y)@'
p44
tp45
Rp46
ag7
(g11
S'\xd2,.\xd7kY)@'
p47
tp48
Rp49
ag7
(g11
S'\xe2 \x1aJ\x88Y)@'
p50
tp51
Rp52
ag7
(g11
S'\xc8<\xa9\xf3xY)@'
p53
tp54
Rp55
ag7
(g11
S'\xce\xe5\xd6~\tY)@'
p56
tp57
Rp58
ag7
(g11
S'RD%\x94\xa2Y)@'
p59
tp60
Rp61
ag7
(g11
S'\xffi2\x13\xa1Y)@'
p62
tp63
Rp64
ag7
(g11
S'\x82\xe0]\xd5TY)@'
p65
tp66
Rp67
ag7
(g11
S'.>~\xd55Y)@'
p68
tp69
Rp70
ag7
(g11
S'\x04\xd0%\xd2\xf5X)@'
p71
tp72
Rp73
ag7
(g11
S'H~\x97\x04\x98Y)@'
p74
tp75
Rp76
ag7
(g11
S'\xee\xebR\xb7\x89Y)@'
p77
tp78
Rp79
ag7
(g11
S'?\x9f\xf8\x82pY)@'
p80
tp81
Rp82
ag7
(g11
S'j\xff\xa1\xeb`Y)@'
p83
tp84
Rp85
ag7
(g11
S'\xde\xdeM\x94\x95Y)@'
p86
tp87
Rp88
ag7
(g11
S'd\x97\xf3q\x95Y)@'
p89
tp90
Rp91
ag7
(g11
S'\xee\x9b\x04\xeaiY)@'
p92
tp93
Rp94
ag7
(g11
S'\x92\xf8IhpY)@'
p95
tp96
Rp97
ag7
(g11
S'\\\xbb\xa5\xe6NY)@'
p98
tp99
Rp100
ag7
(g11
S'\xad\xfc^\xcf\x8bY)@'
p101
tp102
Rp103
asss.