(dp0
S'../Data/x264_8.csv'
p1
(dp2
S'../Data/x264_7.csv'
p3
(dp4
S'mmre'
p5
(lp6
cnumpy.core.multiarray
scalar
p7
(cnumpy
dtype
p8
(S'f8'
p9
I0
I1
tp10
Rp11
(I3
S'<'
p12
NNNI-1
I-1
I0
tp13
bS'\xaeZ\xee\x8fV<(@'
p14
tp15
Rp16
ag7
(g11
S'\xee\xbfQ\x00$<(@'
p17
tp18
Rp19
ag7
(g11
S"\x0c!U'?<(@"
p20
tp21
Rp22
ag7
(g11
S'\xef\xe6)A\x8b;(@'
p23
tp24
Rp25
ag7
(g11
S'"\xd5H\xd0%<(@'
p26
tp27
Rp28
ag7
(g11
S'\x88\xce2\xc8s<(@'
p29
tp30
Rp31
ag7
(g11
S'9zZ\xa0p<(@'
p32
tp33
Rp34
ag7
(g11
S'\xa2\x912\xd9m<(@'
p35
tp36
Rp37
ag7
(g11
S'\xd5\xed2V\xa8;(@'
p38
tp39
Rp40
ag7
(g11
S'\x83\x8a\xba"><(@'
p41
tp42
Rp43
ag7
(g11
S'\xe5\x1db\xbe#<(@'
p44
tp45
Rp46
ag7
(g11
S'\x88\x07&\x17><(@'
p47
tp48
Rp49
ag7
(g11
S'\xe8JV\xb2#<(@'
p50
tp51
Rp52
ag7
(g11
S'p\xe9%\xc0?<(@'
p53
tp54
Rp55
ag7
(g11
S'Y\xe2\xbf\xb2$<(@'
p56
tp57
Rp58
ag7
(g11
S'\xa8\x986\x94\xa7;(@'
p59
tp60
Rp61
ag7
(g11
S'\x13%\x87\x80#<(@'
p62
tp63
Rp64
ag7
(g11
S'\\?\xdcys<(@'
p65
tp66
Rp67
ag7
(g11
S'LZ\xcb\xdc\x0f<(@'
p68
tp69
Rp70
ag7
(g11
S'\x0e\x9a\x1fws<(@'
p71
tp72
Rp73
ag7
(g11
S'\x96\x81\x1b\xa1n<(@'
p74
tp75
Rp76
ag7
(g11
S'\x8f?\xdfL<<(@'
p77
tp78
Rp79
ag7
(g11
S'\xb3\xfaW\xe18<(@'
p80
tp81
Rp82
ag7
(g11
S'\xc60\xe4\xdc\x88;(@'
p83
tp84
Rp85
ag7
(g11
S'\x91\x0c\xe2\x8d\x8c;(@'
p86
tp87
Rp88
ag7
(g11
S'\xcc\xbd\xba\xecZ<(@'
p89
tp90
Rp91
ag7
(g11
S'\x05=q\xad\x10<(@'
p92
tp93
Rp94
ag7
(g11
S'0{ \xc5q;(@'
p95
tp96
Rp97
ag7
(g11
S'\xe6\xad\xfb\x0bq<(@'
p98
tp99
Rp100
ag7
(g11
S'\x80\xb3\x94\xc6m<(@'
p101
tp102
Rp103
asss.