(dp0
S'../Data/x264_11.csv'
p1
(dp2
S'../Data/x264_12.csv'
p3
(dp4
S'mmre'
p5
(lp6
cnumpy.core.multiarray
scalar
p7
(cnumpy
dtype
p8
(S'f8'
p9
I0
I1
tp10
Rp11
(I3
S'<'
p12
NNNI-1
I-1
I0
tp13
bS'\xaf\x83\xf5p/sz@'
p14
tp15
Rp16
ag7
(g11
S'P*\x94\\0sz@'
p17
tp18
Rp19
ag7
(g11
S'\xac\x1a\xb080sz@'
p20
tp21
Rp22
ag7
(g11
S'H\x92\xa8C,sz@'
p23
tp24
Rp25
ag7
(g11
S'\xb5\xf2\t\xdd.sz@'
p26
tp27
Rp28
ag7
(g11
S'\xf5`o\xeb.sz@'
p29
tp30
Rp31
ag7
(g11
S'j\x11\xda\x81/sz@'
p32
tp33
Rp34
ag7
(g11
S'\xbaa\x0b\xbf/sz@'
p35
tp36
Rp37
ag7
(g11
S'q\xbfrG0sz@'
p38
tp39
Rp40
ag7
(g11
S'v\xe1O\xa5.sz@'
p41
tp42
Rp43
ag7
(g11
S'\xc90\x0co.sz@'
p44
tp45
Rp46
ag7
(g11
S'\xe4^\x0cD/sz@'
p47
tp48
Rp49
ag7
(g11
S't\xcc\xc0\x1f0sz@'
p50
tp51
Rp52
ag7
(g11
S'\xdc%{{.sz@'
p53
tp54
Rp55
ag7
(g11
S'\xd2\x01?\xfd-sz@'
p56
tp57
Rp58
ag7
(g11
S'\xdc\xa2A\xb5/sz@'
p59
tp60
Rp61
ag7
(g11
S'\xb9\xdf\xc7\xbe.sz@'
p62
tp63
Rp64
ag7
(g11
S'\xc0\x19\x1c\x82.sz@'
p65
tp66
Rp67
ag7
(g11
S'^\xc8\x02\x10.sz@'
p68
tp69
Rp70
ag7
(g11
S'\xfdt\xf090sz@'
p71
tp72
Rp73
ag7
(g11
S'\x1cS\xdf\xea/sz@'
p74
tp75
Rp76
ag7
(g11
S'\x89I\xfa\xe8/sz@'
p77
tp78
Rp79
ag7
(g11
S'~\x02SE.sz@'
p80
tp81
Rp82
ag7
(g11
S'W\xc1\xaeS+sz@'
p83
tp84
Rp85
ag7
(g11
S'GU\xe5s.sz@'
p86
tp87
Rp88
ag7
(g11
S'\x98\xc4|\xaf+sz@'
p89
tp90
Rp91
ag7
(g11
S'\n\xd8\xb33.sz@'
p92
tp93
Rp94
ag7
(g11
S'\xd2\x14\x12$0sz@'
p95
tp96
Rp97
ag7
(g11
S'8\x87\xaf\xa6,sz@'
p98
tp99
Rp100
ag7
(g11
S'Qd\x1a\x7f.sz@'
p101
tp102
Rp103
asss.