(dp0
S'../Data/x264_11.csv'
p1
(dp2
S'../Data/x264_20.csv'
p3
(dp4
S'mmre'
p5
(lp6
cnumpy.core.multiarray
scalar
p7
(cnumpy
dtype
p8
(S'f8'
p9
I0
I1
tp10
Rp11
(I3
S'<'
p12
NNNI-1
I-1
I0
tp13
bS"\xd7\xda@\xc7'r_@"
p14
tp15
Rp16
ag7
(g11
S'\xb5I\x00\xf1$r_@'
p17
tp18
Rp19
ag7
(g11
S'\xc7\xe4\x98T(r_@'
p20
tp21
Rp22
ag7
(g11
S'\xddso^&r_@'
p23
tp24
Rp25
ag7
(g11
S'\x17v\xbfJ(r_@'
p26
tp27
Rp28
ag7
(g11
S'\xf6g\x9bp$r_@'
p29
tp30
Rp31
ag7
(g11
S'\r\x9b\x04\xe2$r_@'
p32
tp33
Rp34
ag7
(g11
S"\x81\xb7\xe8\x8f'r_@"
p35
tp36
Rp37
ag7
(g11
S"\xc8\xcaMl'r_@"
p38
tp39
Rp40
ag7
(g11
S'W\xa7/$&r_@'
p41
tp42
Rp43
ag7
(g11
S'\xce\xe6\xcb\xb0&r_@'
p44
tp45
Rp46
ag7
(g11
S"\xc3#2N'r_@"
p47
tp48
Rp49
ag7
(g11
S"'QF\x8b$r_@"
p50
tp51
Rp52
ag7
(g11
S'C;\x0b #r_@'
p53
tp54
Rp55
ag7
(g11
S'v\n\xdbS%r_@'
p56
tp57
Rp58
ag7
(g11
S'\t\x18\x1c\xb6%r_@'
p59
tp60
Rp61
ag7
(g11
S'\xbf\x1a%w$r_@'
p62
tp63
Rp64
ag7
(g11
S'\xee\xe0\x1c\xd9#r_@'
p65
tp66
Rp67
ag7
(g11
S'\xd8\xc4\xb4\xef$r_@'
p68
tp69
Rp70
ag7
(g11
S"\xd8\t'\x17%r_@"
p71
tp72
Rp73
ag7
(g11
S"\x19o\xc2\xdb'r_@"
p74
tp75
Rp76
ag7
(g11
S'#\x86\xe6\x87(r_@'
p77
tp78
Rp79
ag7
(g11
S'\xa2\x1b\x92\x8a&r_@'
p80
tp81
Rp82
ag7
(g11
S'\x00\xe1\x02=#r_@'
p83
tp84
Rp85
ag7
(g11
S'T\xa6\xf6\x9f&r_@'
p86
tp87
Rp88
ag7
(g11
S'\x82M\x94J&r_@'
p89
tp90
Rp91
ag7
(g11
S'\x1f\x02\xfa\x03&r_@'
p92
tp93
Rp94
ag7
(g11
S'\xda\x99\xe0\xc5$r_@'
p95
tp96
Rp97
ag7
(g11
S'\xf3Du\x93%r_@'
p98
tp99
Rp100
ag7
(g11
S'\xac9\xe1p%r_@'
p101
tp102
Rp103
asss.