(dp0
S'../Data/x264_2.csv'
p1
(dp2
S'../Data/x264_1.csv'
p3
(dp4
S'mmre'
p5
(lp6
cnumpy.core.multiarray
scalar
p7
(cnumpy
dtype
p8
(S'f8'
p9
I0
I1
tp10
Rp11
(I3
S'<'
p12
NNNI-1
I-1
I0
tp13
bS'\x1fd\xe8\x8c vK@'
p14
tp15
Rp16
ag7
(g11
S'\xbb)\xa9\x8d vK@'
p17
tp18
Rp19
ag7
(g11
S'\x1fd\xe8\x8c vK@'
p20
tp21
Rp22
ag7
(g11
S'\xe8\xc69\x91 vK@'
p23
tp24
Rp25
ag7
(g11
S'\xf6\xbbN\x8f vK@'
p26
tp27
Rp28
ag7
(g11
S'\x11\x87\xdb\xa2 vK@'
p29
tp30
Rp31
ag7
(g11
S'\xf8;\x16\xa5 vK@'
p32
tp33
Rp34
ag7
(g11
S'\xae\x03\xdf\xa6 vK@'
p35
tp36
Rp37
ag7
(g11
S'\x11\x87\xdb\xa2 vK@'
p38
tp39
Rp40
ag7
(g11
S'\x938R\x93 vK@'
p41
tp42
Rp43
ag7
(g11
S'dL>\x8e vK@'
p44
tp45
Rp46
ag7
(g11
S'\x87\xbd\xcb\x8c vK@'
p47
tp48
Rp49
ag7
(g11
S'f\x1b\x89\xa5 vK@'
p50
tp51
Rp52
ag7
(g11
S'\xdc\x9a6\x8c vK@'
p53
tp54
Rp55
ag7
(g11
S'\xea\x0f\x13\xa0 vK@'
p56
tp57
Rp58
ag7
(g11
S'\x03\xe1I\xa6 vK@'
p59
tp60
Rp61
ag7
(g11
S's\xc1\x1a\xa2 vK@'
p62
tp63
Rp64
ag7
(g11
S'1\xf8h\xa1 vK@'
p65
tp66
Rp67
ag7
(g11
S'dL>\x8e vK@'
p68
tp69
Rp70
ag7
(g11
S'e\x9b\xc1\x8f vK@'
p71
tp72
Rp73
ag7
(g11
S'\x03\xe1I\xa6 vK@'
p74
tp75
Rp76
ag7
(g11
S'\xa7\xcc\xd2\xa7 vK@'
p77
tp78
Rp79
ag7
(g11
S's\xc1\x1a\xa2 vK@'
p80
tp81
Rp82
ag7
(g11
S'f\x1b\x89\xa5 vK@'
p83
tp84
Rp85
ag7
(g11
S'\xe8\xc69\x91 vK@'
p86
tp87
Rp88
ag7
(g11
S'\x10\xbeV\x90 vK@'
p89
tp90
Rp91
ag7
(g11
S'Qo\xa0\x92 vK@'
p92
tp93
Rp94
ag7
(g11
S'y\x17:\x90 vK@'
p95
tp96
Rp97
ag7
(g11
S'y\x17:\x90 vK@'
p98
tp99
Rp100
ag7
(g11
S'\x93\xb2\xe0\x8a vK@'
p101
tp102
Rp103
asss.