(dp0
S'../Data/x264_8.csv'
p1
(dp2
S'../Data/x264_12.csv'
p3
(dp4
S'mmre'
p5
(lp6
cnumpy.core.multiarray
scalar
p7
(cnumpy
dtype
p8
(S'f8'
p9
I0
I1
tp10
Rp11
(I3
S'<'
p12
NNNI-1
I-1
I0
tp13
bS'\xb4\xf33\xb6;my@'
p14
tp15
Rp16
ag7
(g11
S'\xfd\x13\xb7S;my@'
p17
tp18
Rp19
ag7
(g11
S'\xd8\xe3\x9a\xd4:my@'
p20
tp21
Rp22
ag7
(g11
S'\x8c\xe7\xe4r=my@'
p23
tp24
Rp25
ag7
(g11
S'\x9a\xd2\xe5\xeb=my@'
p26
tp27
Rp28
ag7
(g11
S'`\x00\xe8\x97;my@'
p29
tp30
Rp31
ag7
(g11
S'\xed\xa0;\xee:my@'
p32
tp33
Rp34
ag7
(g11
S'\xa9{\xe6\xa5;my@'
p35
tp36
Rp37
ag7
(g11
S'\xc4\np\x12>my@'
p38
tp39
Rp40
ag7
(g11
S'V\xa6\x08\xd9:my@'
p41
tp42
Rp43
ag7
(g11
S'\x9f!\x96\x8d=my@'
p44
tp45
Rp46
ag7
(g11
S'\xa6\xc1\xcd\x9e=my@'
p47
tp48
Rp49
ag7
(g11
S'\n\x1b\x1b\xa8=my@'
p50
tp51
Rp52
ag7
(g11
S'\xbd\x8d1\\;my@'
p53
tp54
Rp55
ag7
(g11
S'a\x08\xeb\xe4:my@'
p56
tp57
Rp58
ag7
(g11
S'C,,\xe0=my@'
p59
tp60
Rp61
ag7
(g11
S'\x996\xb4F=my@'
p62
tp63
Rp64
ag7
(g11
S'w\x06\x12\xcb=my@'
p65
tp66
Rp67
ag7
(g11
S'* \x9d\xf4=my@'
p68
tp69
Rp70
ag7
(g11
S'v\x1e\x18\xca;my@'
p71
tp72
Rp73
ag7
(g11
S'A=\x90[=my@'
p74
tp75
Rp76
ag7
(g11
S'[m\x11\xdd=my@'
p77
tp78
Rp79
ag7
(g11
S'\xa8\xb1\x04\xd5=my@'
p80
tp81
Rp82
ag7
(g11
S'~\xea\x8e\xa6=my@'
p83
tp84
Rp85
ag7
(g11
S' y\rd=my@'
p86
tp87
Rp88
ag7
(g11
S'\\\xb7\xf6};my@'
p89
tp90
Rp91
ag7
(g11
S'\xb6\x83v\xbd;my@'
p92
tp93
Rp94
ag7
(g11
S'8\xe81\x83=my@'
p95
tp96
Rp97
ag7
(g11
S'\xb4\xef\xba\x12=my@'
p98
tp99
Rp100
ag7
(g11
S'jr\xe3I=my@'
p101
tp102
Rp103
asss.