(dp0
S'../Data/x264_18.csv'
p1
(dp2
S'../Data/x264_3.csv'
p3
(dp4
S'mmre'
p5
(lp6
cnumpy.core.multiarray
scalar
p7
(cnumpy
dtype
p8
(S'f8'
p9
I0
I1
tp10
Rp11
(I3
S'<'
p12
NNNI-1
I-1
I0
tp13
bS'\xf0\xe6>lZe+@'
p14
tp15
Rp16
ag7
(g11
S'\xf0\xe6>lZe+@'
p17
tp18
Rp19
ag7
(g11
S'\xf0\xe6>lZe+@'
p20
tp21
Rp22
ag7
(g11
S'\xf0\xe6>lZe+@'
p23
tp24
Rp25
ag7
(g11
S'\xf0\xe6>lZe+@'
p26
tp27
Rp28
ag7
(g11
S'\xf0\xe6>lZe+@'
p29
tp30
Rp31
ag7
(g11
S'\xf0\xe6>lZe+@'
p32
tp33
Rp34
ag7
(g11
S'\xf0\xe6>lZe+@'
p35
tp36
Rp37
ag7
(g11
S'\xf0\xe6>lZe+@'
p38
tp39
Rp40
ag7
(g11
S'\xf0\xe6>lZe+@'
p41
tp42
Rp43
ag7
(g11
S'\xf0\xe6>lZe+@'
p44
tp45
Rp46
ag7
(g11
S'\xf0\xe6>lZe+@'
p47
tp48
Rp49
ag7
(g11
S'\xf0\xe6>lZe+@'
p50
tp51
Rp52
ag7
(g11
S'\xf0\xe6>lZe+@'
p53
tp54
Rp55
ag7
(g11
S'\xf0\xe6>lZe+@'
p56
tp57
Rp58
ag7
(g11
S'\xf0\xe6>lZe+@'
p59
tp60
Rp61
ag7
(g11
S'\xf0\xe6>lZe+@'
p62
tp63
Rp64
ag7
(g11
S'\xf0\xe6>lZe+@'
p65
tp66
Rp67
ag7
(g11
S'\xf0\xe6>lZe+@'
p68
tp69
Rp70
ag7
(g11
S'\xf0\xe6>lZe+@'
p71
tp72
Rp73
ag7
(g11
S'\xf0\xe6>lZe+@'
p74
tp75
Rp76
ag7
(g11
S'\xf0\xe6>lZe+@'
p77
tp78
Rp79
ag7
(g11
S'\xf0\xe6>lZe+@'
p80
tp81
Rp82
ag7
(g11
S'\xf0\xe6>lZe+@'
p83
tp84
Rp85
ag7
(g11
S'\xf0\xe6>lZe+@'
p86
tp87
Rp88
ag7
(g11
S'\xf0\xe6>lZe+@'
p89
tp90
Rp91
ag7
(g11
S'\xf0\xe6>lZe+@'
p92
tp93
Rp94
ag7
(g11
S'\xf0\xe6>lZe+@'
p95
tp96
Rp97
ag7
(g11
S'\xf0\xe6>lZe+@'
p98
tp99
Rp100
ag7
(g11
S'\xf0\xe6>lZe+@'
p101
tp102
Rp103
asss.