(dp0
S'../Data/x264_2.csv'
p1
(dp2
S'../Data/x264_0.csv'
p3
(dp4
S'mmre'
p5
(lp6
cnumpy.core.multiarray
scalar
p7
(cnumpy
dtype
p8
(S'f8'
p9
I0
I1
tp10
Rp11
(I3
S'<'
p12
NNNI-1
I-1
I0
tp13
bS'\xe0\x89>CsZL@'
p14
tp15
Rp16
ag7
(g11
S'\xc5\x7f\xfc\xb0sZL@'
p17
tp18
Rp19
ag7
(g11
S'\xb8\x07\xea\\oZL@'
p20
tp21
Rp22
ag7
(g11
S'\x83r/\xccrZL@'
p23
tp24
Rp25
ag7
(g11
S'\xaf1\x10\x12oZL@'
p26
tp27
Rp28
ag7
(g11
S'U\x88\x17\x18sZL@'
p29
tp30
Rp31
ag7
(g11
S'\x1dv\x8eloZL@'
p32
tp33
Rp34
ag7
(g11
S'\xcf9W+sZL@'
p35
tp36
Rp37
ag7
(g11
S'\xfd\xdd\xce/sZL@'
p38
tp39
Rp40
ag7
(g11
S'%{\x8cWsZL@'
p41
tp42
Rp43
ag7
(g11
S'\xd7\x88-\x8aoZL@'
p44
tp45
Rp46
ag7
(g11
S'F[\xa84sZL@'
p47
tp48
Rp49
ag7
(g11
S'\xf0[t\x17sZL@'
p50
tp51
Rp52
ag7
(g11
S'\xf0[t\x17sZL@'
p53
tp54
Rp55
ag7
(g11
S'\xea\xb5\x9cmoZL@'
p56
tp57
Rp58
ag7
(g11
S'\xcf9W+sZL@'
p59
tp60
Rp61
ag7
(g11
S'\x92\xbf\n\xb2sZL@'
p62
tp63
Rp64
ag7
(g11
S'5\xa8\xfb:sZL@'
p65
tp66
Rp67
ag7
(g11
S'\xca\x1d\xdd0sZL@'
p68
tp69
Rp70
ag7
(g11
S'\xf0[t\x17sZL@'
p71
tp72
Rp73
ag7
(g11
S"\x10\x84:'oZL@"
p74
tp75
Rp76
ag7
(g11
S'\xac\xc9LDsZL@'
p77
tp78
Rp79
ag7
(g11
S'\xbb\x03K\xbcoZL@'
p80
tp81
Rp82
ag7
(g11
S'\x8bH\t\x17sZL@'
p83
tp84
Rp85
ag7
(g11
S'Ls\x83\x8esZL@'
p86
tp87
Rp88
ag7
(g11
S'\xc5\x7f\xfc\xb0sZL@'
p89
tp90
Rp91
ag7
(g11
S'&\xd6\xc5fsZL@'
p92
tp93
Rp94
ag7
(g11
S'\x84\xd1U\rsZL@'
p95
tp96
Rp97
ag7
(g11
S'8\x80\xd0\xfenZL@'
p98
tp99
Rp100
ag7
(g11
S'\x9dQ:\xf0nZL@'
p101
tp102
Rp103
asss.