(dp0
S'../Data/x264_8.csv'
p1
(dp2
S'../Data/x264_0.csv'
p3
(dp4
S'mmre'
p5
(lp6
cnumpy.core.multiarray
scalar
p7
(cnumpy
dtype
p8
(S'f8'
p9
I0
I1
tp10
Rp11
(I3
S'<'
p12
NNNI-1
I-1
I0
tp13
bS'\x16\xb5g\x9c.\x81^@'
p14
tp15
Rp16
ag7
(g11
S'`.Xg.\x81^@'
p17
tp18
Rp19
ag7
(g11
S'\xd3\xed\x7ft.\x81^@'
p20
tp21
Rp22
ag7
(g11
S'\xbb\xb3\xa1R.\x81^@'
p23
tp24
Rp25
ag7
(g11
S'}R?!/\x81^@'
p26
tp27
Rp28
ag7
(g11
S'zJ\xfcU.\x81^@'
p29
tp30
Rp31
ag7
(g11
S'd\xfegr.\x81^@'
p32
tp33
Rp34
ag7
(g11
S'f\x08I|.\x81^@'
p35
tp36
Rp37
ag7
(g11
S'3\x01\xe43.\x81^@'
p38
tp39
Rp40
ag7
(g11
S'\x02\xce\xddc.\x81^@'
p41
tp42
Rp43
ag7
(g11
S'Ki\xd8\xa8.\x81^@'
p44
tp45
Rp46
ag7
(g11
S':\xff\xaaZ/\x81^@'
p47
tp48
Rp49
ag7
(g11
S'\xb0\xa5H1/\x81^@'
p50
tp51
Rp52
ag7
(g11
S'\x8d5.\x8b.\x81^@'
p53
tp54
Rp55
ag7
(g11
S'!\x86%Y/\x81^@'
p56
tp57
Rp58
ag7
(g11
S'e\x82~\x9b.\x81^@'
p59
tp60
Rp61
ag7
(g11
S'G\xcd#\x0e/\x81^@'
p62
tp63
Rp64
ag7
(g11
S'\xa5I\xd1&/\x81^@'
p65
tp66
Rp67
ag7
(g11
S'2\xfa\x8f)/\x81^@'
p68
tp69
Rp70
ag7
(g11
S'\xe1\xb5\x0fZ.\x81^@'
p71
tp72
Rp73
ag7
(g11
S'g%\x98J.\x81^@'
p74
tp75
Rp76
ag7
(g11
S'A\xc1\x07#/\x81^@'
p77
tp78
Rp79
ag7
(g11
S'\xea\x98\xefg.\x81^@'
p80
tp81
Rp82
ag7
(g11
S'\xc7C"\x9a.\x81^@'
p83
tp84
Rp85
ag7
(g11
S'i\n\xa4?.\x81^@'
p86
tp87
Rp88
ag7
(g11
S'q\xd8\x15\x8f.\x81^@'
p89
tp90
Rp91
ag7
(g11
S'q\xca>\x80.\x81^@'
p92
tp93
Rp94
ag7
(g11
S'\x1f\xbe\x87g/\x81^@'
p95
tp96
Rp97
ag7
(g11
S'\xd8\xabeJ/\x81^@'
p98
tp99
Rp100
ag7
(g11
S's`\x8bC.\x81^@'
p101
tp102
Rp103
asss.