(dp0
S'../Data/x264_20.csv'
p1
(dp2
S'../Data/x264_14.csv'
p3
(dp4
S'rank'
p5
(lp6
I16
aI16
aI16
aI16
aI16
aI16
aI16
aI16
aI16
aI16
aI16
aI16
aI16
aI16
aI16
aI16
aI16
aI16
aI16
aI16
aI16
aI16
aI16
aI16
aI16
aI16
aI16
aI16
aI16
aI16
asss.