(dp0
S'../Data/x264_15.csv'
p1
(dp2
S'../Data/x264_18.csv'
p3
(dp4
S'mmre'
p5
(lp6
cnumpy.core.multiarray
scalar
p7
(cnumpy
dtype
p8
(S'f8'
p9
I0
I1
tp10
Rp11
(I3
S'<'
p12
NNNI-1
I-1
I0
tp13
bS'\x86:\x92\x1cJ\x1eT@'
p14
tp15
Rp16
ag7
(g11
S'6\x95+0J\x1eT@'
p17
tp18
Rp19
ag7
(g11
S'6\x95+0J\x1eT@'
p20
tp21
Rp22
ag7
(g11
S'\x86:\x92\x1cJ\x1eT@'
p23
tp24
Rp25
ag7
(g11
S'6\x95+0J\x1eT@'
p26
tp27
Rp28
ag7
(g11
S'\x86:\x92\x1cJ\x1eT@'
p29
tp30
Rp31
ag7
(g11
S'6\x95+0J\x1eT@'
p32
tp33
Rp34
ag7
(g11
S'6\x95+0J\x1eT@'
p35
tp36
Rp37
ag7
(g11
S'\x86:\x92\x1cJ\x1eT@'
p38
tp39
Rp40
ag7
(g11
S'6\x95+0J\x1eT@'
p41
tp42
Rp43
ag7
(g11
S'6\x95+0J\x1eT@'
p44
tp45
Rp46
ag7
(g11
S'6\x95+0J\x1eT@'
p47
tp48
Rp49
ag7
(g11
S'6\x95+0J\x1eT@'
p50
tp51
Rp52
ag7
(g11
S'\x86:\x92\x1cJ\x1eT@'
p53
tp54
Rp55
ag7
(g11
S'\x86:\x92\x1cJ\x1eT@'
p56
tp57
Rp58
ag7
(g11
S'\x86:\x92\x1cJ\x1eT@'
p59
tp60
Rp61
ag7
(g11
S'6\x95+0J\x1eT@'
p62
tp63
Rp64
ag7
(g11
S'6\x95+0J\x1eT@'
p65
tp66
Rp67
ag7
(g11
S'\x86:\x92\x1cJ\x1eT@'
p68
tp69
Rp70
ag7
(g11
S'6\x95+0J\x1eT@'
p71
tp72
Rp73
ag7
(g11
S'\x86:\x92\x1cJ\x1eT@'
p74
tp75
Rp76
ag7
(g11
S'\x86:\x92\x1cJ\x1eT@'
p77
tp78
Rp79
ag7
(g11
S'\x86:\x92\x1cJ\x1eT@'
p80
tp81
Rp82
ag7
(g11
S'\x86:\x92\x1cJ\x1eT@'
p83
tp84
Rp85
ag7
(g11
S'6\x95+0J\x1eT@'
p86
tp87
Rp88
ag7
(g11
S'6\x95+0J\x1eT@'
p89
tp90
Rp91
ag7
(g11
S'\x86:\x92\x1cJ\x1eT@'
p92
tp93
Rp94
ag7
(g11
S'6\x95+0J\x1eT@'
p95
tp96
Rp97
ag7
(g11
S'6\x95+0J\x1eT@'
p98
tp99
Rp100
ag7
(g11
S'6\x95+0J\x1eT@'
p101
tp102
Rp103
asss.