(dp0
S'../Data/x264_2.csv'
p1
(dp2
S'../Data/x264_16.csv'
p3
(dp4
S'mmre'
p5
(lp6
cnumpy.core.multiarray
scalar
p7
(cnumpy
dtype
p8
(S'f8'
p9
I0
I1
tp10
Rp11
(I3
S'<'
p12
NNNI-1
I-1
I0
tp13
bS'aF\xd0\xd9l\nL@'
p14
tp15
Rp16
ag7
(g11
S'\xdeiw\xecl\nL@'
p17
tp18
Rp19
ag7
(g11
S'SIp\x1cl\nL@'
p20
tp21
Rp22
ag7
(g11
S'i\xdbE\xefl\nL@'
p23
tp24
Rp25
ag7
(g11
S'S\xd8\xa2\x1bl\nL@'
p26
tp27
Rp28
ag7
(g11
S'j\xbc\x8a\x16l\nL@'
p29
tp30
Rp31
ag7
(g11
S'\xd8\x8b\xb1\xf4l\nL@'
p32
tp33
Rp34
ag7
(g11
S'j\xbc\x8a\x16l\nL@'
p35
tp36
Rp37
ag7
(g11
S';\x84C\xfal\nL@'
p38
tp39
Rp40
ag7
(g11
S'\xcb\xd3\xd7\xf4l\nL@'
p41
tp42
Rp43
ag7
(g11
S'\x96\x13:\xdbl\nL@'
p44
tp45
Rp46
ag7
(g11
S'\xab\xa5\x0f\xaem\nL@'
p47
tp48
Rp49
ag7
(g11
S'i\xb3\xc8\xd0l\nL@'
p50
tp51
Rp52
ag7
(g11
S'\xce\xb4\x1c\x1cl\nL@'
p53
tp54
Rp55
ag7
(g11
S'\x00y\x17\x08l\nL@'
p56
tp57
Rp58
ag7
(g11
S'\x90\xf0\xd5\xf0l\nL@'
p59
tp60
Rp61
ag7
(g11
S'\x06\xbb6\xcbl\nL@'
p62
tp63
Rp64
ag7
(g11
S'\x9e\xed5\xaem\nL@'
p65
tp66
Rp67
ag7
(g11
S'\xe4F\xf2\xeel\nL@'
p68
tp69
Rp70
ag7
(g11
S'\xeaiV\xd9l\nL@'
p71
tp72
Rp73
ag7
(g11
S'DC\xe1\xc6l\nL@'
p74
tp75
Rp76
ag7
(g11
S'&c\xce\xd5l\nL@'
p77
tp78
Rp79
ag7
(g11
S'\xdal\xf6\x1bl\nL@'
p80
tp81
Rp82
ag7
(g11
S'HI$\xddl\nL@'
p83
tp84
Rp85
ag7
(g11
S'\x92\xbb\xa4\x1fl\nL@'
p86
tp87
Rp88
ag7
(g11
S'\x90,r l\nL@'
p89
tp90
Rp91
ag7
(g11
S'yH\x8a%l\nL@'
p92
tp93
Rp94
ag7
(g11
S'\t\x98\x1e l\nL@'
p95
tp96
Rp97
ag7
(g11
S';\x84C\xfal\nL@'
p98
tp99
Rp100
ag7
(g11
S'SIp\x1cl\nL@'
p101
tp102
Rp103
asss.