(dp0
S'../Data/x264_14.csv'
p1
(dp2
S'../Data/x264_1.csv'
p3
(dp4
S'rank'
p5
(lp6
I8
aI8
aI8
aI8
aI8
aI8
aI8
aI8
aI8
aI8
aI8
aI8
aI8
aI8
aI8
aI8
aI8
aI8
aI8
aI8
aI8
aI8
aI8
aI8
aI8
aI8
aI8
aI8
aI8
aI8
asss.