(dp0
S'../Data/x264_8.csv'
p1
(dp2
S'../Data/x264_6.csv'
p3
(dp4
S'mmre'
p5
(lp6
cnumpy.core.multiarray
scalar
p7
(cnumpy
dtype
p8
(S'f8'
p9
I0
I1
tp10
Rp11
(I3
S'<'
p12
NNNI-1
I-1
I0
tp13
bS'Mf5\x16\x07u@@'
p14
tp15
Rp16
ag7
(g11
S'1\x1f\xa6\xc7\xfdt@@'
p17
tp18
Rp19
ag7
(g11
S'N\x81\x94\x8a\tu@@'
p20
tp21
Rp22
ag7
(g11
S'S\x89\x8c`\x06u@@'
p23
tp24
Rp25
ag7
(g11
S'P\x8f3\x80Nu@@'
p26
tp27
Rp28
ag7
(g11
S'B\x03v$Fu@@'
p29
tp30
Rp31
ag7
(g11
S'M\xe7\xde\x1dOu@@'
p32
tp33
Rp34
ag7
(g11
S'\xf8\r\xb5\xd2\x0bu@@'
p35
tp36
Rp37
ag7
(g11
S'/\xecR\xe8Gu@@'
p38
tp39
Rp40
ag7
(g11
S'\xcf\xabJ,\x01u@@'
p41
tp42
Rp43
ag7
(g11
S'1wN\r\x03u@@'
p44
tp45
Rp46
ag7
(g11
S'\x18=\xb6JKu@@'
p47
tp48
Rp49
ag7
(g11
S'\x9d\x1fLxOu@@'
p50
tp51
Rp52
ag7
(g11
S'\xd6x\xf5\x96\x03u@@'
p53
tp54
Rp55
ag7
(g11
S'3\x05\xc9\xeaEu@@'
p56
tp57
Rp58
ag7
(g11
S'\xf7\xf6\x15\xcaIu@@'
p59
tp60
Rp61
ag7
(g11
S'!\xbb\x9b}\x04u@@'
p62
tp63
Rp64
ag7
(g11
S'\x80Hk\x15\x04u@@'
p65
tp66
Rp67
ag7
(g11
S'@I\xd1\x0bCu@@'
p68
tp69
Rp70
ag7
(g11
S'\xd7\xc1\xa5\xb7Du@@'
p71
tp72
Rp73
ag7
(g11
S'\xe9\xd9\xeaQHu@@'
p74
tp75
Rp76
ag7
(g11
S'\xc1\xe0\x86\xfbAu@@'
p77
tp78
Rp79
ag7
(g11
S'\nF\xeb\xa0Fu@@'
p80
tp81
Rp82
ag7
(g11
S'b\x10\xec\x0c\x05u@@'
p83
tp84
Rp85
ag7
(g11
S'\xc8E\x8d(Hu@@'
p86
tp87
Rp88
ag7
(g11
S'\xb36%\x04Ju@@'
p89
tp90
Rp91
ag7
(g11
S'\x9c\x8d\x16\x01\x06u@@'
p92
tp93
Rp94
ag7
(g11
S'\xec\xd1\x1d\xeaCu@@'
p95
tp96
Rp97
ag7
(g11
S'74\xf2M\x01u@@'
p98
tp99
Rp100
ag7
(g11
S'\n\x16\xb1\x15\xfft@@'
p101
tp102
Rp103
asss.