(dp0
S'../Data/x264_2.csv'
p1
(dp2
S'../Data/x264_5.csv'
p3
(dp4
S'mmre'
p5
(lp6
cnumpy.core.multiarray
scalar
p7
(cnumpy
dtype
p8
(S'f8'
p9
I0
I1
tp10
Rp11
(I3
S'<'
p12
NNNI-1
I-1
I0
tp13
bS'\x86:\x1cus`M@'
p14
tp15
Rp16
ag7
(g11
S'|\xc2\xdfHs`M@'
p17
tp18
Rp19
ag7
(g11
S'j\xf8\x7fYs`M@'
p20
tp21
Rp22
ag7
(g11
S'yTD\xecs`M@'
p23
tp24
Rp25
ag7
(g11
S'Zzc\x04t`M@'
p26
tp27
Rp28
ag7
(g11
S'd\xb4X\xf0s`M@'
p29
tp30
Rp31
ag7
(g11
S'\xd8\xad\x99\xeds`M@'
p32
tp33
Rp34
ag7
(g11
S'\xd808Ks`M@'
p35
tp36
Rp37
ag7
(g11
S'\x9a\x05\xb2\xf4s`M@'
p38
tp39
Rp40
ag7
(g11
S'\xb9\xdf\x92\xdcs`M@'
p41
tp42
Rp43
ag7
(g11
S'\xd2\x00\x96\xe1s`M@'
p44
tp45
Rp46
ag7
(g11
S"\x8a'\xcd\x05t`M@"
p47
tp48
Rp49
ag7
(g11
S'\x02nR^s`M@'
p50
tp51
Rp52
ag7
(g11
S'\x95\x02|]s`M@'
p53
tp54
Rp55
ag7
(g11
S'\xa9\xa2gYs`M@'
p56
tp57
Rp58
ag7
(g11
S'\xd8\xad\x99\xeds`M@'
p59
tp60
Rp61
ag7
(g11
S'\xacp\x7f\xdas`M@'
p62
tp63
Rp64
ag7
(g11
S'>7\x91Xs`M@'
p65
tp66
Rp67
ag7
(g11
S'\xf4\xd0\x9c\xf9s`M@'
p68
tp69
Rp70
ag7
(g11
S'(\x0cq\xf7s`M@'
p71
tp72
Rp73
ag7
(g11
S'8\xa9&\\s`M@'
p74
tp75
Rp76
ag7
(g11
S'\x8f\xb57\x02t`M@'
p77
tp78
Rp79
ag7
(g11
S'\x05<j\xdfs`M@'
p80
tp81
Rp82
ag7
(g11
S'y5\xab\xdcs`M@'
p83
tp84
Rp85
ag7
(g11
S'\xd3\x1f/\xf1s`M@'
p86
tp87
Rp88
ag7
(g11
S'\x9a\x05\xb2\xf4s`M@'
p89
tp90
Rp91
ag7
(g11
S'\xd2\x00\x96\xe1s`M@'
p92
tp93
Rp94
ag7
(g11
S'\x18\xcfEts`M@'
p95
tp96
Rp97
ag7
(g11
S'j\xf8\x7fYs`M@'
p98
tp99
Rp100
ag7
(g11
S'\xdaP\x07\xebs`M@'
p101
tp102
Rp103
asss.