(dp0
S'../Data/x264_19.csv'
p1
(dp2
S'../Data/x264_14.csv'
p3
(dp4
S'rank'
p5
(lp6
I13
aI13
aI13
aI13
aI13
aI13
aI13
aI13
aI13
aI13
aI13
aI13
aI13
aI13
aI13
aI13
aI13
aI13
aI13
aI13
aI13
aI13
aI13
aI13
aI13
aI13
aI13
aI13
aI13
aI13
asss.