(dp0
S'../Data/x264_8.csv'
p1
(dp2
S'../Data/x264_4.csv'
p3
(dp4
S'mmre'
p5
(lp6
cnumpy.core.multiarray
scalar
p7
(cnumpy
dtype
p8
(S'f8'
p9
I0
I1
tp10
Rp11
(I3
S'<'
p12
NNNI-1
I-1
I0
tp13
bS'8\xf3\xef\x1fmid@'
p14
tp15
Rp16
ag7
(g11
S'\xf3\xd6Wxmid@'
p17
tp18
Rp19
ag7
(g11
S'\xf5%\xce\xbamid@'
p20
tp21
Rp22
ag7
(g11
S"\xa1'\xe9Nmid@"
p23
tp24
Rp25
ag7
(g11
S'\xea\xce\xc0\xdclid@'
p26
tp27
Rp28
ag7
(g11
S'\x10\x9dG\xc8mid@'
p29
tp30
Rp31
ag7
(g11
S'U\xd9J3mid@'
p32
tp33
Rp34
ag7
(g11
S"'=\x01=mid@"
p35
tp36
Rp37
ag7
(g11
S'\x0b\xc4\x11pmid@'
p38
tp39
Rp40
ag7
(g11
S'\xfe\x1e7ymid@'
p41
tp42
Rp43
ag7
(g11
S'\x0e_\xbdzmid@'
p44
tp45
Rp46
ag7
(g11
S'lQ\xecmmid@'
p47
tp48
Rp49
ag7
(g11
S'$$\x1bsmid@'
p50
tp51
Rp52
ag7
(g11
S'\x85%2Emid@'
p53
tp54
Rp55
ag7
(g11
S'C4%Kmid@'
p56
tp57
Rp58
ag7
(g11
S'\xb9,\xcbrmid@'
p59
tp60
Rp61
ag7
(g11
S'\xea\xdb\xe7\x83mid@'
p62
tp63
Rp64
ag7
(g11
S'\x93\x92\x95Emid@'
p65
tp66
Rp67
ag7
(g11
S'T\x9eN~mid@'
p68
tp69
Rp70
ag7
(g11
S'i\xff\xe9\x92mid@'
p71
tp72
Rp73
ag7
(g11
S"'{\x16\xb2mid@"
p74
tp75
Rp76
ag7
(g11
S'g\xf6"\x1bmid@'
p77
tp78
Rp79
ag7
(g11
S'\xe5\xfa$vmid@'
p80
tp81
Rp82
ag7
(g11
S'\xdf9\x9e\x97mid@'
p83
tp84
Rp85
ag7
(g11
S'\xce\xa3\xb7\xb8mid@'
p86
tp87
Rp88
ag7
(g11
S'I;\x9f\xd7mid@'
p89
tp90
Rp91
ag7
(g11
S'\x96\r\xd6Hmid@'
p92
tp93
Rp94
ag7
(g11
S'{\x92\xd9\x80mid@'
p95
tp96
Rp97
ag7
(g11
S'EI\xf6\xb1mid@'
p98
tp99
Rp100
ag7
(g11
S'Y\xb2\x1eVmid@'
p101
tp102
Rp103
asss.