(dp0
S'../Data/x264_11.csv'
p1
(dp2
S'../Data/x264_8.csv'
p3
(dp4
S'mmre'
p5
(lp6
cnumpy.core.multiarray
scalar
p7
(cnumpy
dtype
p8
(S'f8'
p9
I0
I1
tp10
Rp11
(I3
S'<'
p12
NNNI-1
I-1
I0
tp13
bS'p\x88\x0b\xd6>\n$@'
p14
tp15
Rp16
ag7
(g11
S'\x99\xe8\xa8)2\n$@'
p17
tp18
Rp19
ag7
(g11
S'L\xb8\xb7\x1a\x0e\n$@'
p20
tp21
Rp22
ag7
(g11
S'x\xea\x81jP\n$@'
p23
tp24
Rp25
ag7
(g11
S'\xe9\x8b*N)\n$@'
p26
tp27
Rp28
ag7
(g11
S'v%-\x08\x1e\n$@'
p29
tp30
Rp31
ag7
(g11
S'\x11\x0b\x94\x90\xd1\x08$@'
p32
tp33
Rp34
ag7
(g11
S')\xb4+\xf3\x1b\n$@'
p35
tp36
Rp37
ag7
(g11
S'q\xbd\x93R\xe9\t$@'
p38
tp39
Rp40
ag7
(g11
S'\xf5\x1b\x1c\x8d\x12\t$@'
p41
tp42
Rp43
ag7
(g11
S'M<\xf9\xb1\xf4\x08$@'
p44
tp45
Rp46
ag7
(g11
S'\x85{aMF\n$@'
p47
tp48
Rp49
ag7
(g11
S'\x8e\xbf\xea:*\n$@'
p50
tp51
Rp52
ag7
(g11
S'\t%\xeaD\x17\n$@'
p53
tp54
Rp55
ag7
(g11
S'\xe2e\xd4\x10?\n$@'
p56
tp57
Rp58
ag7
(g11
S'\xfb\xc2\x14\xa60\n$@'
p59
tp60
Rp61
ag7
(g11
S'd\x9b\xe83\x03\n$@'
p62
tp63
Rp64
ag7
(g11
S'P|\x12\xe5\xe4\x08$@'
p65
tp66
Rp67
ag7
(g11
S'\xfaIp\x19\r\n$@'
p68
tp69
Rp70
ag7
(g11
S'i\xccg\x81n\n$@'
p71
tp72
Rp73
ag7
(g11
S'V\xda\xba1(\n$@'
p74
tp75
Rp76
ag7
(g11
S'\xb5\x8f\xca:\x00\n$@'
p77
tp78
Rp79
ag7
(g11
S'\x1c\xe5\xce\x90\xfa\t$@'
p80
tp81
Rp82
ag7
(g11
S'\x14\x18Z\xfe"\n$@'
p83
tp84
Rp85
ag7
(g11
S'v\xdc\x9cF\x18\n$@'
p86
tp87
Rp88
ag7
(g11
S'vB\xb8\xc4 \n$@'
p89
tp90
Rp91
ag7
(g11
S'Ymh,.\n$@'
p92
tp93
Rp94
ag7
(g11
S'\x99\xe3P\xe4]\n$@'
p95
tp96
Rp97
ag7
(g11
S'\x91\x81m\x0e\x16\n$@'
p98
tp99
Rp100
ag7
(g11
S'\xad5V\xef\xde\x08$@'
p101
tp102
Rp103
asss.