(dp0
S'sac_4'
p1
(dp2
S'sac_7'
p3
(dp4
S'10'
p5
(dp6
S'bellwether'
p7
(lp8
I80
aI78
aI77
aI209
aI87
aI212
aI76
aI83
aI80
aI84
aI82
aI79
aI82
aI214
aI81
aI80
aI80
aI75
aI81
aI78
asS'target'
p9
(lp10
I143
aI235
aI238
aI6
aI156
aI121
aI102
aI139
aI238
aI32
aI140
aI235
aI113
aI115
aI147
aI237
aI9
aI79
aI9
aI52
assS'15'
p11
(dp12
g7
(lp13
I76
aI201
aI194
aI81
aI194
aI194
aI78
aI78
aI289
aI82
aI205
aI70
aI74
aI73
aI74
aI78
aI76
aI77
aI76
aI71
asg9
(lp14
I61
aI147
aI148
aI155
aI129
aI13
aI4
aI121
aI147
aI3
aI12
aI224
aI119
aI97
aI155
aI7
aI89
aI1
aI26
aI116
assS'25'
p15
(dp16
g7
(lp17
I66
aI175
aI69
aI68
aI69
aI176
aI71
aI74
aI74
aI71
aI181
aI63
aI177
aI184
aI181
aI64
aI73
aI72
aI69
aI68
asg9
(lp18
I116
aI113
aI115
aI118
aI118
aI135
aI195
aI143
aI99
aI113
aI117
aI193
aI133
aI143
aI101
aI41
aI124
aI142
aI6
aI107
assS'30'
p19
(dp20
g7
(lp21
I158
aI160
aI64
aI169
aI64
aI64
aI63
aI58
aI58
aI165
aI171
aI171
aI177
aI168
aI66
aI157
aI169
aI61
aI60
aI61
asg9
(lp22
I181
aI122
aI51
aI96
aI184
aI94
aI185
aI125
aI40
aI106
aI105
aI104
aI196
aI113
aI31
aI84
aI105
aI22
aI111
aI122
assS'35'
p23
(dp24
g7
(lp25
I59
aI156
aI62
aI57
aI56
aI172
aI150
aI60
aI58
aI152
aI157
aI50
aI56
aI59
aI59
aI224
aI160
aI61
aI55
aI62
asg9
(lp26
I87
aI116
aI100
aI104
aI91
aI98
aI115
aI176
aI180
aI37
aI34
aI145
aI80
aI96
aI98
aI76
aI137
aI98
aI169
aI86
assS'5'
p27
(dp28
g7
(lp29
I228
aI86
aI84
aI89
aI84
aI85
aI85
aI85
aI86
aI84
aI86
aI86
aI78
aI87
aI87
aI87
aI87
aI84
aI82
aI223
asg9
(lp30
I3
aI155
aI167
aI251
aI510
aI139
aI90
aI153
aI2
aI171
aI90
aI116
aI0
aI3
aI176
aI2
aI239
aI83
aI114
aI251
assS'40'
p31
(dp32
g7
(lp33
I144
aI58
aI55
aI60
aI52
aI50
aI53
aI146
aI51
aI55
aI55
aI54
aI54
aI44
aI59
aI48
aI60
aI145
aI140
aI138
asg9
(lp34
I112
aI158
aI89
aI92
aI126
aI98
aI83
aI93
aI113
aI157
aI133
aI111
aI74
aI66
aI123
aI109
aI78
aI132
aI0
aI130
assS'20'
p35
(dp36
g7
(lp37
I75
aI193
aI72
aI185
aI268
aI67
aI75
aI73
aI185
aI72
aI190
aI74
aI72
aI186
aI67
aI69
aI79
aI74
aI68
aI73
asg9
(lp38
I4
aI110
aI48
aI14
aI98
aI17
aI112
aI137
aI7
aI15
aI113
aI218
aI17
aI15
aI112
aI95
aI103
aI219
aI212
aI112
asssS'sac_6'
p39
(dp40
S'10'
p41
(dp42
g7
(lp43
I41
aI37
aI38
aI40
aI38
aI39
aI44
aI39
aI42
aI44
aI43
aI40
aI41
aI39
aI41
aI41
aI41
aI36
aI40
aI92
asg9
(lp44
I130
aI242
aI128
aI0
aI127
aI64
aI0
aI132
aI250
aI166
aI14
aI4
aI130
aI0
aI151
aI0
aI263
aI0
aI154
aI0
assS'15'
p45
(dp46
g7
(lp47
I37
aI38
aI38
aI92
aI36
aI38
aI90
aI38
aI39
aI41
aI38
aI41
aI40
aI35
aI36
aI41
aI40
aI94
aI91
aI38
asg9
(lp48
I123
aI3
aI0
aI0
aI126
aI131
aI0
aI116
aI260
aI131
aI3
aI23
aI3
aI4
aI0
aI133
aI245
aI128
aI120
aI0
assS'25'
p49
(dp50
g7
(lp51
I30
aI36
aI159
aI30
aI31
aI82
aI71
aI31
aI33
aI35
aI34
aI35
aI78
aI28
aI29
aI31
aI75
aI33
aI36
aI126
asg9
(lp52
I222
aI236
aI142
aI0
aI108
aI213
aI0
aI0
aI0
aI106
aI0
aI0
aI112
aI0
aI0
aI0
aI0
aI114
aI0
aI112
assS'30'
p53
(dp54
g7
(lp55
I35
aI26
aI32
aI120
aI72
aI74
aI32
aI35
aI35
aI33
aI32
aI33
aI76
aI115
aI36
aI113
aI29
aI34
aI76
aI78
asg9
(lp56
I0
aI0
aI213
aI222
aI122
aI105
aI0
aI101
aI0
aI0
aI0
aI217
aI101
aI0
aI0
aI0
aI0
aI0
aI100
aI0
assS'35'
p57
(dp58
g7
(lp59
I28
aI28
aI27
aI30
aI27
aI30
aI61
aI104
aI106
aI74
aI72
aI25
aI31
aI27
aI30
aI28
aI33
aI27
aI106
aI28
asg9
(lp60
I0
aI192
aI0
aI0
aI0
aI188
aI0
aI0
aI0
aI0
aI97
aI6
aI0
aI0
aI0
aI0
aI0
aI0
aI0
aI0
assg27
(dp61
g7
(lp62
I45
aI42
aI44
aI41
aI43
aI99
aI42
aI43
aI41
aI45
aI44
aI44
aI42
aI42
aI44
aI43
aI41
aI42
aI41
aI45
asg9
(lp63
I4
aI3
aI558
aI287
aI145
aI0
aI3
aI235
aI0
aI255
aI3
aI150
aI0
aI25
aI10
aI141
aI160
aI398
aI0
aI246
assS'40'
p64
(dp65
g7
(lp66
I67
aI71
aI103
aI68
aI25
aI64
aI102
aI29
aI25
aI30
aI27
aI57
aI33
aI104
aI23
aI31
aI89
aI25
aI24
aI100
asg9
(lp67
I0
aI183
aI164
aI0
aI0
aI0
aI107
aI0
aI87
aI0
aI172
aI0
aI85
aI186
aI0
aI194
aI79
aI0
aI0
aI0
assS'20'
p68
(dp69
g7
(lp70
I37
aI32
aI37
aI37
aI39
aI33
aI36
aI35
aI37
aI86
aI80
aI33
aI34
aI39
aI40
aI86
aI34
aI35
aI37
aI33
asg9
(lp71
I118
aI0
aI116
aI116
aI119
aI0
aI112
aI113
aI0
aI0
aI0
aI0
aI153
aI0
aI109
aI0
aI0
aI0
aI0
aI135
asssS'sac_5'
p72
(dp73
S'10'
p74
(dp75
g7
(lp76
I48
aI48
aI46
aI49
aI49
aI52
aI49
aI45
aI48
aI47
aI45
aI44
aI45
aI46
aI49
aI46
aI46
aI47
aI46
aI46
asg9
(lp77
I4
aI1
aI0
aI13
aI1
aI24
aI16
aI25
aI0
aI18
aI21
aI1
aI0
aI3
aI1
aI1
aI2
aI1
aI9
aI1
assS'15'
p78
(dp79
g7
(lp80
I47
aI43
aI45
aI41
aI53
aI49
aI46
aI44
aI46
aI45
aI45
aI47
aI49
aI53
aI42
aI46
aI40
aI42
aI45
aI48
asg9
(lp81
I1
aI16
aI1
aI1
aI0
aI24
aI19
aI19
aI1
aI1
aI0
aI1
aI7
aI8
aI14
aI10
aI25
aI10
aI9
aI1
assS'25'
p82
(dp83
g7
(lp84
I43
aI38
aI39
aI40
aI43
aI38
aI38
aI41
aI38
aI38
aI47
aI35
aI35
aI37
aI40
aI180
aI41
aI47
aI40
aI38
asg9
(lp85
I16
aI8
aI1
aI1
aI17
aI2
aI1
aI12
aI0
aI1
aI9
aI2
aI2
aI4
aI18
aI1
aI19
aI0
aI3
aI20
assS'30'
p86
(dp87
g7
(lp88
I40
aI36
aI36
aI36
aI38
aI42
aI33
aI39
aI33
aI44
aI36
aI34
aI37
aI38
aI33
aI38
aI40
aI40
aI173
aI30
asg9
(lp89
I14
aI2
aI2
aI2
aI5
aI14
aI1
aI19
aI7
aI1
aI2
aI10
aI1
aI8
aI0
aI26
aI2
aI2
aI0
aI10
assS'35'
p90
(dp91
g7
(lp92
I33
aI41
aI31
aI32
aI34
aI45
aI36
aI39
aI35
aI184
aI25
aI41
aI41
aI43
aI29
aI46
aI32
aI29
aI37
aI36
asg9
(lp93
I0
aI3
aI10
aI9
aI7
aI6
aI1
aI0
aI9
aI0
aI1
aI3
aI11
aI8
aI1
aI1
aI1
aI9
aI13
aI1
assg27
(dp94
g7
(lp95
I49
aI48
aI51
aI50
aI51
aI50
aI48
aI50
aI49
aI49
aI49
aI50
aI47
aI51
aI51
aI50
aI50
aI51
aI49
aI51
asg9
(lp96
I1
aI1
aI1
aI4
aI1
aI11
aI22
aI1
aI1
aI12
aI0
aI54
aI0
aI75
aI1
aI11
aI40
aI44
aI40
aI1
assS'40'
p97
(dp98
g7
(lp99
I34
aI127
aI23
aI37
aI40
aI40
aI30
aI140
aI31
aI32
aI32
aI36
aI34
aI31
aI35
aI38
aI32
aI29
aI36
aI31
asg9
(lp100
I4
aI8
aI1
aI0
aI1
aI12
aI2
aI3
aI1
aI6
aI2
aI1
aI9
aI1
aI9
aI0
aI8
aI1
aI9
aI12
assS'20'
p101
(dp102
g7
(lp103
I44
aI40
aI42
aI43
aI39
aI38
aI43
aI41
aI40
aI41
aI54
aI44
aI38
aI192
aI42
aI37
aI44
aI44
aI36
aI43
asg9
(lp104
I1
aI0
aI25
aI1
aI2
aI12
aI11
aI1
aI1
aI0
aI1
aI15
aI10
aI18
aI13
aI14
aI9
aI0
aI0
aI1
asssS'sac_9'
p105
(dp106
S'10'
p107
(dp108
g7
(lp109
I2
aI2
aI2
aI0
aI1
aI2
aI1
aI1
aI2
aI2
aI2
aI2
aI2
aI2
aI1
aI2
aI2
aI1
aI1
aI2
asg9
(lp110
I19
aI2
aI23
aI15
aI2
aI20
aI14
aI21
aI2
aI58
aI20
aI18
aI17
aI11
aI16
aI47
aI1
aI21
aI26
aI19
assS'15'
p111
(dp112
g7
(lp113
I1
aI0
aI2
aI36
aI2
aI2
aI1
aI2
aI2
aI2
aI1
aI2
aI1
aI2
aI1
aI2
aI2
aI2
aI2
aI2
asg9
(lp114
I22
aI14
aI22
aI9
aI2
aI15
aI12
aI12
aI21
aI6
aI27
aI2
aI20
aI2
aI47
aI16
aI16
aI4
aI20
aI11
assS'25'
p115
(dp116
g7
(lp117
I2
aI8
aI2
aI2
aI1
aI1
aI1
aI2
aI2
aI2
aI1
aI2
aI9
aI2
aI0
aI2
aI8
aI2
aI2
aI2
asg9
(lp118
I21
aI4
aI16
aI17
aI20
aI19
aI13
aI17
aI19
aI9
aI13
aI47
aI8
aI2
aI36
aI22
aI2
aI6
aI13
aI29
assS'30'
p119
(dp120
g7
(lp121
I2
aI2
aI1
aI2
aI2
aI2
aI0
aI2
aI1
aI2
aI1
aI2
aI2
aI2
aI2
aI2
aI0
aI2
aI2
aI6
asg9
(lp122
I14
aI23
aI13
aI7
aI15
aI12
aI21
aI10
aI24
aI20
aI14
aI40
aI2
aI12
aI6
aI9
aI14
aI10
aI2
aI25
assS'35'
p123
(dp124
g7
(lp125
I1
aI1
aI0
aI1
aI1
aI0
aI5
aI1
aI1
aI7
aI2
aI2
aI2
aI2
aI2
aI1
aI1
aI1
aI1
aI1
asg9
(lp126
I22
aI38
aI11
aI15
aI6
aI13
aI2
aI16
aI10
aI20
aI16
aI17
aI2
aI29
aI2
aI3
aI10
aI24
aI1
aI42
assg27
(dp127
g7
(lp128
I2
aI2
aI2
aI2
aI2
aI2
aI2
aI2
aI2
aI2
aI2
aI2
aI2
aI2
aI1
aI2
aI2
aI2
aI2
aI2
asg9
(lp129
I8
aI5
aI1
aI2
aI28
aI23
aI0
aI7
aI5
aI19
aI0
aI30
aI3
aI37
aI22
aI8
aI37
aI2
aI23
aI33
assS'40'
p130
(dp131
g7
(lp132
I26
aI2
aI153
aI2
aI1
aI0
aI26
aI1
aI0
aI0
aI1
aI1
aI2
aI1
aI2
aI2
aI2
aI2
aI1
aI1
asg9
(lp133
I6
aI2
aI6
aI12
aI1
aI13
aI4
aI1
aI19
aI10
aI10
aI6
aI32
aI37
aI26
aI12
aI15
aI19
aI10
aI13
assS'20'
p134
(dp135
g7
(lp136
I2
aI1
aI1
aI2
aI2
aI1
aI7
aI2
aI1
aI2
aI1
aI2
aI1
aI2
aI1
aI2
aI2
aI2
aI1
aI1
asg9
(lp137
I2
aI15
aI1
aI22
aI10
aI1
aI12
aI1
aI27
aI12
aI17
aI13
aI15
aI15
aI25
aI22
aI1
aI16
aI14
aI22
asssS'sac_8'
p138
(dp139
S'10'
p140
(dp141
g7
(lp142
I34
aI34
aI34
aI35
aI34
aI30
aI31
aI34
aI34
aI35
aI33
aI34
aI33
aI32
aI33
aI35
aI33
aI32
aI34
aI33
asg9
(lp143
I216
aI226
aI151
aI280
aI112
aI178
aI21
aI226
aI117
aI19
aI1
aI1
aI16
aI188
aI110
aI5
aI117
aI51
aI120
aI26
assS'15'
p144
(dp145
g7
(lp146
I32
aI31
aI33
aI31
aI29
aI34
aI33
aI30
aI31
aI29
aI35
aI33
aI32
aI34
aI159
aI31
aI34
aI26
aI168
aI30
asg9
(lp147
I174
aI216
aI43
aI109
aI82
aI195
aI14
aI145
aI2
aI112
aI227
aI14
aI208
aI42
aI45
aI106
aI123
aI165
aI184
aI126
assS'25'
p148
(dp149
g7
(lp150
I25
aI30
aI29
aI28
aI31
aI30
aI30
aI29
aI27
aI223
aI29
aI26
aI29
aI25
aI30
aI28
aI23
aI34
aI27
aI27
asg9
(lp151
I104
aI150
aI51
aI145
aI182
aI113
aI6
aI114
aI101
aI16
aI96
aI169
aI94
aI27
aI82
aI0
aI30
aI177
aI144
aI114
assS'30'
p152
(dp153
g7
(lp154
I123
aI206
aI31
aI27
aI28
aI25
aI28
aI23
aI130
aI138
aI27
aI125
aI24
aI24
aI129
aI194
aI21
aI136
aI132
aI26
asg9
(lp155
I87
aI59
aI144
aI147
aI150
aI149
aI156
aI89
aI106
aI39
aI95
aI165
aI138
aI83
aI95
aI105
aI169
aI177
aI90
aI172
assS'35'
p156
(dp157
g7
(lp158
I23
aI191
aI23
aI118
aI27
aI23
aI27
aI25
aI28
aI31
aI190
aI22
aI136
aI26
aI24
aI22
aI27
aI24
aI24
aI123
asg9
(lp159
I82
aI27
aI157
aI81
aI84
aI82
aI136
aI131
aI166
aI43
aI117
aI73
aI121
aI9
aI106
aI75
aI88
aI5
aI98
aI26
assg27
(dp160
g7
(lp161
I36
aI37
aI36
aI35
aI35
aI35
aI35
aI36
aI33
aI34
aI35
aI35
aI36
aI182
aI36
aI35
aI37
aI36
aI35
aI36
asg9
(lp162
I146
aI161
aI9
aI53
aI4
aI147
aI314
aI3
aI6
aI0
aI129
aI12
aI128
aI16
aI9
aI16
aI3
aI293
aI2
aI1
assS'40'
p163
(dp164
g7
(lp165
I170
aI104
aI18
aI161
aI111
aI104
aI24
aI20
aI114
aI18
aI18
aI24
aI159
aI22
aI21
aI21
aI24
aI23
aI124
aI23
asg9
(lp166
I93
aI113
aI68
aI126
aI71
aI70
aI93
aI64
aI77
aI145
aI69
aI27
aI128
aI105
aI75
aI110
aI144
aI132
aI139
aI146
assS'20'
p167
(dp168
g7
(lp169
I155
aI145
aI31
aI31
aI31
aI30
aI33
aI31
aI30
aI31
aI30
aI160
aI34
aI29
aI147
aI30
aI25
aI23
aI25
aI33
asg9
(lp170
I122
aI39
aI15
aI201
aI52
aI10
aI185
aI9
aI103
aI4
aI116
aI0
aI119
aI101
aI59
aI205
aI164
aI93
aI97
aI221
assss.