(dp0
S'spear_7'
p1
(dp2
S'spear_5'
p3
(dp4
S'10'
p5
(dp6
S'bellwether'
p7
(lp8
I0
aI0
aI0
aI0
aI0
aI0
aI0
aI0
aI0
aI0
aI0
aI0
aI0
aI0
aI0
aI0
aI0
aI0
aI0
aI0
asS'target'
p9
(lp10
I12
aI19
aI8
aI10
aI56
aI0
aI4
aI6
aI0
aI4
aI1
aI1
aI0
aI0
aI9
aI0
aI0
aI2
aI10
aI0
assS'15'
p11
(dp12
g7
(lp13
I0
aI0
aI0
aI0
aI0
aI0
aI0
aI0
aI0
aI0
aI0
aI0
aI0
aI0
aI0
aI0
aI0
aI0
aI0
aI0
asg9
(lp14
I0
aI17
aI1
aI7
aI5
aI7
aI3
aI1
aI15
aI0
aI19
aI9
aI2
aI0
aI10
aI0
aI3
aI18
aI10
aI2
assS'25'
p15
(dp16
g7
(lp17
I0
aI0
aI0
aI0
aI0
aI0
aI0
aI0
aI0
aI0
aI0
aI0
aI0
aI0
aI0
aI0
aI0
aI0
aI0
aI0
asg9
(lp18
I0
aI1
aI5
aI8
aI7
aI3
aI8
aI5
aI10
aI0
aI7
aI0
aI6
aI10
aI14
aI1
aI5
aI4
aI3
aI2
assS'30'
p19
(dp20
g7
(lp21
I0
aI0
aI0
aI0
aI0
aI0
aI0
aI0
aI0
aI0
aI0
aI0
aI0
aI0
aI0
aI0
aI0
aI0
aI0
aI0
asg9
(lp22
I6
aI3
aI13
aI0
aI1
aI1
aI0
aI1
aI14
aI98
aI10
aI20
aI56
aI17
aI8
aI3
aI71
aI48
aI1
aI1
assS'40'
p23
(dp24
g7
(lp25
I0
aI0
aI0
aI0
aI0
aI0
aI0
aI0
aI0
aI0
aI3
aI0
aI0
aI0
aI0
aI8
aI0
aI0
aI0
aI0
asg9
(lp26
I0
aI2
aI6
aI3
aI24
aI29
aI2
aI22
aI5
aI2
aI0
aI7
aI8
aI10
aI2
aI20
aI5
aI19
aI7
aI0
assS'5'
p27
(dp28
g7
(lp29
I0
aI0
aI0
aI0
aI0
aI0
aI0
aI0
aI0
aI0
aI0
aI0
aI0
aI0
aI0
aI0
aI0
aI0
aI0
aI0
asg9
(lp30
I0
aI0
aI8
aI0
aI0
aI0
aI0
aI2
aI2
aI57
aI4
aI0
aI2
aI2
aI7
aI6
aI0
aI0
aI4
aI5
assS'35'
p31
(dp32
g7
(lp33
I0
aI0
aI0
aI0
aI0
aI0
aI3
aI0
aI0
aI0
aI0
aI0
aI0
aI7
aI0
aI0
aI0
aI0
aI0
aI0
asg9
(lp34
I74
aI6
aI4
aI7
aI10
aI3
aI9
aI44
aI57
aI5
aI1
aI11
aI33
aI0
aI2
aI18
aI4
aI7
aI1
aI37
assS'20'
p35
(dp36
g7
(lp37
I0
aI0
aI0
aI0
aI0
aI0
aI0
aI0
aI0
aI0
aI0
aI0
aI0
aI0
aI0
aI0
aI0
aI0
aI0
aI0
asg9
(lp38
I6
aI10
aI4
aI34
aI9
aI8
aI10
aI7
aI22
aI10
aI9
aI0
aI3
aI3
aI3
aI5
aI69
aI6
aI11
aI17
asssS'spear_4'
p39
(dp40
S'10'
p41
(dp42
g7
(lp43
I9
aI10
aI11
aI10
aI10
aI10
aI9
aI9
aI10
aI11
aI8
aI10
aI10
aI11
aI11
aI10
aI10
aI8
aI10
aI10
asg9
(lp44
I2
aI5
aI6
aI34
aI5
aI43
aI9
aI6
aI0
aI4
aI6
aI1
aI0
aI0
aI1
aI14
aI7
aI0
aI4
aI0
assS'15'
p45
(dp46
g7
(lp47
I10
aI8
aI8
aI52
aI9
aI10
aI5
aI10
aI10
aI8
aI9
aI7
aI10
aI9
aI10
aI9
aI11
aI10
aI8
aI10
asg9
(lp48
I1
aI1
aI6
aI1
aI13
aI16
aI2
aI3
aI6
aI3
aI15
aI1
aI19
aI2
aI0
aI3
aI6
aI1
aI1
aI17
assS'25'
p49
(dp50
g7
(lp51
I8
aI7
aI10
aI7
aI6
aI8
aI8
aI7
aI8
aI7
aI7
aI8
aI8
aI8
aI9
aI7
aI6
aI8
aI9
aI9
asg9
(lp52
I17
aI4
aI2
aI12
aI1
aI13
aI1
aI0
aI9
aI4
aI14
aI0
aI15
aI9
aI25
aI3
aI10
aI12
aI2
aI11
assS'30'
p53
(dp54
g7
(lp55
I8
aI8
aI9
aI7
aI7
aI10
aI8
aI8
aI7
aI9
aI8
aI9
aI6
aI11
aI10
aI11
aI41
aI9
aI6
aI9
asg9
(lp56
I1
aI0
aI15
aI11
aI3
aI2
aI2
aI13
aI5
aI13
aI2
aI3
aI0
aI0
aI2
aI0
aI2
aI9
aI1
aI1
assS'40'
p57
(dp58
g7
(lp59
I7
aI7
aI5
aI9
aI10
aI6
aI7
aI6
aI7
aI7
aI31
aI6
aI6
aI36
aI5
aI8
aI4
aI8
aI6
aI5
asg9
(lp60
I14
aI9
aI4
aI36
aI8
aI3
aI4
aI27
aI3
aI3
aI3
aI0
aI1
aI0
aI26
aI52
aI0
aI4
aI0
aI0
assg27
(dp61
g7
(lp62
I11
aI11
aI10
aI11
aI9
aI11
aI10
aI10
aI10
aI11
aI9
aI10
aI8
aI10
aI10
aI11
aI11
aI11
aI11
aI10
asg9
(lp63
I6
aI6
aI6
aI4
aI0
aI0
aI0
aI29
aI3
aI0
aI0
aI0
aI4
aI0
aI5
aI0
aI2
aI0
aI4
aI1
assS'35'
p64
(dp65
g7
(lp66
I6
aI5
aI7
aI9
aI7
aI9
aI10
aI8
aI7
aI6
aI5
aI10
aI8
aI6
aI7
aI7
aI38
aI7
aI7
aI8
asg9
(lp67
I15
aI1
aI6
aI11
aI0
aI23
aI11
aI4
aI30
aI1
aI1
aI40
aI1
aI4
aI2
aI1
aI6
aI13
aI12
aI0
assS'20'
p68
(dp69
g7
(lp70
I8
aI7
aI10
aI11
aI9
aI7
aI8
aI7
aI11
aI9
aI8
aI10
aI9
aI8
aI8
aI10
aI8
aI8
aI9
aI10
asg9
(lp71
I9
aI8
aI0
aI0
aI6
aI1
aI5
aI4
aI2
aI5
aI4
aI6
aI27
aI2
aI0
aI15
aI19
aI0
aI3
aI31
asssS'spear_6'
p72
(dp73
S'25'
p74
(dp75
g7
(lp76
I0
aI0
aI0
aI0
aI0
aI0
aI0
aI0
aI0
aI0
aI0
aI0
aI0
aI0
aI0
aI0
aI0
aI0
aI0
aI0
asg9
(lp77
I4
aI16
aI1
aI1
aI32
aI7
aI8
aI2
aI6
aI1
aI0
aI1
aI3
aI5
aI0
aI0
aI7
aI4
aI1
aI6
assS'20'
p78
(dp79
g7
(lp80
I0
aI0
aI0
aI0
aI0
aI0
aI0
aI0
aI0
aI0
aI0
aI0
aI0
aI0
aI0
aI0
aI0
aI0
aI0
aI0
asg9
(lp81
I1
aI73
aI4
aI0
aI7
aI0
aI0
aI1
aI1
aI2
aI0
aI2
aI7
aI6
aI5
aI4
aI3
aI1
aI8
aI9
assS'10'
p82
(dp83
g7
(lp84
I0
aI0
aI0
aI0
aI0
aI0
aI0
aI0
aI0
aI0
aI0
aI0
aI0
aI0
aI0
aI0
aI0
aI0
aI0
aI0
asg9
(lp85
I12
aI5
aI0
aI0
aI20
aI28
aI0
aI26
aI22
aI3
aI194
aI11
aI21
aI2
aI2
aI0
aI0
aI3
aI1
aI5
assS'30'
p86
(dp87
g7
(lp88
I0
aI0
aI0
aI0
aI0
aI0
aI0
aI0
aI0
aI0
aI0
aI0
aI0
aI0
aI0
aI0
aI0
aI0
aI0
aI0
asg9
(lp89
I3
aI5
aI0
aI281
aI1
aI202
aI0
aI8
aI0
aI11
aI210
aI2
aI0
aI1
aI4
aI1
aI9
aI0
aI0
aI4
assS'35'
p90
(dp91
g7
(lp92
I0
aI0
aI0
aI0
aI0
aI0
aI0
aI0
aI0
aI0
aI0
aI0
aI0
aI0
aI0
aI0
aI0
aI0
aI0
aI0
asg9
(lp93
I1
aI0
aI2
aI0
aI3
aI1
aI1
aI3
aI0
aI2
aI5
aI0
aI4
aI5
aI31
aI7
aI1
aI0
aI257
aI3
assg27
(dp94
g7
(lp95
I0
aI0
aI0
aI0
aI0
aI0
aI0
aI0
aI0
aI0
aI0
aI0
aI0
aI0
aI0
aI0
aI0
aI0
aI0
aI0
asg9
(lp96
I4
aI2
aI2
aI3
aI3
aI0
aI7
aI1
aI20
aI15
aI1
aI57
aI30
aI14
aI9
aI0
aI10
aI8
aI6
aI0
assS'40'
p97
(dp98
g7
(lp99
I0
aI0
aI0
aI0
aI0
aI0
aI0
aI0
aI0
aI0
aI0
aI0
aI0
aI0
aI0
aI0
aI0
aI0
aI0
aI0
asg9
(lp100
I5
aI2
aI9
aI0
aI5
aI14
aI0
aI3
aI3
aI0
aI44
aI0
aI0
aI9
aI3
aI2
aI2
aI0
aI0
aI1
assS'15'
p101
(dp102
g7
(lp103
I0
aI0
aI0
aI0
aI0
aI0
aI0
aI0
aI0
aI0
aI0
aI0
aI0
aI0
aI0
aI0
aI0
aI0
aI0
aI0
asg9
(lp104
I4
aI2
aI8
aI3
aI3
aI8
aI5
aI0
aI1
aI5
aI3
aI10
aI17
aI2
aI7
aI58
aI0
aI1
aI6
aI25
asssS'spear_1'
p105
(dp106
S'10'
p107
(dp108
g7
(lp109
I0
aI0
aI0
aI0
aI0
aI0
aI0
aI0
aI0
aI0
aI0
aI0
aI0
aI0
aI0
aI0
aI0
aI0
aI0
aI0
asg9
(lp110
I0
aI0
aI0
aI0
aI0
aI0
aI0
aI0
aI0
aI0
aI1
aI0
aI0
aI0
aI0
aI0
aI0
aI0
aI0
aI0
assS'15'
p111
(dp112
g7
(lp113
I0
aI0
aI0
aI0
aI0
aI0
aI0
aI0
aI0
aI0
aI0
aI0
aI0
aI0
aI0
aI0
aI0
aI0
aI0
aI0
asg9
(lp114
I0
aI0
aI0
aI0
aI0
aI0
aI0
aI0
aI0
aI0
aI0
aI1
aI0
aI0
aI0
aI0
aI0
aI0
aI0
aI0
assS'25'
p115
(dp116
g7
(lp117
I0
aI0
aI0
aI0
aI0
aI0
aI0
aI0
aI0
aI0
aI0
aI0
aI0
aI0
aI0
aI0
aI0
aI0
aI0
aI0
asg9
(lp118
I0
aI0
aI0
aI0
aI0
aI0
aI0
aI1
aI0
aI0
aI1
aI0
aI0
aI0
aI0
aI2
aI0
aI0
aI0
aI0
assS'30'
p119
(dp120
g7
(lp121
I0
aI0
aI0
aI0
aI0
aI0
aI0
aI0
aI0
aI0
aI0
aI0
aI0
aI0
aI0
aI0
aI0
aI0
aI0
aI0
asg9
(lp122
I0
aI0
aI0
aI0
aI0
aI0
aI0
aI0
aI1
aI1
aI0
aI0
aI0
aI0
aI0
aI1
aI0
aI0
aI0
aI0
assS'40'
p123
(dp124
g7
(lp125
I0
aI0
aI0
aI0
aI0
aI0
aI0
aI0
aI0
aI0
aI0
aI0
aI0
aI0
aI0
aI0
aI0
aI0
aI0
aI0
asg9
(lp126
I1
aI0
aI1
aI0
aI0
aI0
aI0
aI0
aI0
aI0
aI0
aI0
aI0
aI0
aI0
aI0
aI0
aI0
aI0
aI0
assg27
(dp127
g7
(lp128
I0
aI0
aI0
aI0
aI0
aI0
aI0
aI0
aI0
aI0
aI0
aI0
aI0
aI0
aI0
aI0
aI0
aI0
aI0
aI0
asg9
(lp129
I0
aI0
aI1
aI0
aI0
aI0
aI0
aI0
aI0
aI0
aI0
aI0
aI0
aI0
aI0
aI0
aI0
aI0
aI0
aI0
assS'35'
p130
(dp131
g7
(lp132
I0
aI0
aI0
aI0
aI0
aI0
aI0
aI0
aI0
aI0
aI0
aI0
aI0
aI0
aI0
aI0
aI0
aI0
aI0
aI0
asg9
(lp133
I0
aI0
aI0
aI0
aI0
aI0
aI0
aI0
aI0
aI0
aI1
aI0
aI0
aI0
aI0
aI0
aI1
aI0
aI0
aI0
assS'20'
p134
(dp135
g7
(lp136
I0
aI0
aI0
aI0
aI0
aI0
aI0
aI0
aI0
aI0
aI0
aI0
aI0
aI0
aI0
aI0
aI0
aI0
aI0
aI0
asg9
(lp137
I0
aI0
aI0
aI0
aI0
aI0
aI0
aI0
aI0
aI0
aI0
aI0
aI0
aI0
aI0
aI0
aI0
aI0
aI0
aI0
asssS'spear_0'
p138
(dp139
S'10'
p140
(dp141
g7
(lp142
I0
aI0
aI0
aI0
aI0
aI0
aI0
aI0
aI0
aI0
aI0
aI0
aI0
aI0
aI0
aI0
aI0
aI0
aI0
aI0
asg9
(lp143
I7
aI164
aI0
aI0
aI5
aI14
aI0
aI12
aI4
aI66
aI19
aI29
aI11
aI34
aI27
aI89
aI0
aI29
aI55
aI8
assS'15'
p144
(dp145
g7
(lp146
I0
aI0
aI0
aI0
aI0
aI0
aI0
aI0
aI0
aI0
aI0
aI0
aI0
aI0
aI0
aI0
aI0
aI0
aI0
aI0
asg9
(lp147
I18
aI251
aI13
aI9
aI233
aI1
aI121
aI25
aI8
aI77
aI0
aI17
aI27
aI51
aI0
aI16
aI15
aI19
aI16
aI30
assS'25'
p148
(dp149
g7
(lp150
I0
aI0
aI0
aI0
aI0
aI0
aI0
aI0
aI0
aI0
aI0
aI0
aI0
aI0
aI0
aI0
aI0
aI0
aI0
aI0
asg9
(lp151
I49
aI3
aI4
aI0
aI3
aI50
aI30
aI7
aI38
aI1
aI61
aI26
aI8
aI17
aI10
aI18
aI3
aI24
aI8
aI22
assS'30'
p152
(dp153
g7
(lp154
I0
aI0
aI0
aI0
aI0
aI0
aI0
aI0
aI0
aI0
aI0
aI0
aI0
aI0
aI0
aI0
aI0
aI0
aI0
aI0
asg9
(lp155
I54
aI2
aI26
aI27
aI7
aI24
aI21
aI16
aI10
aI23
aI6
aI54
aI52
aI12
aI1
aI5
aI6
aI0
aI87
aI0
assS'40'
p156
(dp157
g7
(lp158
I0
aI0
aI0
aI0
aI0
aI0
aI0
aI0
aI0
aI0
aI0
aI0
aI0
aI0
aI0
aI0
aI0
aI0
aI0
aI0
asg9
(lp159
I24
aI7
aI10
aI12
aI13
aI12
aI15
aI1
aI7
aI52
aI9
aI11
aI4
aI18
aI29
aI48
aI3
aI80
aI2
aI5
assg27
(dp160
g7
(lp161
I0
aI0
aI0
aI0
aI0
aI0
aI0
aI0
aI0
aI0
aI0
aI0
aI0
aI0
aI0
aI0
aI0
aI0
aI0
aI0
asg9
(lp162
I41
aI0
aI14
aI0
aI0
aI0
aI0
aI0
aI0
aI0
aI0
aI0
aI0
aI3
aI0
aI0
aI0
aI0
aI7
aI0
assS'35'
p163
(dp164
g7
(lp165
I0
aI0
aI0
aI0
aI0
aI0
aI0
aI0
aI0
aI0
aI0
aI0
aI0
aI0
aI0
aI0
aI0
aI0
aI0
aI0
asg9
(lp166
I3
aI1
aI5
aI3
aI6
aI0
aI6
aI2
aI4
aI45
aI37
aI4
aI24
aI12
aI9
aI4
aI2
aI17
aI3
aI2
assS'20'
p167
(dp168
g7
(lp169
I0
aI0
aI0
aI0
aI0
aI0
aI0
aI0
aI0
aI0
aI0
aI0
aI0
aI0
aI0
aI0
aI0
aI0
aI0
aI0
asg9
(lp170
I11
aI17
aI8
aI23
aI7
aI12
aI66
aI2
aI32
aI24
aI31
aI0
aI0
aI30
aI2
aI1
aI5
aI39
aI14
aI5
asssS'spear_3'
p171
(dp172
S'10'
p173
(dp174
g7
(lp175
I1
aI1
aI0
aI0
aI1
aI1
aI1
aI1
aI1
aI1
aI1
aI1
aI1
aI1
aI1
aI1
aI1
aI1
aI1
aI1
asg9
(lp176
I207
aI32
aI64
aI37
aI116
aI8
aI2
aI21
aI19
aI33
aI15
aI16
aI2
aI104
aI94
aI14
aI12
aI21
aI393
aI35
assS'20'
p177
(dp178
g7
(lp179
I13
aI0
aI1
aI1
aI1
aI1
aI0
aI1
aI1
aI11
aI1
aI0
aI0
aI1
aI1
aI1
aI1
aI1
aI1
aI0
asg9
(lp180
I20
aI40
aI4
aI35
aI63
aI28
aI50
aI21
aI15
aI87
aI96
aI4
aI90
aI1
aI12
aI98
aI17
aI17
aI45
aI13
assS'25'
p181
(dp182
g7
(lp183
I1
aI1
aI1
aI0
aI1
aI1
aI0
aI11
aI1
aI1
aI0
aI1
aI1
aI1
aI1
aI0
aI0
aI1
aI1
aI1
asg9
(lp184
I54
aI59
aI19
aI4
aI160
aI25
aI117
aI65
aI29
aI345
aI435
aI14
aI84
aI65
aI0
aI50
aI62
aI23
aI15
aI22
assS'30'
p185
(dp186
g7
(lp187
I1
aI0
aI0
aI1
aI1
aI1
aI1
aI1
aI0
aI1
aI0
aI0
aI1
aI1
aI1
aI1
aI10
aI1
aI1
aI1
asg9
(lp188
I47
aI47
aI261
aI2
aI287
aI6
aI118
aI39
aI42
aI32
aI297
aI203
aI23
aI50
aI13
aI70
aI67
aI11
aI44
aI64
assS'35'
p189
(dp190
g7
(lp191
I1
aI1
aI1
aI0
aI9
aI1
aI1
aI0
aI1
aI0
aI1
aI1
aI1
aI1
aI1
aI1
aI1
aI1
aI1
aI0
asg9
(lp192
I17
aI33
aI61
aI93
aI324
aI19
aI45
aI4
aI11
aI428
aI65
aI17
aI14
aI108
aI22
aI11
aI7
aI22
aI11
aI102
assg27
(dp193
g7
(lp194
I1
aI1
aI1
aI1
aI1
aI1
aI1
aI1
aI1
aI1
aI1
aI1
aI0
aI1
aI1
aI1
aI1
aI1
aI1
aI1
asg9
(lp195
I40
aI4
aI0
aI6
aI18
aI0
aI11
aI1
aI7
aI0
aI61
aI3
aI23
aI2
aI1
aI9
aI23
aI0
aI2
aI0
assS'40'
p196
(dp197
g7
(lp198
I0
aI8
aI1
aI0
aI1
aI1
aI5
aI0
aI1
aI1
aI7
aI0
aI0
aI1
aI1
aI9
aI1
aI12
aI8
aI1
asg9
(lp199
I45
aI131
aI2
aI261
aI118
aI110
aI13
aI84
aI108
aI30
aI322
aI16
aI363
aI31
aI251
aI31
aI62
aI15
aI10
aI109
assS'15'
p200
(dp201
g7
(lp202
I1
aI1
aI1
aI1
aI0
aI1
aI1
aI1
aI1
aI1
aI1
aI1
aI1
aI0
aI1
aI0
aI1
aI1
aI1
aI1
asg9
(lp203
I6
aI27
aI66
aI32
aI40
aI17
aI17
aI8
aI10
aI47
aI53
aI15
aI30
aI14
aI88
aI255
aI68
aI55
aI16
aI67
asssS'spear_2'
p204
(dp205
S'10'
p206
(dp207
g7
(lp208
I1
aI1
aI1
aI0
aI1
aI1
aI1
aI1
aI1
aI1
aI1
aI1
aI1
aI1
aI1
aI1
aI1
aI0
aI1
aI1
asg9
(lp209
I1
aI2
aI10
aI19
aI3
aI12
aI23
aI14
aI7
aI18
aI5
aI8
aI21
aI2
aI3
aI3
aI3
aI209
aI10
aI23
assS'20'
p210
(dp211
g7
(lp212
I1
aI1
aI1
aI1
aI1
aI1
aI0
aI1
aI0
aI1
aI1
aI0
aI1
aI1
aI1
aI0
aI0
aI1
aI1
aI0
asg9
(lp213
I4
aI11
aI0
aI2
aI0
aI19
aI19
aI15
aI545
aI14
aI16
aI89
aI28
aI5
aI7
aI0
aI358
aI5
aI6
aI950
assS'25'
p214
(dp215
g7
(lp216
I0
aI1
aI1
aI1
aI1
aI0
aI1
aI1
aI0
aI1
aI1
aI1
aI1
aI0
aI1
aI1
aI0
aI1
aI0
aI1
asg9
(lp217
I70
aI1
aI6
aI2
aI3
aI83
aI6
aI6
aI37
aI11
aI13
aI15
aI2
aI264
aI9
aI12
aI136
aI18
aI300
aI1
assS'30'
p218
(dp219
g7
(lp220
I0
aI0
aI1
aI1
aI0
aI1
aI0
aI0
aI1
aI1
aI1
aI1
aI1
aI1
aI0
aI1
aI1
aI1
aI1
aI1
asg9
(lp221
I296
aI9
aI27
aI32
aI124
aI7
aI17
aI1215
aI3
aI5
aI6
aI7
aI1
aI18
aI80
aI7
aI1
aI3
aI9
aI5
assS'35'
p222
(dp223
g7
(lp224
I0
aI0
aI0
aI1
aI1
aI0
aI0
aI1
aI0
aI0
aI0
aI1
aI1
aI1
aI1
aI0
aI0
aI0
aI1
aI0
asg9
(lp225
I102
aI10
aI225
aI5
aI20
aI128
aI351
aI0
aI154
aI258
aI49
aI22
aI8
aI1
aI10
aI156
aI289
aI195
aI3
aI7
assg27
(dp226
g7
(lp227
I1
aI1
aI1
aI1
aI1
aI1
aI1
aI1
aI1
aI1
aI1
aI1
aI1
aI1
aI1
aI1
aI1
aI1
aI1
aI1
asg9
(lp228
I3
aI5
aI15
aI1
aI14
aI2
aI12
aI8
aI6
aI0
aI2
aI26
aI4
aI12
aI1
aI1
aI10
aI4
aI4
aI0
assS'40'
p229
(dp230
g7
(lp231
I1
aI1
aI0
aI1
aI1
aI1
aI1
aI1
aI1
aI0
aI1
aI0
aI1
aI1
aI0
aI1
aI0
aI1
aI0
aI0
asg9
(lp232
I6
aI10
aI11
aI0
aI14
aI8
aI6
aI13
aI2
aI1282
aI1
aI4
aI8
aI16
aI220
aI6
aI101
aI4
aI30
aI26
assS'15'
p233
(dp234
g7
(lp235
I1
aI0
aI1
aI1
aI1
aI1
aI1
aI1
aI0
aI0
aI1
aI1
aI0
aI1
aI1
aI1
aI1
aI1
aI0
aI1
asg9
(lp236
I15
aI402
aI12
aI14
aI13
aI9
aI1
aI3
aI86
aI30
aI1
aI0
aI66
aI0
aI5
aI0
aI5
aI16
aI67
aI2
asssS'spear_9'
p237
(dp238
S'25'
p239
(dp240
g7
(lp241
I0
aI0
aI0
aI0
aI0
aI0
aI0
aI0
aI0
aI0
aI0
aI0
aI0
aI0
aI0
aI0
aI0
aI0
aI0
aI0
asg9
(lp242
I0
aI0
aI0
aI0
aI0
aI1
aI0
aI0
aI1
aI0
aI0
aI0
aI0
aI0
aI0
aI0
aI1
aI0
aI0
aI0
assS'15'
p243
(dp244
g7
(lp245
I0
aI0
aI0
aI0
aI0
aI0
aI0
aI0
aI0
aI0
aI0
aI0
aI0
aI0
aI0
aI0
aI0
aI0
aI0
aI0
asg9
(lp246
I0
aI0
aI0
aI1
aI2
aI0
aI0
aI0
aI1
aI0
aI0
aI0
aI0
aI0
aI0
aI0
aI0
aI0
aI1
aI0
assS'10'
p247
(dp248
g7
(lp249
I0
aI0
aI0
aI0
aI0
aI0
aI0
aI0
aI0
aI0
aI0
aI0
aI0
aI0
aI0
aI0
aI0
aI0
aI0
aI0
asg9
(lp250
I0
aI0
aI0
aI1
aI0
aI0
aI0
aI0
aI0
aI0
aI0
aI0
aI0
aI0
aI1
aI0
aI0
aI1
aI0
aI0
assS'30'
p251
(dp252
g7
(lp253
I0
aI0
aI0
aI0
aI0
aI0
aI0
aI0
aI0
aI0
aI0
aI0
aI0
aI0
aI0
aI0
aI0
aI0
aI0
aI0
asg9
(lp254
I0
aI0
aI0
aI0
aI0
aI0
aI0
aI0
aI0
aI0
aI0
aI0
aI0
aI0
aI0
aI1
aI0
aI0
aI1
aI0
assS'40'
p255
(dp256
g7
(lp257
I0
aI0
aI0
aI0
aI0
aI0
aI0
aI0
aI0
aI0
aI0
aI0
aI0
aI0
aI0
aI0
aI0
aI0
aI0
aI0
asg9
(lp258
I0
aI0
aI1
aI1
aI0
aI0
aI0
aI0
aI0
aI0
aI0
aI0
aI1
aI0
aI0
aI0
aI0
aI0
aI0
aI0
assg27
(dp259
g7
(lp260
I0
aI0
aI0
aI0
aI0
aI0
aI0
aI0
aI0
aI0
aI0
aI0
aI0
aI0
aI0
aI0
aI0
aI0
aI0
aI0
asg9
(lp261
I0
aI0
aI0
aI0
aI0
aI0
aI0
aI0
aI1
aI0
aI0
aI0
aI0
aI1
aI0
aI1
aI0
aI0
aI0
aI0
assS'35'
p262
(dp263
g7
(lp264
I0
aI0
aI0
aI0
aI0
aI0
aI0
aI0
aI0
aI0
aI0
aI0
aI0
aI0
aI0
aI0
aI0
aI0
aI0
aI0
asg9
(lp265
I0
aI0
aI0
aI0
aI0
aI0
aI0
aI0
aI0
aI1
aI0
aI0
aI0
aI0
aI0
aI0
aI0
aI0
aI0
aI0
assS'20'
p266
(dp267
g7
(lp268
I0
aI0
aI0
aI0
aI0
aI0
aI0
aI0
aI0
aI0
aI0
aI0
aI0
aI0
aI0
aI0
aI0
aI0
aI0
aI0
asg9
(lp269
I1
aI0
aI0
aI0
aI0
aI0
aI0
aI0
aI1
aI0
aI0
aI0
aI1
aI0
aI0
aI0
aI0
aI2
aI0
aI0
asssS'spear_8'
p270
(dp271
S'25'
p272
(dp273
g7
(lp274
I0
aI0
aI0
aI0
aI0
aI0
aI0
aI0
aI0
aI0
aI0
aI0
aI0
aI0
aI0
aI0
aI0
aI0
aI0
aI0
asg9
(lp275
I4
aI4
aI0
aI3
aI0
aI210
aI164
aI0
aI7
aI3
aI0
aI7
aI0
aI4
aI6
aI0
aI2
aI2
aI1
aI1
assS'15'
p276
(dp277
g7
(lp278
I0
aI0
aI0
aI0
aI0
aI0
aI0
aI0
aI0
aI0
aI0
aI0
aI0
aI0
aI0
aI0
aI0
aI0
aI0
aI0
asg9
(lp279
I11
aI8
aI9
aI1
aI289
aI3
aI1
aI8
aI7
aI0
aI11
aI3
aI2
aI0
aI9
aI4
aI1
aI4
aI0
aI0
assS'10'
p280
(dp281
g7
(lp282
I0
aI0
aI0
aI0
aI0
aI0
aI0
aI0
aI0
aI0
aI0
aI0
aI0
aI0
aI0
aI0
aI0
aI0
aI0
aI0
asg9
(lp283
I12
aI15
aI2
aI1
aI33
aI15
aI3
aI2
aI8
aI56
aI3
aI39
aI0
aI7
aI8
aI7
aI18
aI1
aI4
aI0
assS'30'
p284
(dp285
g7
(lp286
I0
aI0
aI0
aI0
aI0
aI0
aI0
aI0
aI0
aI0
aI0
aI0
aI0
aI0
aI0
aI0
aI0
aI0
aI0
aI0
asg9
(lp287
I2
aI280
aI0
aI2
aI46
aI2
aI0
aI0
aI0
aI2
aI0
aI3
aI0
aI272
aI10
aI3
aI1
aI4
aI2
aI3
assS'40'
p288
(dp289
g7
(lp290
I0
aI0
aI0
aI0
aI0
aI0
aI0
aI0
aI0
aI0
aI0
aI0
aI0
aI0
aI0
aI0
aI0
aI0
aI0
aI0
asg9
(lp291
I0
aI2
aI14
aI2
aI27
aI2
aI7
aI0
aI0
aI82
aI0
aI0
aI8
aI5
aI3
aI2
aI1
aI0
aI0
aI1
assg27
(dp292
g7
(lp293
I0
aI0
aI0
aI0
aI0
aI0
aI0
aI0
aI0
aI0
aI0
aI0
aI0
aI0
aI0
aI0
aI0
aI0
aI0
aI0
asg9
(lp294
I21
aI21
aI24
aI18
aI8
aI0
aI28
aI58
aI0
aI2
aI29
aI7
aI17
aI33
aI0
aI10
aI22
aI0
aI3
aI1
assS'35'
p295
(dp296
g7
(lp297
I0
aI0
aI0
aI0
aI0
aI0
aI0
aI0
aI0
aI0
aI0
aI0
aI0
aI0
aI0
aI0
aI0
aI0
aI0
aI0
asg9
(lp298
I0
aI3
aI2
aI0
aI2
aI2
aI0
aI1
aI0
aI0
aI1
aI0
aI10
aI6
aI1
aI0
aI5
aI4
aI0
aI2
assS'20'
p299
(dp300
g7
(lp301
I0
aI0
aI0
aI0
aI0
aI0
aI0
aI0
aI0
aI0
aI0
aI0
aI0
aI0
aI0
aI0
aI0
aI0
aI0
aI0
asg9
(lp302
I0
aI11
aI51
aI3
aI0
aI219
aI269
aI0
aI1
aI1217
aI5
aI32
aI1
aI0
aI2
aI0
aI0
aI8
aI2
aI7
assss.