(dp0
S'sqlite_88'
p1
(dp2
S'sqlite_32'
p3
(dp4
S'10'
p5
(dp6
S'bellwether'
p7
(lp8
I804
aI806
aI800
aI810
aI803
aI806
aI808
aI800
aI808
aI809
aI809
aI802
aI808
aI807
aI807
aI807
aI802
aI862
aI804
aI810
asS'target'
p9
(lp10
I20
aI5
aI11
aI7
aI51
aI0
aI9
aI41
aI40
aI21
aI14
aI111
aI8
aI9
aI126
aI18
aI36
aI4
aI4
aI191
assS'15'
p11
(dp12
g7
(lp13
I752
aI758
aI783
aI765
aI814
aI764
aI756
aI767
aI763
aI760
aI756
aI760
aI764
aI761
aI818
aI760
aI758
aI755
aI756
aI763
asg9
(lp14
I81
aI2
aI33
aI7
aI41
aI1
aI94
aI2
aI8
aI3
aI10
aI12
aI3
aI52
aI11
aI127
aI5
aI24
aI2
aI135
assS'25'
p15
(dp16
g7
(lp17
I716
aI672
aI718
aI669
aI666
aI671
aI672
aI721
aI720
aI663
aI667
aI677
aI666
aI671
aI670
aI670
aI661
aI667
aI674
aI666
asg9
(lp18
I8
aI64
aI206
aI2
aI13
aI83
aI2
aI21
aI430
aI136
aI46
aI2
aI20
aI97
aI21
aI249
aI72
aI114
aI44
aI333
assS'30'
p19
(dp20
g7
(lp21
I619
aI623
aI674
aI628
aI634
aI668
aI624
aI626
aI620
aI623
aI670
aI669
aI619
aI628
aI629
aI628
aI631
aI676
aI672
aI634
asg9
(lp22
I5
aI165
aI129
aI79
aI2
aI326
aI2
aI70
aI16
aI5
aI110
aI117
aI2
aI682
aI6
aI288
aI35
aI115
aI168
aI25
assS'40'
p23
(dp24
g7
(lp25
I555
aI554
aI535
aI540
aI525
aI575
aI554
aI573
aI535
aI534
aI534
aI574
aI555
aI543
aI537
aI537
aI534
aI577
aI540
aI577
asg9
(lp26
I56
aI371
aI60
aI57
aI46
aI162
aI344
aI59
aI196
aI113
aI204
aI478
aI53
aI6
aI2
aI220
aI29
aI6
aI321
aI104
assS'5'
p27
(dp28
g7
(lp29
I849
aI909
aI848
aI851
aI848
aI851
aI848
aI847
aI909
aI912
aI847
aI848
aI850
aI851
aI847
aI850
aI849
aI848
aI847
aI848
asg9
(lp30
I11
aI16
aI43
aI0
aI23
aI2
aI8
aI15
aI0
aI2
aI12
aI34
aI30
aI18
aI11
aI1
aI4
aI0
aI2
aI11
assS'35'
p31
(dp32
g7
(lp33
I574
aI619
aI575
aI623
aI620
aI583
aI629
aI570
aI624
aI577
aI586
aI580
aI618
aI583
aI582
aI631
aI621
aI572
aI533
aI626
asg9
(lp34
I52
aI237
aI58
aI57
aI242
aI29
aI288
aI63
aI159
aI131
aI32
aI6
aI203
aI47
aI227
aI266
aI25
aI49
aI106
aI241
assS'20'
p35
(dp36
g7
(lp37
I766
aI712
aI709
aI714
aI714
aI717
aI707
aI763
aI718
aI720
aI718
aI716
aI769
aI707
aI768
aI723
aI712
aI714
aI712
aI711
asg9
(lp38
I469
aI124
aI20
aI40
aI308
aI411
aI75
aI124
aI33
aI57
aI7
aI15
aI8
aI37
aI17
aI2
aI31
aI37
aI161
aI80
asssS'sqlite_85'
p39
(dp40
S'25'
p41
(dp42
g7
(lp43
I0
aI1
aI0
aI0
aI0
aI0
aI0
aI0
aI0
aI0
aI0
aI0
aI0
aI0
aI9
aI0
aI8
aI1
aI0
aI0
asg9
(lp44
I495
aI5
aI105
aI155
aI51
aI76
aI172
aI12
aI513
aI64
aI412
aI112
aI393
aI68
aI347
aI1
aI620
aI143
aI283
aI483
assS'15'
p45
(dp46
g7
(lp47
I0
aI0
aI0
aI1
aI0
aI0
aI0
aI0
aI0
aI0
aI0
aI11
aI0
aI0
aI0
aI0
aI0
aI0
aI0
aI13
asg9
(lp48
I31
aI42
aI17
aI4
aI10
aI199
aI153
aI9
aI40
aI33
aI24
aI262
aI63
aI279
aI607
aI194
aI7
aI437
aI191
aI38
assS'10'
p49
(dp50
g7
(lp51
I0
aI1
aI0
aI0
aI0
aI0
aI0
aI1
aI0
aI0
aI0
aI0
aI0
aI0
aI0
aI0
aI0
aI0
aI0
aI0
asg9
(lp52
I250
aI176
aI13
aI0
aI8
aI47
aI71
aI3
aI87
aI7
aI299
aI458
aI9
aI391
aI124
aI374
aI176
aI0
aI78
aI89
assS'30'
p53
(dp54
g7
(lp55
I0
aI0
aI0
aI1
aI0
aI0
aI0
aI0
aI0
aI0
aI1
aI0
aI1
aI0
aI0
aI0
aI0
aI0
aI1
aI1
asg9
(lp56
I76
aI332
aI7
aI330
aI57
aI216
aI188
aI280
aI204
aI306
aI209
aI217
aI145
aI180
aI186
aI138
aI362
aI327
aI93
aI135
assS'40'
p57
(dp58
g7
(lp59
I10
aI0
aI7
aI9
aI0
aI1
aI0
aI0
aI9
aI0
aI0
aI0
aI0
aI2
aI0
aI0
aI0
aI0
aI0
aI0
asg9
(lp60
I6
aI88
aI163
aI63
aI41
aI110
aI301
aI161
aI202
aI252
aI18
aI76
aI244
aI172
aI151
aI214
aI153
aI13
aI530
aI84
assg27
(dp61
g7
(lp62
I1
aI0
aI0
aI0
aI0
aI0
aI0
aI0
aI0
aI0
aI0
aI0
aI0
aI0
aI0
aI0
aI0
aI0
aI0
aI0
asg9
(lp63
I78
aI53
aI93
aI2
aI42
aI1
aI177
aI0
aI2
aI62
aI2
aI41
aI28
aI142
aI38
aI12
aI5
aI24
aI134
aI149
assS'35'
p64
(dp65
g7
(lp66
I0
aI0
aI0
aI0
aI0
aI0
aI0
aI0
aI0
aI0
aI0
aI1
aI1
aI0
aI0
aI0
aI0
aI0
aI0
aI0
asg9
(lp67
I5
aI2
aI238
aI176
aI13
aI95
aI12
aI57
aI290
aI149
aI136
aI161
aI442
aI221
aI178
aI377
aI80
aI496
aI269
aI452
assS'20'
p68
(dp69
g7
(lp70
I0
aI1
aI0
aI0
aI8
aI0
aI0
aI0
aI0
aI0
aI0
aI1
aI0
aI0
aI0
aI0
aI0
aI0
aI0
aI0
asg9
(lp71
I530
aI458
aI67
aI567
aI158
aI27
aI59
aI60
aI306
aI236
aI164
aI5
aI101
aI73
aI16
aI58
aI93
aI214
aI172
aI44
asssS'sqlite_94'
p72
(dp73
S'10'
p74
(dp75
g7
(lp76
I324
aI317
aI321
aI320
aI325
aI316
aI326
aI331
aI324
aI410
aI402
aI316
aI403
aI323
aI402
aI324
aI409
aI323
aI326
aI325
asg9
(lp77
I97
aI24
aI240
aI91
aI52
aI6
aI3
aI736
aI346
aI31
aI87
aI60
aI366
aI43
aI462
aI9
aI218
aI9
aI89
aI90
assS'15'
p78
(dp79
g7
(lp80
I305
aI310
aI386
aI384
aI308
aI308
aI391
aI303
aI302
aI315
aI305
aI310
aI310
aI314
aI304
aI305
aI309
aI314
aI379
aI298
asg9
(lp81
I465
aI508
aI115
aI86
aI508
aI41
aI17
aI6
aI8
aI303
aI19
aI290
aI76
aI58
aI109
aI19
aI27
aI306
aI118
aI267
assS'25'
p82
(dp83
g7
(lp84
I274
aI271
aI252
aI274
aI264
aI346
aI262
aI266
aI338
aI272
aI263
aI271
aI341
aI342
aI335
aI277
aI276
aI266
aI270
aI349
asg9
(lp85
I426
aI9
aI339
aI80
aI159
aI659
aI325
aI17
aI93
aI79
aI76
aI250
aI152
aI25
aI61
aI443
aI19
aI20
aI80
aI109
assS'30'
p86
(dp87
g7
(lp88
I333
aI252
aI256
aI253
aI243
aI253
aI254
aI259
aI318
aI247
aI327
aI310
aI254
aI316
aI326
aI323
aI315
aI242
aI255
aI249
asg9
(lp89
I67
aI28
aI355
aI447
aI99
aI142
aI153
aI411
aI697
aI311
aI214
aI346
aI97
aI583
aI121
aI363
aI286
aI321
aI412
aI9
assS'40'
p90
(dp91
g7
(lp92
I201
aI206
aI282
aI262
aI280
aI210
aI269
aI260
aI274
aI172
aI213
aI223
aI223
aI224
aI275
aI209
aI211
aI211
aI275
aI218
asg9
(lp93
I45
aI447
aI83
aI21
aI130
aI414
aI80
aI450
aI32
aI441
aI13
aI406
aI65
aI100
aI116
aI453
aI314
aI7
aI67
aI104
assg27
(dp94
g7
(lp95
I340
aI346
aI346
aI335
aI344
aI340
aI344
aI342
aI346
aI348
aI341
aI340
aI336
aI343
aI345
aI427
aI342
aI337
aI350
aI344
asg9
(lp96
I1
aI28
aI17
aI7
aI40
aI46
aI118
aI57
aI10
aI7
aI483
aI16
aI389
aI6
aI92
aI49
aI60
aI21
aI63
aI267
assS'35'
p97
(dp98
g7
(lp99
I241
aI231
aI290
aI299
aI237
aI220
aI296
aI180
aI240
aI235
aI251
aI248
aI290
aI309
aI231
aI221
aI228
aI231
aI298
aI227
asg9
(lp100
I69
aI10
aI351
aI465
aI192
aI102
aI46
aI7
aI28
aI250
aI8
aI9
aI420
aI358
aI272
aI89
aI363
aI59
aI254
aI80
assS'20'
p101
(dp102
g7
(lp103
I285
aI282
aI297
aI294
aI299
aI373
aI361
aI284
aI297
aI282
aI291
aI285
aI294
aI356
aI291
aI281
aI288
aI288
aI291
aI300
asg9
(lp104
I6
aI15
aI320
aI179
aI90
aI85
aI84
aI108
aI22
aI302
aI83
aI143
aI168
aI167
aI404
aI71
aI86
aI5
aI299
aI151
asssS'sqlite_71'
p105
(dp106
S'10'
p107
(dp108
g7
(lp109
I613
aI611
aI614
aI625
aI620
aI495
aI614
aI608
aI621
aI497
aI618
aI615
aI609
aI612
aI616
aI618
aI496
aI620
aI617
aI617
asg9
(lp110
I93
aI3
aI46
aI19
aI45
aI8
aI38
aI23
aI2
aI9
aI1
aI360
aI38
aI39
aI37
aI36
aI42
aI170
aI55
aI1
assS'15'
p111
(dp112
g7
(lp113
I587
aI460
aI580
aI583
aI680
aI583
aI586
aI584
aI591
aI574
aI473
aI583
aI578
aI578
aI581
aI581
aI586
aI468
aI587
aI591
asg9
(lp114
I32
aI21
aI45
aI66
aI5
aI271
aI220
aI255
aI28
aI147
aI14
aI240
aI3
aI34
aI292
aI3
aI20
aI2
aI61
aI6
assS'25'
p115
(dp116
g7
(lp117
I512
aI515
aI524
aI520
aI512
aI520
aI517
aI418
aI512
aI511
aI405
aI519
aI606
aI510
aI504
aI406
aI421
aI403
aI507
aI519
asg9
(lp118
I617
aI93
aI79
aI146
aI31
aI93
aI72
aI10
aI77
aI181
aI19
aI176
aI34
aI64
aI149
aI620
aI15
aI35
aI2
aI4
assS'30'
p119
(dp120
g7
(lp121
I387
aI471
aI488
aI475
aI481
aI387
aI479
aI474
aI565
aI400
aI485
aI477
aI385
aI481
aI483
aI464
aI482
aI478
aI482
aI486
asg9
(lp122
I58
aI48
aI177
aI96
aI383
aI1
aI56
aI2
aI56
aI270
aI43
aI3
aI46
aI2
aI159
aI93
aI1
aI59
aI26
aI135
assS'40'
p123
(dp124
g7
(lp125
I404
aI409
aI408
aI413
aI425
aI333
aI404
aI331
aI330
aI409
aI411
aI341
aI400
aI410
aI485
aI417
aI405
aI403
aI409
aI410
asg9
(lp126
I2
aI12
aI95
aI170
aI5
aI374
aI275
aI454
aI26
aI2
aI32
aI3
aI57
aI294
aI2
aI28
aI1
aI1
aI343
aI73
assg27
(dp127
g7
(lp128
I652
aI651
aI644
aI647
aI651
aI650
aI650
aI651
aI646
aI652
aI650
aI652
aI649
aI649
aI644
aI646
aI644
aI651
aI648
aI649
asg9
(lp129
I28
aI18
aI34
aI14
aI39
aI71
aI37
aI63
aI4
aI1
aI8
aI10
aI12
aI13
aI13
aI40
aI54
aI62
aI5
aI0
assS'35'
p130
(dp131
g7
(lp132
I454
aI441
aI370
aI442
aI447
aI448
aI436
aI439
aI441
aI457
aI347
aI452
aI439
aI436
aI440
aI362
aI449
aI363
aI447
aI360
asg9
(lp133
I21
aI1
aI145
aI8
aI109
aI28
aI9
aI31
aI198
aI259
aI12
aI42
aI33
aI371
aI12
aI159
aI58
aI30
aI51
aI123
assS'20'
p134
(dp135
g7
(lp136
I448
aI445
aI543
aI546
aI451
aI550
aI546
aI545
aI547
aI542
aI436
aI542
aI451
aI438
aI549
aI551
aI546
aI539
aI547
aI555
asg9
(lp137
I16
aI288
aI28
aI53
aI117
aI39
aI12
aI11
aI13
aI25
aI79
aI39
aI1
aI48
aI59
aI2
aI71
aI151
aI267
aI623
asssS'sqlite_60'
p138
(dp139
S'25'
p140
(dp141
g7
(lp142
I222
aI217
aI221
aI218
aI231
aI217
aI215
aI224
aI212
aI225
aI216
aI512
aI223
aI224
aI77
aI231
aI212
aI219
aI499
aI225
asg9
(lp143
I110
aI202
aI117
aI39
aI93
aI43
aI19
aI44
aI70
aI19
aI83
aI126
aI328
aI47
aI49
aI43
aI46
aI41
aI387
aI77
assS'15'
p144
(dp145
g7
(lp146
I243
aI241
aI250
aI254
aI245
aI241
aI251
aI255
aI243
aI247
aI244
aI243
aI254
aI258
aI253
aI241
aI253
aI246
aI249
aI83
asg9
(lp147
I133
aI12
aI92
aI119
aI176
aI66
aI10
aI41
aI128
aI23
aI52
aI75
aI3
aI18
aI288
aI43
aI7
aI31
aI81
aI167
assS'10'
p148
(dp149
g7
(lp150
I267
aI264
aI264
aI266
aI261
aI263
aI251
aI260
aI265
aI260
aI257
aI270
aI260
aI97
aI260
aI88
aI262
aI266
aI262
aI261
asg9
(lp151
I0
aI146
aI29
aI80
aI20
aI24
aI55
aI23
aI97
aI13
aI1
aI66
aI13
aI45
aI2
aI47
aI55
aI23
aI61
aI8
assS'30'
p152
(dp153
g7
(lp154
I207
aI197
aI64
aI204
aI75
aI72
aI71
aI201
aI205
aI207
aI69
aI206
aI461
aI195
aI205
aI200
aI200
aI201
aI58
aI72
asg9
(lp155
I18
aI76
aI92
aI10
aI28
aI39
aI162
aI392
aI51
aI106
aI89
aI23
aI35
aI25
aI33
aI149
aI23
aI21
aI37
aI13
assS'40'
p156
(dp157
g7
(lp158
I176
aI56
aI50
aI185
aI56
aI170
aI175
aI174
aI181
aI170
aI65
aI173
aI62
aI178
aI388
aI383
aI181
aI60
aI187
aI60
asg9
(lp159
I23
aI364
aI128
aI6
aI61
aI37
aI30
aI16
aI28
aI30
aI46
aI30
aI33
aI13
aI125
aI71
aI287
aI70
aI293
aI287
assg27
(dp160
g7
(lp161
I275
aI276
aI278
aI275
aI272
aI280
aI280
aI278
aI280
aI276
aI272
aI275
aI280
aI96
aI274
aI278
aI270
aI273
aI274
aI272
asg9
(lp162
I1
aI20
aI77
aI12
aI24
aI14
aI1
aI10
aI50
aI17
aI0
aI24
aI16
aI29
aI24
aI48
aI1
aI36
aI3
aI48
assS'35'
p163
(dp164
g7
(lp165
I184
aI192
aI446
aI188
aI192
aI194
aI69
aI188
aI188
aI190
aI62
aI62
aI190
aI66
aI196
aI195
aI186
aI194
aI185
aI198
asg9
(lp166
I28
aI2
aI23
aI23
aI60
aI141
aI259
aI1
aI76
aI207
aI18
aI349
aI13
aI66
aI70
aI37
aI47
aI39
aI104
aI247
assS'20'
p167
(dp168
g7
(lp169
I235
aI237
aI234
aI235
aI238
aI239
aI228
aI77
aI78
aI80
aI235
aI232
aI218
aI231
aI540
aI229
aI230
aI238
aI225
aI239
asg9
(lp170
I130
aI8
aI106
aI37
aI203
aI107
aI16
aI65
aI20
aI57
aI450
aI134
aI276
aI71
aI6
aI39
aI8
aI127
aI36
aI22
asssS'sqlite_74'
p171
(dp172
S'25'
p173
(dp174
g7
(lp175
I328
aI341
aI351
aI329
aI315
aI323
aI320
aI326
aI327
aI327
aI328
aI324
aI322
aI321
aI327
aI344
aI322
aI313
aI325
aI347
asg9
(lp176
I59
aI10
aI7
aI238
aI50
aI263
aI347
aI16
aI599
aI31
aI27
aI31
aI100
aI191
aI58
aI70
aI57
aI484
aI520
aI48
assS'15'
p177
(dp178
g7
(lp179
I386
aI361
aI396
aI367
aI358
aI370
aI387
aI389
aI362
aI366
aI367
aI365
aI367
aI360
aI359
aI361
aI359
aI361
aI359
aI382
asg9
(lp180
I57
aI10
aI62
aI10
aI33
aI78
aI81
aI28
aI43
aI204
aI11
aI15
aI549
aI42
aI99
aI54
aI4
aI90
aI59
aI124
assS'10'
p181
(dp182
g7
(lp183
I385
aI384
aI390
aI382
aI390
aI391
aI384
aI390
aI385
aI380
aI382
aI386
aI391
aI384
aI376
aI419
aI386
aI387
aI386
aI384
asg9
(lp184
I25
aI38
aI2
aI7
aI14
aI5
aI21
aI120
aI19
aI8
aI18
aI73
aI75
aI635
aI40
aI10
aI25
aI217
aI16
aI78
assS'30'
p185
(dp186
g7
(lp187
I371
aI646
aI320
aI296
aI299
aI295
aI297
aI297
aI300
aI291
aI645
aI291
aI308
aI649
aI324
aI303
aI319
aI295
aI306
aI307
asg9
(lp188
I49
aI0
aI10
aI84
aI64
aI507
aI96
aI22
aI5
aI54
aI8
aI314
aI519
aI351
aI477
aI136
aI59
aI50
aI60
aI179
assS'40'
p189
(dp190
g7
(lp191
I271
aI264
aI287
aI253
aI265
aI248
aI552
aI254
aI247
aI286
aI248
aI550
aI262
aI277
aI561
aI259
aI263
aI257
aI257
aI280
asg9
(lp192
I172
aI97
aI79
aI151
aI123
aI17
aI19
aI82
aI125
aI9
aI32
aI510
aI290
aI119
aI49
aI146
aI73
aI26
aI47
aI206
assg27
(dp193
g7
(lp194
I404
aI400
aI409
aI405
aI404
aI413
aI400
aI405
aI405
aI403
aI404
aI409
aI409
aI413
aI405
aI406
aI409
aI409
aI407
aI405
asg9
(lp195
I86
aI6
aI4
aI25
aI18
aI11
aI7
aI0
aI27
aI14
aI17
aI18
aI3
aI70
aI14
aI33
aI17
aI5
aI22
aI12
assS'35'
p196
(dp197
g7
(lp198
I280
aI290
aI278
aI277
aI292
aI287
aI605
aI266
aI511
aI274
aI599
aI257
aI273
aI289
aI276
aI347
aI262
aI274
aI271
aI287
asg9
(lp199
I349
aI47
aI195
aI430
aI157
aI41
aI27
aI46
aI9
aI518
aI59
aI109
aI426
aI257
aI15
aI52
aI54
aI120
aI414
aI15
assS'20'
p200
(dp201
g7
(lp202
I344
aI340
aI344
aI341
aI338
aI331
aI334
aI347
aI338
aI341
aI339
aI344
aI337
aI343
aI358
aI372
aI343
aI362
aI365
aI348
asg9
(lp203
I5
aI335
aI69
aI3
aI261
aI128
aI53
aI16
aI23
aI418
aI209
aI56
aI162
aI46
aI223
aI126
aI65
aI0
aI28
aI109
asssS'sqlite_91'
p204
(dp205
S'25'
p206
(dp207
g7
(lp208
I5
aI6
aI7
aI5
aI1
aI8
aI5
aI8
aI7
aI7
aI0
aI5
aI7
aI7
aI4
aI1
aI2
aI7
aI7
aI1
asg9
(lp209
I719
aI7
aI582
aI5
aI206
aI62
aI77
aI179
aI145
aI231
aI146
aI158
aI50
aI124
aI129
aI186
aI47
aI150
aI165
aI78
assS'15'
p210
(dp211
g7
(lp212
I7
aI6
aI7
aI1
aI0
aI5
aI7
aI7
aI8
aI7
aI6
aI6
aI6
aI0
aI7
aI7
aI8
aI7
aI6
aI8
asg9
(lp213
I8
aI19
aI151
aI262
aI3
aI101
aI113
aI70
aI44
aI67
aI379
aI2
aI50
aI7
aI405
aI25
aI479
aI26
aI178
aI41
assS'10'
p214
(dp215
g7
(lp216
I5
aI1
aI7
aI7
aI1
aI1
aI1
aI8
aI1
aI8
aI6
aI7
aI8
aI8
aI8
aI7
aI7
aI7
aI4
aI7
asg9
(lp217
I7
aI43
aI12
aI243
aI111
aI128
aI54
aI7
aI14
aI3
aI160
aI39
aI22
aI2
aI84
aI38
aI100
aI92
aI56
aI62
assS'30'
p218
(dp219
g7
(lp220
I0
aI4
aI6
aI0
aI5
aI6
aI4
aI4
aI6
aI6
aI1
aI4
aI5
aI5
aI4
aI5
aI3
aI6
aI1
aI3
asg9
(lp221
I471
aI146
aI79
aI21
aI215
aI19
aI416
aI102
aI614
aI28
aI62
aI414
aI26
aI98
aI76
aI192
aI109
aI28
aI303
aI99
assS'40'
p222
(dp223
g7
(lp224
I3
aI5
aI3
aI3
aI0
aI2
aI5
aI6
aI1
aI3
aI5
aI3
aI6
aI5
aI4
aI0
aI5
aI1
aI0
aI6
asg9
(lp225
I79
aI20
aI164
aI34
aI107
aI186
aI36
aI348
aI157
aI58
aI426
aI143
aI178
aI71
aI3
aI512
aI79
aI80
aI345
aI111
assg27
(dp226
g7
(lp227
I8
aI8
aI7
aI8
aI7
aI7
aI7
aI8
aI7
aI1
aI8
aI8
aI8
aI7
aI7
aI7
aI8
aI8
aI8
aI8
asg9
(lp228
I1
aI13
aI50
aI2
aI0
aI30
aI147
aI51
aI3
aI13
aI1
aI56
aI55
aI120
aI41
aI64
aI45
aI13
aI19
aI7
assS'35'
p229
(dp230
g7
(lp231
I0
aI7
aI0
aI4
aI6
aI5
aI1
aI5
aI6
aI3
aI1
aI2
aI5
aI5
aI5
aI6
aI6
aI5
aI7
aI0
asg9
(lp232
I70
aI35
aI40
aI444
aI572
aI152
aI456
aI56
aI10
aI58
aI153
aI104
aI442
aI32
aI92
aI131
aI221
aI134
aI144
aI3
assS'20'
p233
(dp234
g7
(lp235
I1
aI8
aI3
aI4
aI5
aI6
aI7
aI1
aI0
aI1
aI8
aI7
aI6
aI7
aI5
aI6
aI1
aI7
aI5
aI8
asg9
(lp236
I80
aI61
aI161
aI16
aI33
aI143
aI126
aI144
aI8
aI403
aI181
aI129
aI39
aI87
aI112
aI9
aI54
aI266
aI213
aI145
asssS'sqlite_90'
p237
(dp238
S'25'
p239
(dp240
g7
(lp241
I3
aI3
aI11
aI10
aI10
aI6
aI9
aI11
aI5
aI6
aI10
aI10
aI9
aI10
aI6
aI10
aI12
aI12
aI12
aI7
asg9
(lp242
I81
aI328
aI17
aI152
aI74
aI176
aI94
aI1
aI14
aI1
aI610
aI9
aI13
aI255
aI1
aI77
aI164
aI19
aI134
aI252
assS'15'
p243
(dp244
g7
(lp245
I6
aI10
aI11
aI11
aI9
aI10
aI10
aI10
aI6
aI6
aI9
aI7
aI10
aI10
aI11
aI7
aI12
aI12
aI12
aI10
asg9
(lp246
I29
aI490
aI8
aI80
aI14
aI1
aI56
aI7
aI161
aI1
aI63
aI171
aI24
aI141
aI43
aI59
aI40
aI190
aI30
aI183
assS'10'
p247
(dp248
g7
(lp249
I11
aI10
aI11
aI11
aI9
aI12
aI12
aI12
aI12
aI12
aI9
aI5
aI10
aI11
aI9
aI10
aI10
aI12
aI12
aI7
asg9
(lp250
I1
aI160
aI96
aI10
aI13
aI103
aI129
aI53
aI180
aI42
aI70
aI17
aI61
aI5
aI29
aI106
aI10
aI12
aI11
aI22
assS'30'
p251
(dp252
g7
(lp253
I6
aI2
aI8
aI4
aI6
aI8
aI3
aI3
aI8
aI6
aI6
aI9
aI9
aI9
aI8
aI8
aI7
aI10
aI10
aI8
asg9
(lp254
I74
aI86
aI106
aI246
aI284
aI684
aI6
aI10
aI49
aI5
aI275
aI566
aI10
aI13
aI26
aI1
aI655
aI13
aI127
aI235
assS'40'
p255
(dp256
g7
(lp257
I5
aI9
aI3
aI0
aI8
aI6
aI4
aI5
aI5
aI9
aI6
aI8
aI7
aI6
aI8
aI6
aI8
aI5
aI7
aI8
asg9
(lp258
I79
aI534
aI75
aI45
aI58
aI402
aI516
aI77
aI21
aI250
aI252
aI199
aI6
aI34
aI14
aI47
aI212
aI1
aI64
aI9
assg27
(dp259
g7
(lp260
I12
aI7
aI11
aI12
aI12
aI10
aI9
aI11
aI12
aI12
aI11
aI12
aI12
aI11
aI7
aI12
aI12
aI12
aI11
aI12
asg9
(lp261
I1
aI17
aI38
aI164
aI14
aI13
aI23
aI64
aI81
aI10
aI33
aI8
aI22
aI3
aI12
aI161
aI13
aI5
aI10
aI19
assS'35'
p262
(dp263
g7
(lp264
I5
aI3
aI6
aI6
aI6
aI10
aI5
aI5
aI8
aI7
aI0
aI6
aI1
aI4
aI5
aI5
aI4
aI7
aI8
aI7
asg9
(lp265
I157
aI223
aI30
aI1
aI409
aI1
aI110
aI332
aI301
aI268
aI44
aI145
aI536
aI609
aI72
aI303
aI220
aI592
aI133
aI604
assS'20'
p266
(dp267
g7
(lp268
I9
aI4
aI9
aI9
aI8
aI9
aI11
aI10
aI5
aI9
aI12
aI10
aI10
aI5
aI3
aI7
aI8
aI9
aI2
aI11
asg9
(lp269
I219
aI78
aI166
aI82
aI363
aI213
aI24
aI74
aI15
aI317
aI33
aI85
aI381
aI21
aI62
aI187
aI202
aI539
aI22
aI48
asssS'sqlite_57'
p270
(dp271
S'25'
p272
(dp273
g7
(lp274
I180
aI71
aI176
aI186
aI186
aI181
aI184
aI183
aI195
aI73
aI198
aI185
aI192
aI192
aI179
aI193
aI184
aI177
aI68
aI176
asg9
(lp275
I19
aI489
aI178
aI64
aI52
aI26
aI20
aI3
aI53
aI36
aI5
aI130
aI104
aI145
aI43
aI62
aI2
aI91
aI18
aI189
assS'20'
p276
(dp277
g7
(lp278
I203
aI207
aI199
aI197
aI202
aI194
aI204
aI190
aI199
aI203
aI207
aI207
aI193
aI204
aI195
aI198
aI76
aI190
aI193
aI207
asg9
(lp279
I98
aI330
aI97
aI263
aI565
aI31
aI18
aI5
aI95
aI17
aI121
aI9
aI11
aI5
aI88
aI535
aI41
aI49
aI23
aI20
assS'10'
p280
(dp281
g7
(lp282
I222
aI229
aI224
aI217
aI218
aI224
aI77
aI224
aI224
aI82
aI225
aI223
aI227
aI227
aI221
aI221
aI222
aI84
aI84
aI222
asg9
(lp283
I49
aI65
aI94
aI2
aI86
aI36
aI43
aI41
aI28
aI6
aI16
aI18
aI15
aI68
aI16
aI14
aI35
aI79
aI1
aI11
assS'30'
p284
(dp285
g7
(lp286
I166
aI173
aI165
aI63
aI178
aI157
aI179
aI175
aI170
aI174
aI67
aI174
aI161
aI182
aI174
aI177
aI175
aI176
aI170
aI179
asg9
(lp287
I24
aI122
aI70
aI218
aI418
aI140
aI208
aI378
aI531
aI71
aI83
aI71
aI24
aI411
aI19
aI7
aI4
aI97
aI132
aI89
assS'35'
p288
(dp289
g7
(lp290
I165
aI159
aI149
aI163
aI166
aI157
aI149
aI158
aI157
aI61
aI162
aI58
aI173
aI64
aI162
aI165
aI164
aI343
aI154
aI53
asg9
(lp291
I22
aI98
aI24
aI410
aI18
aI77
aI331
aI349
aI37
aI98
aI55
aI20
aI22
aI35
aI327
aI94
aI380
aI21
aI339
aI33
assg27
(dp292
g7
(lp293
I232
aI232
aI234
aI234
aI235
aI237
aI239
aI238
aI238
aI234
aI234
aI235
aI235
aI84
aI236
aI238
aI230
aI238
aI230
aI236
asg9
(lp294
I12
aI26
aI71
aI3
aI76
aI7
aI21
aI17
aI6
aI159
aI1
aI6
aI2
aI15
aI15
aI27
aI3
aI9
aI12
aI0
assS'40'
p295
(dp296
g7
(lp297
I56
aI137
aI146
aI137
aI142
aI54
aI155
aI146
aI139
aI55
aI154
aI151
aI155
aI309
aI145
aI50
aI156
aI47
aI144
aI315
asg9
(lp298
I46
aI25
aI115
aI20
aI231
aI47
aI295
aI26
aI355
aI24
aI336
aI298
aI10
aI92
aI2
aI93
aI22
aI112
aI50
aI76
assS'15'
p299
(dp300
g7
(lp301
I211
aI211
aI211
aI208
aI199
aI213
aI212
aI206
aI215
aI208
aI213
aI216
aI212
aI213
aI198
aI206
aI214
aI215
aI209
aI211
asg9
(lp302
I8
aI27
aI81
aI186
aI42
aI78
aI2
aI42
aI32
aI64
aI38
aI8
aI634
aI28
aI35
aI26
aI23
aI68
aI549
aI34
asssS'sqlite_81'
p303
(dp304
S'10'
p305
(dp306
g7
(lp307
I581
aI585
aI586
aI586
aI594
aI593
aI588
aI587
aI807
aI592
aI589
aI589
aI591
aI591
aI805
aI591
aI593
aI587
aI592
aI586
asg9
(lp308
I14
aI9
aI40
aI74
aI47
aI48
aI14
aI161
aI14
aI6
aI6
aI49
aI21
aI9
aI1
aI190
aI15
aI50
aI0
aI13
assS'15'
p309
(dp310
g7
(lp311
I557
aI553
aI553
aI562
aI763
aI558
aI557
aI556
aI554
aI565
aI555
aI558
aI560
aI550
aI555
aI772
aI558
aI556
aI560
aI557
asg9
(lp312
I15
aI154
aI25
aI75
aI73
aI8
aI14
aI18
aI22
aI71
aI4
aI46
aI9
aI29
aI64
aI3
aI89
aI21
aI90
aI315
assS'25'
p313
(dp314
g7
(lp315
I486
aI488
aI496
aI677
aI491
aI488
aI677
aI672
aI483
aI498
aI487
aI499
aI492
aI487
aI504
aI503
aI493
aI496
aI504
aI492
asg9
(lp316
I20
aI0
aI30
aI25
aI305
aI54
aI96
aI22
aI14
aI71
aI44
aI110
aI42
aI129
aI43
aI77
aI23
aI141
aI141
aI15
assS'30'
p317
(dp318
g7
(lp319
I636
aI637
aI468
aI458
aI625
aI627
aI461
aI448
aI455
aI457
aI629
aI626
aI463
aI440
aI467
aI633
aI629
aI457
aI457
aI454
asg9
(lp320
I293
aI24
aI218
aI57
aI210
aI21
aI10
aI44
aI121
aI204
aI17
aI261
aI17
aI51
aI32
aI13
aI27
aI28
aI122
aI39
assS'40'
p321
(dp322
g7
(lp323
I595
aI381
aI546
aI542
aI535
aI403
aI112
aI594
aI593
aI392
aI392
aI398
aI392
aI389
aI405
aI385
aI390
aI122
aI413
aI543
asg9
(lp324
I147
aI10
aI86
aI20
aI74
aI27
aI84
aI17
aI89
aI122
aI57
aI94
aI209
aI17
aI56
aI15
aI83
aI37
aI66
aI19
assg27
(dp325
g7
(lp326
I624
aI618
aI617
aI621
aI624
aI624
aI623
aI626
aI621
aI619
aI629
aI627
aI618
aI626
aI624
aI623
aI624
aI621
aI618
aI621
asg9
(lp327
I5
aI11
aI50
aI19
aI21
aI4
aI221
aI4
aI57
aI80
aI12
aI19
aI50
aI3
aI5
aI12
aI15
aI320
aI9
aI14
assS'35'
p328
(dp329
g7
(lp330
I582
aI421
aI437
aI434
aI581
aI427
aI431
aI422
aI579
aI582
aI435
aI424
aI432
aI429
aI426
aI432
aI580
aI429
aI419
aI418
asg9
(lp331
I25
aI106
aI37
aI105
aI109
aI480
aI19
aI20
aI176
aI137
aI220
aI323
aI251
aI149
aI120
aI86
aI9
aI122
aI72
aI424
assS'20'
p332
(dp333
g7
(lp334
I519
aI526
aI526
aI531
aI512
aI520
aI716
aI532
aI529
aI527
aI518
aI526
aI718
aI524
aI520
aI519
aI529
aI528
aI522
aI523
asg9
(lp335
I90
aI102
aI21
aI47
aI18
aI120
aI71
aI3
aI9
aI67
aI71
aI3
aI37
aI18
aI89
aI57
aI84
aI176
aI27
aI25
asssS'sqlite_95'
p336
(dp337
S'10'
p338
(dp339
g7
(lp340
I9
aI9
aI10
aI10
aI9
aI10
aI8
aI10
aI9
aI10
aI7
aI10
aI10
aI9
aI9
aI9
aI10
aI9
aI10
aI9
asg9
(lp341
I60
aI274
aI0
aI4
aI100
aI77
aI8
aI278
aI26
aI110
aI0
aI67
aI159
aI1
aI10
aI152
aI0
aI127
aI75
aI391
assS'15'
p342
(dp343
g7
(lp344
I11
aI9
aI9
aI8
aI13
aI10
aI6
aI10
aI12
aI10
aI8
aI9
aI9
aI14
aI9
aI8
aI12
aI10
aI9
aI13
asg9
(lp345
I156
aI14
aI593
aI74
aI2
aI94
aI71
aI66
aI22
aI209
aI28
aI9
aI30
aI13
aI60
aI153
aI92
aI43
aI1
aI164
assS'25'
p346
(dp347
g7
(lp348
I8
aI6
aI8
aI13
aI9
aI7
aI10
aI8
aI7
aI6
aI7
aI7
aI6
aI4
aI9
aI10
aI7
aI11
aI4
aI8
asg9
(lp349
I21
aI44
aI3
aI653
aI317
aI40
aI99
aI462
aI76
aI419
aI164
aI324
aI0
aI0
aI0
aI0
aI42
aI51
aI30
aI148
assS'30'
p350
(dp351
g7
(lp352
I10
aI6
aI7
aI7
aI9
aI4
aI8
aI9
aI7
aI8
aI6
aI7
aI7
aI8
aI7
aI8
aI10
aI7
aI7
aI5
asg9
(lp353
I0
aI280
aI451
aI104
aI0
aI435
aI48
aI68
aI131
aI150
aI176
aI150
aI209
aI295
aI0
aI296
aI70
aI10
aI173
aI28
assS'40'
p354
(dp355
g7
(lp356
I7
aI7
aI4
aI6
aI5
aI4
aI4
aI3
aI4
aI4
aI2
aI8
aI8
aI7
aI9
aI5
aI7
aI6
aI12
aI5
asg9
(lp357
I43
aI266
aI262
aI38
aI460
aI119
aI47
aI0
aI375
aI583
aI220
aI68
aI37
aI112
aI231
aI408
aI181
aI39
aI13
aI121
assg27
(dp358
g7
(lp359
I10
aI9
aI10
aI10
aI10
aI9
aI8
aI9
aI14
aI10
aI10
aI10
aI10
aI10
aI10
aI12
aI10
aI10
aI10
aI10
asg9
(lp360
I4
aI32
aI72
aI9
aI31
aI0
aI0
aI9
aI7
aI5
aI218
aI23
aI87
aI138
aI9
aI9
aI18
aI32
aI6
aI6
assS'35'
p361
(dp362
g7
(lp363
I8
aI6
aI5
aI4
aI6
aI6
aI10
aI6
aI4
aI5
aI10
aI10
aI7
aI6
aI7
aI7
aI5
aI8
aI9
aI6
asg9
(lp364
I50
aI64
aI266
aI160
aI26
aI19
aI385
aI9
aI22
aI255
aI0
aI109
aI76
aI262
aI286
aI12
aI101
aI192
aI379
aI65
assS'20'
p365
(dp366
g7
(lp367
I10
aI8
aI7
aI10
aI10
aI8
aI7
aI9
aI7
aI13
aI8
aI10
aI7
aI7
aI9
aI8
aI10
aI8
aI7
aI10
asg9
(lp368
I266
aI94
aI126
aI91
aI174
aI28
aI56
aI2
aI82
aI336
aI61
aI54
aI276
aI137
aI539
aI95
aI117
aI234
aI45
aI260
asssS'sqlite_87'
p369
(dp370
S'25'
p371
(dp372
g7
(lp373
I88
aI79
aI40
aI42
aI93
aI46
aI93
aI91
aI86
aI85
aI83
aI94
aI87
aI87
aI88
aI96
aI83
aI47
aI43
aI95
asg9
(lp374
I36
aI160
aI115
aI40
aI279
aI676
aI169
aI193
aI639
aI128
aI15
aI117
aI49
aI167
aI436
aI35
aI144
aI22
aI197
aI175
assS'20'
p375
(dp376
g7
(lp377
I47
aI92
aI94
aI101
aI95
aI96
aI97
aI93
aI91
aI48
aI88
aI85
aI90
aI101
aI51
aI96
aI2
aI2
aI92
aI81
asg9
(lp378
I44
aI14
aI353
aI63
aI6
aI96
aI241
aI173
aI276
aI313
aI49
aI44
aI318
aI249
aI315
aI23
aI194
aI6
aI459
aI120
assS'10'
p379
(dp380
g7
(lp381
I112
aI1
aI105
aI104
aI111
aI102
aI106
aI104
aI107
aI105
aI105
aI107
aI106
aI103
aI106
aI108
aI106
aI106
aI100
aI106
asg9
(lp382
I3
aI21
aI318
aI44
aI277
aI61
aI10
aI124
aI137
aI84
aI44
aI56
aI157
aI63
aI65
aI48
aI26
aI291
aI54
aI11
assS'30'
p383
(dp384
g7
(lp385
I91
aI82
aI1
aI79
aI84
aI79
aI49
aI84
aI86
aI73
aI90
aI34
aI39
aI82
aI73
aI81
aI41
aI80
aI81
aI44
asg9
(lp386
I593
aI627
aI238
aI393
aI28
aI150
aI87
aI31
aI50
aI160
aI142
aI154
aI362
aI283
aI5
aI157
aI353
aI424
aI171
aI97
assS'35'
p387
(dp388
g7
(lp389
I45
aI76
aI70
aI69
aI71
aI78
aI75
aI40
aI53
aI41
aI77
aI81
aI40
aI69
aI80
aI50
aI43
aI81
aI78
aI79
asg9
(lp390
I211
aI1
aI70
aI72
aI90
aI78
aI134
aI403
aI243
aI27
aI13
aI268
aI383
aI69
aI10
aI197
aI53
aI150
aI189
aI156
assg27
(dp391
g7
(lp392
I57
aI113
aI112
aI110
aI111
aI114
aI110
aI111
aI109
aI113
aI111
aI113
aI111
aI111
aI117
aI55
aI113
aI108
aI109
aI107
asg9
(lp393
I45
aI21
aI6
aI39
aI1
aI14
aI42
aI25
aI136
aI6
aI36
aI20
aI8
aI30
aI52
aI8
aI19
aI30
aI7
aI97
assS'40'
p394
(dp395
g7
(lp396
I40
aI72
aI64
aI71
aI29
aI43
aI83
aI69
aI1
aI83
aI66
aI35
aI70
aI71
aI70
aI75
aI32
aI36
aI68
aI38
asg9
(lp397
I14
aI246
aI189
aI7
aI291
aI99
aI217
aI53
aI277
aI32
aI187
aI213
aI255
aI16
aI114
aI15
aI374
aI282
aI13
aI22
assS'15'
p398
(dp399
g7
(lp400
I92
aI103
aI97
aI103
aI99
aI49
aI101
aI102
aI100
aI102
aI48
aI103
aI101
aI100
aI95
aI101
aI99
aI97
aI94
aI98
asg9
(lp401
I415
aI15
aI143
aI120
aI725
aI120
aI44
aI21
aI2
aI61
aI68
aI560
aI2
aI186
aI7
aI2
aI17
aI156
aI15
aI290
asssS'sqlite_97'
p402
(dp403
S'10'
p404
(dp405
g7
(lp406
I446
aI411
aI412
aI413
aI411
aI413
aI410
aI452
aI413
aI410
aI403
aI409
aI407
aI409
aI403
aI451
aI408
aI411
aI401
aI410
asg9
(lp407
I92
aI148
aI204
aI36
aI142
aI224
aI8
aI132
aI291
aI134
aI137
aI74
aI58
aI250
aI57
aI66
aI9
aI99
aI30
aI79
assS'20'
p408
(dp409
g7
(lp410
I366
aI404
aI373
aI370
aI409
aI365
aI348
aI403
aI357
aI369
aI408
aI413
aI376
aI404
aI350
aI362
aI377
aI360
aI364
aI350
asg9
(lp411
I262
aI73
aI47
aI198
aI31
aI209
aI46
aI721
aI45
aI55
aI34
aI71
aI13
aI137
aI51
aI177
aI94
aI39
aI131
aI92
assS'25'
p412
(dp413
g7
(lp414
I341
aI354
aI346
aI333
aI379
aI344
aI337
aI343
aI336
aI327
aI329
aI337
aI337
aI339
aI379
aI338
aI340
aI373
aI376
aI358
asg9
(lp415
I77
aI487
aI477
aI156
aI486
aI45
aI451
aI678
aI382
aI336
aI359
aI23
aI6
aI441
aI84
aI61
aI66
aI118
aI34
aI7
assS'30'
p416
(dp417
g7
(lp418
I338
aI357
aI359
aI354
aI329
aI319
aI335
aI354
aI355
aI314
aI327
aI363
aI351
aI319
aI306
aI336
aI315
aI359
aI323
aI348
asg9
(lp419
I102
aI333
aI632
aI441
aI4
aI103
aI99
aI80
aI270
aI47
aI6
aI5
aI4
aI144
aI2
aI44
aI135
aI56
aI9
aI28
assS'35'
p420
(dp421
g7
(lp422
I305
aI301
aI286
aI286
aI289
aI284
aI293
aI300
aI327
aI285
aI305
aI291
aI285
aI319
aI296
aI297
aI324
aI326
aI336
aI331
asg9
(lp423
I421
aI106
aI46
aI76
aI484
aI149
aI49
aI563
aI48
aI233
aI375
aI104
aI365
aI27
aI297
aI114
aI120
aI386
aI107
aI423
assg27
(dp424
g7
(lp425
I423
aI435
aI428
aI434
aI430
aI429
aI426
aI481
aI431
aI424
aI435
aI427
aI435
aI430
aI427
aI433
aI425
aI433
aI430
aI434
asg9
(lp426
I0
aI15
aI100
aI9
aI86
aI54
aI33
aI6
aI140
aI20
aI136
aI61
aI1
aI139
aI0
aI104
aI10
aI14
aI30
aI24
assS'40'
p427
(dp428
g7
(lp429
I269
aI294
aI304
aI280
aI267
aI268
aI316
aI280
aI278
aI267
aI262
aI271
aI311
aI266
aI299
aI264
aI275
aI279
aI279
aI279
asg9
(lp430
I87
aI4
aI250
aI260
aI245
aI1
aI7
aI99
aI128
aI339
aI484
aI186
aI36
aI5
aI75
aI93
aI296
aI428
aI436
aI18
assS'15'
p431
(dp432
g7
(lp433
I390
aI386
aI384
aI381
aI424
aI382
aI378
aI444
aI440
aI383
aI375
aI394
aI388
aI431
aI393
aI385
aI432
aI379
aI390
aI385
asg9
(lp434
I348
aI8
aI10
aI153
aI154
aI325
aI108
aI86
aI12
aI669
aI7
aI5
aI148
aI5
aI106
aI49
aI38
aI121
aI208
aI94
asssS'sqlite_96'
p435
(dp436
S'10'
p437
(dp438
g7
(lp439
I47
aI45
aI44
aI48
aI51
aI519
aI45
aI47
aI45
aI523
aI47
aI47
aI51
aI49
aI49
aI48
aI49
aI39
aI47
aI52
asg9
(lp440
I191
aI45
aI56
aI55
aI88
aI46
aI6
aI12
aI84
aI54
aI39
aI194
aI16
aI6
aI18
aI81
aI85
aI39
aI47
aI39
assS'20'
p441
(dp442
g7
(lp443
I47
aI465
aI43
aI45
aI42
aI46
aI46
aI43
aI47
aI43
aI45
aI38
aI43
aI43
aI41
aI472
aI36
aI439
aI38
aI45
asg9
(lp444
I25
aI234
aI147
aI382
aI176
aI7
aI46
aI3
aI211
aI77
aI5
aI16
aI66
aI39
aI750
aI36
aI574
aI68
aI130
aI488
assS'25'
p445
(dp446
g7
(lp447
I420
aI39
aI40
aI37
aI44
aI39
aI34
aI44
aI38
aI424
aI426
aI408
aI432
aI37
aI427
aI419
aI45
aI43
aI411
aI39
asg9
(lp448
I253
aI10
aI53
aI709
aI92
aI398
aI13
aI367
aI408
aI608
aI481
aI67
aI379
aI701
aI49
aI106
aI0
aI25
aI40
aI292
assS'30'
p449
(dp450
g7
(lp451
I36
aI37
aI38
aI42
aI383
aI414
aI364
aI39
aI175
aI43
aI36
aI36
aI171
aI42
aI38
aI405
aI173
aI38
aI38
aI389
asg9
(lp452
I512
aI139
aI61
aI152
aI68
aI141
aI361
aI203
aI423
aI552
aI231
aI18
aI392
aI26
aI30
aI106
aI16
aI235
aI500
aI180
assS'35'
p453
(dp454
g7
(lp455
I32
aI35
aI32
aI36
aI355
aI34
aI33
aI34
aI358
aI39
aI42
aI36
aI29
aI29
aI382
aI36
aI30
aI36
aI385
aI31
asg9
(lp456
I269
aI81
aI543
aI356
aI572
aI260
aI95
aI188
aI297
aI587
aI22
aI27
aI160
aI186
aI427
aI499
aI184
aI103
aI156
aI222
assg27
(dp457
g7
(lp458
I54
aI549
aI50
aI52
aI52
aI49
aI52
aI50
aI50
aI51
aI51
aI52
aI53
aI49
aI52
aI52
aI545
aI51
aI50
aI50
asg9
(lp459
I163
aI83
aI3
aI151
aI69
aI2
aI13
aI45
aI17
aI6
aI18
aI21
aI0
aI38
aI46
aI27
aI5
aI22
aI37
aI26
assS'40'
p460
(dp461
g7
(lp462
I342
aI341
aI34
aI348
aI14
aI30
aI36
aI32
aI146
aI31
aI328
aI339
aI30
aI343
aI336
aI37
aI30
aI352
aI31
aI335
asg9
(lp463
I134
aI85
aI24
aI430
aI134
aI174
aI188
aI14
aI43
aI41
aI332
aI314
aI30
aI276
aI502
aI5
aI66
aI243
aI344
aI250
assS'15'
p464
(dp465
g7
(lp466
I43
aI42
aI49
aI486
aI48
aI46
aI49
aI45
aI46
aI42
aI41
aI48
aI47
aI47
aI47
aI44
aI46
aI46
aI45
aI44
asg9
(lp467
I234
aI25
aI4
aI214
aI18
aI207
aI25
aI81
aI164
aI116
aI90
aI74
aI135
aI249
aI33
aI284
aI835
aI57
aI114
aI119
assss.