(dp0
S'storm-obj2_feature7'
p1
(dp2
S'storm-obj2_feature6'
p3
(dp4
S'25'
p5
(dp6
S'bellwether'
p7
(lp8
I1
aI1
aI0
aI1
aI0
aI0
aI1
aI1
aI1
aI1
aI1
aI1
aI0
aI1
aI1
aI0
aI0
aI1
aI0
aI1
asS'target'
p9
(lp10
I4
aI4
aI139
aI3
aI131
aI156
aI1
aI3
aI1
aI1
aI4
aI3
aI147
aI1
aI1
aI138
aI127
aI1
aI121
aI1
assS'15'
p11
(dp12
g7
(lp13
I0
aI0
aI1
aI1
aI0
aI1
aI1
aI1
aI1
aI1
aI1
aI1
aI1
aI1
aI1
aI1
aI1
aI1
aI1
aI1
asg9
(lp14
I145
aI142
aI1
aI4
aI155
aI1
aI1
aI1
aI2
aI1
aI1
aI1
aI1
aI2
aI3
aI1
aI1
aI1
aI1
aI2
assS'10'
p15
(dp16
g7
(lp17
I1
aI1
aI1
aI1
aI1
aI1
aI1
aI1
aI1
aI1
aI1
aI1
aI1
aI1
aI0
aI1
aI1
aI1
aI0
aI1
asg9
(lp18
I3
aI12
aI1
aI3
aI1
aI1
aI1
aI1
aI1
aI1
aI1
aI1
aI1
aI1
aI131
aI3
aI1
aI2
aI149
aI1
assS'30'
p19
(dp20
g7
(lp21
I1
aI1
aI1
aI67
aI0
aI1
aI1
aI1
aI1
aI0
aI1
aI1
aI1
aI1
aI1
aI1
aI0
aI1
aI1
aI1
asg9
(lp22
I1
aI3
aI1
aI1
aI130
aI12
aI2
aI2
aI52
aI125
aI1
aI4
aI1
aI1
aI1
aI1
aI143
aI8
aI4
aI1
assS'40'
p23
(dp24
g7
(lp25
I1
aI0
aI0
aI0
aI0
aI1
aI49
aI0
aI1
aI1
aI1
aI0
aI1
aI61
aI1
aI1
aI0
aI0
aI0
aI66
asg9
(lp26
I17
aI118
aI96
aI122
aI116
aI1
aI124
aI122
aI2
aI7
aI1
aI114
aI1
aI108
aI2
aI46
aI121
aI119
aI111
aI121
assS'5'
p27
(dp28
g7
(lp29
I1
aI1
aI1
aI1
aI1
aI1
aI1
aI1
aI1
aI1
aI1
aI1
aI1
aI1
aI1
aI1
aI1
aI1
aI1
aI1
asg9
(lp30
I2
aI1
aI3
aI12
aI1
aI1
aI1
aI1
aI1
aI1
aI1
aI2
aI2
aI2
aI1
aI0
aI1
aI1
aI2
aI1
assS'35'
p31
(dp32
g7
(lp33
I1
aI1
aI1
aI1
aI58
aI0
aI1
aI1
aI0
aI1
aI1
aI0
aI1
aI1
aI1
aI1
aI1
aI0
aI1
aI0
asg9
(lp34
I35
aI10
aI93
aI1
aI5
aI127
aI2
aI49
aI117
aI2
aI1
aI103
aI3
aI45
aI1
aI4
aI3
aI127
aI1
aI127
assS'20'
p35
(dp36
g7
(lp37
I1
aI1
aI1
aI1
aI1
aI0
aI1
aI1
aI0
aI0
aI1
aI1
aI0
aI0
aI1
aI1
aI1
aI1
aI1
aI0
asg9
(lp38
I3
aI1
aI1
aI1
aI1
aI160
aI1
aI1
aI180
aI166
aI1
aI1
aI149
aI132
aI1
aI1
aI2
aI1
aI1
aI171
asssS'storm-obj2_feature9'
p39
(dp40
S'25'
p41
(dp42
g7
(lp43
I49
aI126
aI44
aI48
aI45
aI49
aI45
aI45
aI47
aI132
aI83
aI94
aI41
aI85
aI39
aI77
aI46
aI46
aI51
aI51
asg9
(lp44
I88
aI0
aI7
aI29
aI4
aI2
aI30
aI2
aI20
aI40
aI5
aI0
aI18
aI49
aI170
aI90
aI16
aI9
aI30
aI8
assS'20'
p45
(dp46
g7
(lp47
I84
aI42
aI45
aI47
aI49
aI89
aI46
aI47
aI47
aI47
aI40
aI48
aI50
aI53
aI52
aI82
aI46
aI48
aI47
aI87
asg9
(lp48
I0
aI42
aI96
aI23
aI35
aI7
aI23
aI12
aI91
aI57
aI39
aI35
aI47
aI49
aI13
aI0
aI131
aI12
aI11
aI49
assS'10'
p49
(dp50
g7
(lp51
I55
aI53
aI52
aI58
aI53
aI53
aI55
aI51
aI55
aI53
aI51
aI56
aI56
aI55
aI55
aI51
aI58
aI53
aI49
aI54
asg9
(lp52
I22
aI2
aI9
aI4
aI18
aI24
aI40
aI42
aI2
aI7
aI0
aI5
aI5
aI20
aI1
aI5
aI1
aI5
aI30
aI9
assS'30'
p53
(dp54
g7
(lp55
I40
aI36
aI120
aI42
aI71
aI37
aI39
aI43
aI42
aI68
aI49
aI129
aI76
aI38
aI44
aI40
aI77
aI42
aI43
aI40
asg9
(lp56
I12
aI9
aI120
aI79
aI163
aI39
aI47
aI44
aI69
aI38
aI50
aI26
aI115
aI18
aI37
aI9
aI20
aI31
aI80
aI173
assS'35'
p57
(dp58
g7
(lp59
I39
aI42
aI37
aI75
aI76
aI108
aI41
aI69
aI39
aI40
aI41
aI69
aI38
aI69
aI36
aI42
aI119
aI351
aI121
aI38
asg9
(lp60
I74
aI135
aI110
aI70
aI80
aI74
aI5
aI6
aI108
aI10
aI69
aI92
aI72
aI7
aI49
aI29
aI51
aI4
aI111
aI130
assg27
(dp61
g7
(lp62
I59
aI56
aI54
aI56
aI59
aI58
aI58
aI59
aI56
aI57
aI57
aI56
aI57
aI57
aI56
aI102
aI57
aI57
aI56
aI54
asg9
(lp63
I6
aI19
aI9
aI58
aI0
aI0
aI3
aI0
aI0
aI4
aI4
aI0
aI6
aI7
aI4
aI10
aI19
aI6
aI2
aI1
assS'40'
p64
(dp65
g7
(lp66
I37
aI37
aI28
aI109
aI38
aI57
aI31
aI36
aI45
aI41
aI43
aI32
aI38
aI32
aI39
aI62
aI41
aI34
aI104
aI66
asg9
(lp67
I127
aI4
aI18
aI67
aI31
aI8
aI120
aI149
aI49
aI15
aI9
aI54
aI86
aI19
aI31
aI24
aI16
aI40
aI3
aI58
assS'15'
p68
(dp69
g7
(lp70
I98
aI86
aI51
aI90
aI51
aI55
aI50
aI50
aI48
aI92
aI51
aI49
aI93
aI53
aI55
aI55
aI55
aI53
aI53
aI51
asg9
(lp71
I43
aI122
aI30
aI5
aI22
aI7
aI21
aI10
aI12
aI0
aI5
aI24
aI25
aI1
aI24
aI1
aI139
aI23
aI18
aI36
asssS'storm-obj2_feature8'
p72
(dp73
S'25'
p74
(dp75
g7
(lp76
I156
aI115
aI124
aI143
aI116
aI107
aI144
aI130
aI127
aI120
aI120
aI123
aI121
aI120
aI116
aI121
aI121
aI121
aI121
aI115
asg9
(lp77
I3
aI7
aI2
aI218
aI2
aI12
aI9
aI19
aI1
aI5
aI3
aI8
aI6
aI7
aI203
aI14
aI202
aI1
aI215
aI14
assS'20'
p78
(dp79
g7
(lp80
I131
aI161
aI127
aI131
aI125
aI162
aI122
aI154
aI145
aI122
aI129
aI126
aI113
aI123
aI127
aI133
aI123
aI126
aI159
aI123
asg9
(lp81
I1
aI10
aI2
aI227
aI4
aI284
aI217
aI2
aI3
aI200
aI3
aI12
aI2
aI3
aI7
aI1
aI6
aI3
aI4
aI210
assS'10'
p82
(dp83
g7
(lp84
I176
aI141
aI147
aI141
aI171
aI145
aI138
aI138
aI137
aI146
aI168
aI141
aI145
aI139
aI150
aI138
aI145
aI143
aI146
aI141
asg9
(lp85
I2
aI3
aI1
aI8
aI2
aI19
aI14
aI4
aI5
aI4
aI225
aI6
aI1
aI4
aI16
aI51
aI4
aI5
aI1
aI7
assS'30'
p86
(dp87
g7
(lp88
I103
aI135
aI143
aI106
aI116
aI105
aI109
aI110
aI119
aI111
aI110
aI103
aI112
aI143
aI118
aI104
aI118
aI137
aI113
aI113
asg9
(lp89
I198
aI17
aI194
aI175
aI19
aI2
aI222
aI6
aI1
aI16
aI8
aI1
aI3
aI3
aI188
aI1
aI5
aI9
aI259
aI4
assS'35'
p90
(dp91
g7
(lp92
I108
aI115
aI135
aI126
aI131
aI116
aI125
aI131
aI133
aI146
aI104
aI99
aI106
aI130
aI97
aI101
aI95
aI105
aI126
aI129
asg9
(lp93
I4
aI1
aI259
aI215
aI3
aI211
aI276
aI217
aI184
aI5
aI12
aI22
aI6
aI4
aI5
aI13
aI12
aI2
aI231
aI216
assg27
(dp94
g7
(lp95
I152
aI147
aI151
aI152
aI148
aI150
aI153
aI149
aI150
aI151
aI152
aI148
aI151
aI152
aI146
aI185
aI151
aI145
aI150
aI151
asg9
(lp96
I1
aI1
aI7
aI4
aI8
aI1
aI8
aI7
aI10
aI5
aI35
aI9
aI7
aI4
aI3
aI2
aI11
aI33
aI12
aI3
assS'40'
p97
(dp98
g7
(lp99
I96
aI103
aI84
aI116
aI96
aI122
aI99
aI97
aI92
aI93
aI119
aI93
aI308
aI90
aI86
aI125
aI97
aI121
aI116
aI102
asg9
(lp100
I4
aI2
aI3
aI153
aI294
aI5
aI5
aI3
aI155
aI2
aI269
aI6
aI4
aI7
aI1
aI5
aI2
aI1
aI1
aI2
assS'15'
p101
(dp102
g7
(lp103
I131
aI136
aI138
aI139
aI131
aI134
aI139
aI172
aI135
aI131
aI139
aI132
aI135
aI132
aI135
aI141
aI128
aI121
aI136
aI135
asg9
(lp104
I211
aI221
aI11
aI15
aI11
aI2
aI23
aI12
aI5
aI5
aI10
aI2
aI9
aI11
aI7
aI5
aI18
aI2
aI1
aI2
assss.