(dp0
S'storm-obj1_feature6'
p1
(dp2
S'storm-obj1_feature7'
p3
(dp4
S'25'
p5
(dp6
S'bellwether'
p7
(lp8
I0
aI38
aI0
aI1
aI53
aI1
aI59
aI1
aI1
aI1
aI1
aI1
aI1
aI0
aI1
aI1
aI1
aI1
aI1
aI1
asS'target'
p9
(lp10
I20
aI0
aI4
aI135
aI0
aI178
aI0
aI16
aI12
aI5
aI16
aI15
aI12
aI0
aI0
aI5
aI9
aI2
aI45
aI138
assS'20'
p11
(dp12
g7
(lp13
I1
aI62
aI1
aI1
aI0
aI1
aI1
aI0
aI0
aI0
aI56
aI1
aI1
aI1
aI1
aI60
aI1
aI1
aI0
aI65
asg9
(lp14
I8
aI29
aI237
aI0
aI10
aI28
aI131
aI0
aI0
aI2
aI1
aI0
aI0
aI136
aI0
aI0
aI26
aI13
aI0
aI2
assS'10'
p15
(dp16
g7
(lp17
I1
aI1
aI1
aI1
aI1
aI1
aI67
aI1
aI1
aI1
aI1
aI70
aI0
aI1
aI0
aI1
aI0
aI0
aI71
aI1
asg9
(lp18
I0
aI1
aI54
aI0
aI2
aI142
aI0
aI0
aI147
aI0
aI5
aI11
aI4
aI0
aI3
aI3
aI1
aI2
aI0
aI0
assS'30'
p19
(dp20
g7
(lp21
I59
aI51
aI1
aI1
aI43
aI58
aI52
aI59
aI1
aI1
aI1
aI50
aI1
aI1
aI22
aI53
aI53
aI1
aI1
aI1
asg9
(lp22
I0
aI0
aI1
aI22
aI33
aI0
aI0
aI0
aI1
aI20
aI6
aI1
aI110
aI20
aI1
aI2
aI0
aI162
aI353
aI109
assS'35'
p23
(dp24
g7
(lp25
I13
aI49
aI1
aI28
aI1
aI1
aI1
aI1
aI0
aI1
aI0
aI0
aI1
aI1
aI53
aI1
aI49
aI54
aI0
aI0
asg9
(lp26
I100
aI0
aI1
aI0
aI20
aI6
aI1
aI1
aI17
aI1
aI0
aI106
aI102
aI5
aI3
aI23
aI0
aI0
aI0
aI0
assS'5'
p27
(dp28
g7
(lp29
I1
aI1
aI1
aI72
aI1
aI1
aI1
aI1
aI1
aI1
aI1
aI1
aI1
aI1
aI1
aI1
aI1
aI1
aI1
aI1
asg9
(lp30
I0
aI0
aI51
aI5
aI1
aI2
aI28
aI22
aI0
aI0
aI1
aI6
aI1
aI2
aI1
aI5
aI1
aI0
aI0
aI11
assS'40'
p31
(dp32
g7
(lp33
I1
aI1
aI1
aI41
aI47
aI0
aI24
aI1
aI21
aI0
aI48
aI45
aI1
aI46
aI20
aI0
aI1
aI1
aI45
aI0
asg9
(lp34
I14
aI13
aI1
aI0
aI0
aI0
aI0
aI0
aI1
aI0
aI0
aI2
aI0
aI0
aI1
aI1
aI0
aI0
aI1
aI14
assS'15'
p35
(dp36
g7
(lp37
I1
aI1
aI1
aI1
aI68
aI42
aI1
aI1
aI63
aI0
aI0
aI1
aI1
aI1
aI1
aI26
aI1
aI1
aI1
aI1
asg9
(lp38
I6
aI0
aI12
aI55
aI6
aI2
aI0
aI117
aI0
aI0
aI1
aI1
aI0
aI8
aI241
aI0
aI10
aI5
aI57
aI0
asssS'storm-obj1_feature8'
p39
(dp40
S'10'
p41
(dp42
g7
(lp43
I144
aI152
aI148
aI146
aI145
aI146
aI150
aI145
aI150
aI147
aI150
aI141
aI151
aI151
aI144
aI146
aI146
aI147
aI155
aI146
asg9
(lp44
I19
aI9
aI4
aI17
aI3
aI28
aI9
aI8
aI7
aI25
aI10
aI2
aI2
aI0
aI6
aI35
aI25
aI1
aI0
aI5
assS'15'
p45
(dp46
g7
(lp47
I135
aI247
aI143
aI137
aI143
aI137
aI150
aI144
aI248
aI140
aI136
aI143
aI143
aI252
aI238
aI148
aI257
aI138
aI145
aI136
asg9
(lp48
I123
aI6
aI12
aI14
aI0
aI0
aI30
aI22
aI9
aI11
aI0
aI3
aI5
aI2
aI52
aI12
aI0
aI3
aI6
aI33
assS'25'
p49
(dp50
g7
(lp51
I124
aI122
aI135
aI129
aI213
aI121
aI125
aI125
aI127
aI217
aI118
aI122
aI126
aI133
aI125
aI128
aI122
aI131
aI120
aI219
asg9
(lp52
I12
aI19
aI3
aI163
aI0
aI84
aI8
aI10
aI9
aI21
aI4
aI16
aI7
aI63
aI7
aI40
aI4
aI11
aI214
aI11
assS'30'
p53
(dp54
g7
(lp55
I121
aI112
aI208
aI203
aI221
aI115
aI120
aI116
aI118
aI234
aI120
aI119
aI200
aI115
aI108
aI118
aI117
aI202
aI105
aI218
asg9
(lp56
I0
aI69
aI14
aI22
aI37
aI16
aI5
aI14
aI20
aI37
aI71
aI20
aI6
aI15
aI16
aI13
aI86
aI46
aI124
aI76
assS'40'
p57
(dp58
g7
(lp59
I104
aI96
aI172
aI174
aI100
aI200
aI186
aI92
aI103
aI176
aI189
aI181
aI162
aI101
aI96
aI101
aI174
aI169
aI100
aI106
asg9
(lp60
I5
aI59
aI36
aI32
aI156
aI126
aI15
aI82
aI0
aI29
aI138
aI32
aI120
aI11
aI157
aI57
aI0
aI51
aI87
aI10
assg27
(dp61
g7
(lp62
I161
aI154
aI163
aI158
aI164
aI279
aI159
aI156
aI152
aI274
aI159
aI155
aI156
aI154
aI161
aI159
aI152
aI154
aI159
aI160
asg9
(lp63
I0
aI8
aI8
aI3
aI3
aI3
aI17
aI20
aI70
aI18
aI1
aI2
aI2
aI17
aI3
aI43
aI24
aI8
aI6
aI0
assS'35'
p64
(dp65
g7
(lp66
I318
aI197
aI115
aI185
aI113
aI109
aI100
aI190
aI106
aI219
aI181
aI103
aI105
aI106
aI223
aI182
aI116
aI112
aI118
aI186
asg9
(lp67
I11
aI38
aI22
aI2
aI26
aI8
aI38
aI49
aI42
aI69
aI66
aI49
aI18
aI49
aI20
aI10
aI7
aI7
aI59
aI14
assS'20'
p68
(dp69
g7
(lp70
I261
aI129
aI132
aI137
aI233
aI134
aI127
aI133
aI138
aI121
aI229
aI125
aI135
aI128
aI237
aI124
aI233
aI124
aI133
aI134
asg9
(lp71
I22
aI14
aI11
aI12
aI17
aI20
aI9
aI0
aI13
aI39
aI3
aI10
aI0
aI27
aI5
aI0
aI12
aI16
aI1
aI3
asssS'storm-obj1_feature9'
p72
(dp73
S'10'
p74
(dp75
g7
(lp76
I443
aI358
aI10
aI12
aI11
aI11
aI365
aI10
aI12
aI12
aI10
aI11
aI9
aI10
aI9
aI12
aI366
aI12
aI10
aI11
asg9
(lp77
I30
aI19
aI240
aI2
aI11
aI255
aI8
aI260
aI2
aI296
aI8
aI248
aI10
aI241
aI180
aI3
aI11
aI5
aI275
aI3
assS'15'
p78
(dp79
g7
(lp80
I9
aI9
aI10
aI10
aI10
aI11
aI9
aI410
aI10
aI10
aI10
aI11
aI10
aI343
aI351
aI342
aI331
aI351
aI10
aI337
asg9
(lp81
I13
aI238
aI25
aI6
aI259
aI5
aI10
aI243
aI35
aI240
aI3
aI19
aI20
aI3
aI3
aI4
aI228
aI12
aI311
aI229
assS'25'
p82
(dp83
g7
(lp84
I9
aI9
aI10
aI9
aI298
aI304
aI9
aI292
aI9
aI5
aI9
aI295
aI9
aI419
aI7
aI11
aI9
aI7
aI7
aI8
asg9
(lp85
I13
aI11
aI239
aI19
aI153
aI206
aI6
aI11
aI12
aI295
aI15
aI222
aI16
aI228
aI249
aI107
aI86
aI217
aI551
aI107
assS'30'
p86
(dp87
g7
(lp88
I9
aI7
aI6
aI5
aI275
aI285
aI7
aI7
aI281
aI12
aI291
aI286
aI9
aI330
aI8
aI6
aI293
aI9
aI9
aI276
asg9
(lp89
I4
aI10
aI9
aI214
aI211
aI194
aI69
aI199
aI195
aI21
aI468
aI191
aI472
aI65
aI15
aI213
aI485
aI6
aI187
aI10
assS'40'
p90
(dp91
g7
(lp92
I235
aI6
aI6
aI276
aI11
aI9
aI8
aI246
aI247
aI7
aI245
aI9
aI7
aI6
aI8
aI10
aI296
aI246
aI7
aI5
asg9
(lp93
I3
aI63
aI180
aI369
aI36
aI429
aI201
aI3
aI170
aI172
aI179
aI12
aI157
aI168
aI55
aI188
aI174
aI437
aI141
aI405
assg27
(dp94
g7
(lp95
I12
aI12
aI12
aI12
aI12
aI11
aI11
aI12
aI12
aI11
aI11
aI11
aI12
aI12
aI12
aI11
aI11
aI12
aI11
aI11
asg9
(lp96
I2
aI5
aI3
aI3
aI2
aI17
aI16
aI13
aI10
aI5
aI27
aI7
aI13
aI5
aI6
aI4
aI5
aI2
aI6
aI188
assS'35'
p97
(dp98
g7
(lp99
I10
aI6
aI250
aI7
aI321
aI258
aI7
aI256
aI8
aI8
aI8
aI7
aI8
aI7
aI9
aI329
aI258
aI6
aI314
aI6
asg9
(lp100
I14
aI9
aI168
aI479
aI180
aI176
aI456
aI170
aI33
aI471
aI43
aI176
aI203
aI482
aI198
aI192
aI187
aI3
aI220
aI9
assS'20'
p101
(dp102
g7
(lp103
I11
aI10
aI9
aI386
aI325
aI10
aI9
aI384
aI8
aI9
aI10
aI325
aI9
aI12
aI10
aI372
aI10
aI10
aI374
aI10
asg9
(lp104
I100
aI12
aI19
aI229
aI24
aI16
aI211
aI291
aI7
aI5
aI11
aI71
aI222
aI10
aI314
aI4
aI155
aI38
aI22
aI58
assss.