(dp0
S'x264_9'
p1
(dp2
S'x264_17'
p3
(dp4
S'25'
p5
(dp6
S'bellwether'
p7
(lp8
I2
aI1
aI4
aI4
aI3
aI5
aI3
aI3
aI1
aI2
aI3
aI4
aI1
aI31
aI3
aI4
aI2
aI4
aI4
aI5
asS'target'
p9
(lp10
I540
aI43
aI3
aI345
aI5
aI0
aI73
aI45
aI592
aI27
aI33
aI6
aI3
aI255
aI79
aI14
aI114
aI30
aI418
aI93
assS'15'
p11
(dp12
g7
(lp13
I2
aI3
aI4
aI4
aI3
aI3
aI4
aI2
aI3
aI3
aI3
aI4
aI3
aI4
aI4
aI3
aI4
aI5
aI4
aI6
asg9
(lp14
I88
aI53
aI38
aI27
aI57
aI83
aI331
aI111
aI154
aI360
aI33
aI87
aI67
aI13
aI18
aI170
aI0
aI34
aI16
aI8
assS'10'
p15
(dp16
g7
(lp17
I4
aI3
aI5
aI4
aI2
aI4
aI4
aI4
aI3
aI3
aI3
aI4
aI4
aI3
aI3
aI4
aI4
aI4
aI3
aI3
asg9
(lp18
I6
aI58
aI5
aI77
aI36
aI5
aI15
aI4
aI60
aI118
aI57
aI4
aI6
aI4
aI62
aI85
aI67
aI51
aI189
aI40
assS'30'
p19
(dp20
g7
(lp21
I1
aI5
aI1
aI4
aI4
aI27
aI3
aI4
aI1
aI2
aI4
aI5
aI3
aI2
aI2
aI2
aI3
aI3
aI3
aI3
asg9
(lp22
I66
aI65
aI293
aI15
aI100
aI175
aI175
aI259
aI21
aI211
aI261
aI5
aI55
aI80
aI363
aI247
aI662
aI55
aI25
aI355
assS'40'
p23
(dp24
g7
(lp25
I4
aI2
aI4
aI4
aI3
aI2
aI3
aI6
aI61
aI2
aI2
aI3
aI3
aI27
aI3
aI2
aI3
aI2
aI2
aI2
asg9
(lp26
I266
aI49
aI8
aI480
aI257
aI297
aI248
aI6
aI66
aI361
aI409
aI399
aI308
aI439
aI230
aI265
aI25
aI618
aI280
aI371
assS'5'
p27
(dp28
g7
(lp29
I4
aI4
aI4
aI4
aI4
aI4
aI4
aI6
aI4
aI4
aI3
aI6
aI4
aI4
aI4
aI4
aI2
aI3
aI4
aI4
asg9
(lp30
I6
aI14
aI0
aI14
aI133
aI13
aI21
aI1
aI3
aI4
aI10
aI92
aI35
aI10
aI16
aI13
aI23
aI10
aI1
aI4
assS'35'
p31
(dp32
g7
(lp33
I4
aI6
aI4
aI2
aI4
aI2
aI2
aI3
aI3
aI4
aI1
aI2
aI2
aI1
aI4
aI2
aI3
aI4
aI5
aI3
asg9
(lp34
I68
aI6
aI4
aI27
aI4
aI33
aI513
aI45
aI52
aI49
aI235
aI321
aI24
aI474
aI14
aI13
aI47
aI323
aI5
aI74
assS'20'
p35
(dp36
g7
(lp37
I3
aI3
aI3
aI5
aI3
aI3
aI4
aI3
aI4
aI5
aI3
aI3
aI3
aI5
aI2
aI5
aI4
aI3
aI3
aI3
asg9
(lp38
I2
aI33
aI44
aI7
aI204
aI5
aI21
aI853
aI139
aI384
aI98
aI57
aI260
aI2
aI193
aI70
aI10
aI32
aI74
aI541
asssS'x264_16'
p39
(dp40
S'25'
p41
(dp42
g7
(lp43
I60
aI62
aI58
aI58
aI254
aI54
aI61
aI59
aI222
aI239
aI242
aI243
aI56
aI54
aI56
aI53
aI63
aI237
aI55
aI235
asg9
(lp44
I2
aI252
aI18
aI274
aI14
aI1
aI110
aI20
aI0
aI329
aI277
aI306
aI244
aI5
aI206
aI245
aI386
aI0
aI50
aI6
assS'15'
p45
(dp46
g7
(lp47
I57
aI67
aI63
aI277
aI271
aI63
aI69
aI68
aI66
aI63
aI64
aI67
aI271
aI57
aI67
aI266
aI60
aI64
aI255
aI60
asg9
(lp48
I116
aI94
aI271
aI3
aI331
aI2
aI11
aI1
aI117
aI17
aI15
aI201
aI106
aI0
aI493
aI9
aI148
aI1
aI5
aI4
assS'10'
p49
(dp50
g7
(lp51
I290
aI68
aI65
aI67
aI68
aI64
aI58
aI68
aI66
aI70
aI63
aI73
aI69
aI62
aI66
aI68
aI69
aI296
aI69
aI69
asg9
(lp52
I207
aI1
aI2
aI37
aI0
aI2
aI6
aI21
aI0
aI7
aI306
aI3
aI1
aI4
aI4
aI2
aI298
aI35
aI14
aI17
assS'30'
p53
(dp54
g7
(lp55
I55
aI58
aI58
aI54
aI222
aI215
aI53
aI53
aI52
aI52
aI55
aI50
aI233
aI236
aI53
aI54
aI234
aI52
aI49
aI51
asg9
(lp56
I22
aI292
aI104
aI2
aI0
aI13
aI99
aI242
aI231
aI1
aI3
aI345
aI204
aI197
aI1
aI395
aI324
aI256
aI261
aI0
assS'40'
p57
(dp58
g7
(lp59
I51
aI46
aI184
aI199
aI42
aI46
aI49
aI43
aI42
aI189
aI52
aI47
aI50
aI244
aI216
aI198
aI50
aI260
aI192
aI193
asg9
(lp60
I21
aI0
aI161
aI204
aI1
aI11
aI1
aI0
aI8
aI128
aI0
aI0
aI341
aI14
aI241
aI0
aI1
aI174
aI4
aI240
assg27
(dp61
g7
(lp62
I72
aI71
aI75
aI73
aI70
aI71
aI72
aI75
aI72
aI70
aI70
aI74
aI72
aI300
aI74
aI69
aI71
aI72
aI71
aI75
asg9
(lp63
I6
aI475
aI9
aI17
aI0
aI57
aI1
aI8
aI50
aI267
aI0
aI14
aI0
aI5
aI54
aI342
aI14
aI0
aI6
aI10
assS'35'
p64
(dp65
g7
(lp66
I46
aI52
aI218
aI43
aI50
aI49
aI49
aI204
aI44
aI47
aI51
aI36
aI52
aI214
aI197
aI55
aI52
aI47
aI50
aI48
asg9
(lp67
I1
aI199
aI9
aI227
aI185
aI215
aI361
aI1
aI88
aI224
aI257
aI78
aI261
aI1
aI0
aI290
aI225
aI248
aI1329
aI225
assS'20'
p68
(dp69
g7
(lp70
I65
aI64
aI275
aI62
aI65
aI288
aI257
aI56
aI58
aI64
aI60
aI57
aI60
aI55
aI251
aI63
aI64
aI64
aI259
aI69
asg9
(lp71
I376
aI233
aI0
aI19
aI93
aI51
aI229
aI208
aI1
aI0
aI262
aI0
aI0
aI346
aI180
aI291
aI270
aI1
aI2
aI276
asssS'x264_15'
p72
(dp73
S'25'
p74
(dp75
g7
(lp76
I20
aI8
aI951
aI8
aI6
aI7
aI4
aI65
aI23
aI22
aI7
aI7
aI3
aI26
aI63
aI7
aI27
aI28
aI4
aI64
asg9
(lp77
I272
aI12
aI5
aI86
aI30
aI8
aI14
aI56
aI25
aI240
aI15
aI32
aI7
aI27
aI1
aI155
aI30
aI5
aI0
aI4
assS'20'
p78
(dp79
g7
(lp80
I5
aI29
aI25
aI9
aI7
aI6
aI7
aI6
aI8
aI7
aI8
aI9
aI7
aI27
aI24
aI6
aI7
aI6
aI6
aI7
asg9
(lp81
I1019
aI84
aI4
aI0
aI35
aI22
aI1156
aI2
aI12
aI36
aI917
aI885
aI15
aI34
aI32
aI8
aI31
aI16
aI6
aI1016
assS'10'
p82
(dp83
g7
(lp84
I30
aI8
aI9
aI9
aI8
aI8
aI8
aI6
aI7
aI7
aI8
aI9
aI9
aI29
aI30
aI8
aI7
aI9
aI9
aI6
asg9
(lp85
I14
aI12
aI67
aI99
aI5
aI6
aI3
aI11
aI1
aI92
aI2
aI97
aI45
aI1458
aI30
aI34
aI32
aI17
aI10
aI12
assS'30'
p86
(dp87
g7
(lp88
I6
aI864
aI55
aI21
aI6
aI6
aI7
aI5
aI5
aI869
aI7
aI8
aI25
aI4
aI7
aI6
aI25
aI6
aI7
aI25
asg9
(lp89
I141
aI14
aI8
aI918
aI26
aI916
aI25
aI11
aI12
aI8
aI1124
aI14
aI12
aI2
aI34
aI21
aI2
aI46
aI11
aI5
assS'35'
p90
(dp91
g7
(lp92
I54
aI24
aI21
aI5
aI7
aI5
aI5
aI7
aI7
aI6
aI7
aI5
aI19
aI4
aI22
aI20
aI20
aI7
aI4
aI5
asg9
(lp93
I809
aI9
aI22
aI712
aI2
aI76
aI11
aI1
aI12
aI197
aI255
aI902
aI26
aI24
aI831
aI3
aI14
aI11
aI345
aI6
assg27
(dp94
g7
(lp95
I9
aI8
aI6
aI9
aI8
aI9
aI8
aI9
aI9
aI9
aI8
aI9
aI9
aI9
aI9
aI9
aI8
aI9
aI8
aI29
asg9
(lp96
I19
aI38
aI25
aI23
aI9
aI8
aI92
aI1
aI3
aI14
aI8
aI35
aI15
aI0
aI6
aI40
aI6
aI42
aI29
aI4
assS'40'
p97
(dp98
g7
(lp99
I16
aI2
aI53
aI19
aI5
aI750
aI20
aI3
aI4
aI7
aI50
aI6
aI17
aI6
aI6
aI741
aI19
aI18
aI6
aI4
asg9
(lp100
I16
aI845
aI152
aI22
aI960
aI792
aI21
aI223
aI8
aI701
aI25
aI136
aI197
aI20
aI131
aI82
aI30
aI19
aI15
aI50
assS'15'
p101
(dp102
g7
(lp103
I8
aI8
aI6
aI9
aI29
aI7
aI8
aI23
aI70
aI8
aI8
aI7
aI8
aI9
aI7
aI8
aI27
aI6
aI7
aI7
asg9
(lp104
I2
aI30
aI5
aI44
aI42
aI18
aI2
aI3
aI52
aI7
aI36
aI1
aI35
aI39
aI29
aI26
aI856
aI0
aI75
aI5
asssS'x264_14'
p105
(dp106
S'25'
p107
(dp108
g7
(lp109
I1
aI6
aI0
aI9
aI1
aI1
aI0
aI1
aI1
aI27
aI1
aI23
aI11
aI1
aI1
aI1
aI1
aI0
aI1
aI23
asg9
(lp110
I8
aI6
aI5
aI1
aI14
aI0
aI0
aI15
aI1
aI1
aI1
aI1
aI19
aI0
aI0
aI8
aI2
aI2
aI1
aI1
assS'20'
p111
(dp112
g7
(lp113
I1
aI1
aI1
aI9
aI0
aI1
aI1
aI1
aI1
aI1
aI1
aI1
aI1
aI1
aI1
aI1
aI0
aI1
aI1
aI24
asg9
(lp114
I1
aI0
aI0
aI0
aI1
aI7
aI1
aI4
aI0
aI18
aI5
aI1
aI8
aI12
aI1
aI2
aI5
aI20
aI6
aI4
assS'10'
p115
(dp116
g7
(lp117
I8
aI1
aI10
aI1
aI1
aI1
aI1
aI1
aI1
aI1
aI1
aI1
aI1
aI1
aI1
aI1
aI10
aI1
aI1
aI1
asg9
(lp118
I1
aI5
aI1
aI2
aI2
aI6
aI2
aI4
aI1
aI4
aI1
aI2
aI4
aI3
aI14
aI0
aI1
aI2
aI8
aI0
assS'30'
p119
(dp120
g7
(lp121
I1
aI1
aI1
aI0
aI22
aI6
aI1
aI1
aI7
aI0
aI1
aI19
aI1
aI20
aI1
aI0
aI1
aI1
aI9
aI8
asg9
(lp122
I42
aI6
aI2
aI16
aI0
aI2
aI4
aI5
aI1
aI23
aI5
aI3
aI0
aI18
aI1
aI0
aI21
aI1
aI1
aI1
assS'35'
p123
(dp124
g7
(lp125
I1
aI0
aI0
aI1
aI1
aI1
aI1
aI1
aI1
aI1
aI9
aI1
aI1
aI0
aI0
aI7
aI5
aI25
aI8
aI1
asg9
(lp126
I0
aI0
aI7
aI5
aI15
aI0
aI0
aI1
aI8
aI0
aI1
aI5
aI1
aI1
aI1
aI0
aI0
aI1
aI24
aI2
assg27
(dp127
g7
(lp128
I1
aI10
aI1
aI1
aI1
aI1
aI1
aI1
aI1
aI0
aI1
aI1
aI1
aI1
aI1
aI1
aI1
aI1
aI1
aI1
asg9
(lp129
I1
aI1
aI13
aI18
aI1
aI1
aI2
aI2
aI0
aI0
aI1
aI0
aI0
aI2
aI0
aI4
aI0
aI0
aI0
aI0
assS'40'
p130
(dp131
g7
(lp132
I0
aI1
aI19
aI1
aI24
aI0
aI1
aI0
aI0
aI20
aI8
aI0
aI20
aI1
aI3
aI21
aI1
aI1
aI6
aI5
asg9
(lp133
I2
aI5
aI0
aI1
aI0
aI0
aI3
aI0
aI5
aI1
aI7
aI0
aI8
aI6
aI0
aI0
aI20
aI0
aI16
aI0
assS'15'
p134
(dp135
g7
(lp136
I0
aI1
aI1
aI1
aI1
aI1
aI1
aI1
aI1
aI0
aI1
aI1
aI26
aI1
aI1
aI1
aI1
aI1
aI1
aI9
asg9
(lp137
I1
aI14
aI8
aI1
aI20
aI0
aI5
aI35
aI2
aI10
aI15
aI4
aI1
aI0
aI0
aI0
aI1
aI1
aI0
aI9
asssS'x264_13'
p138
(dp139
S'10'
p140
(dp141
g7
(lp142
I2
aI2
aI2
aI2
aI2
aI2
aI2
aI4
aI2
aI2
aI1
aI1
aI2
aI1
aI2
aI2
aI3
aI1
aI0
aI2
asg9
(lp143
I4
aI0
aI3
aI0
aI1
aI19
aI2
aI1
aI6
aI4
aI0
aI3
aI7
aI0
aI4
aI3
aI0
aI0
aI0
aI0
assS'15'
p144
(dp145
g7
(lp146
I38
aI1
aI1
aI2
aI2
aI2
aI2
aI2
aI2
aI1
aI2
aI1
aI2
aI2
aI1
aI2
aI1
aI2
aI2
aI0
asg9
(lp147
I2
aI0
aI0
aI1
aI4
aI8
aI1
aI1
aI87
aI2
aI0
aI2
aI0
aI3
aI3
aI4
aI0
aI1
aI20
aI27
assS'25'
p148
(dp149
g7
(lp150
I2
aI1
aI1
aI1
aI2
aI2
aI1
aI1
aI3
aI2
aI3
aI2
aI1
aI2
aI0
aI2
aI1
aI1
aI1
aI2
asg9
(lp151
I1
aI0
aI1
aI37
aI0
aI0
aI19
aI0
aI0
aI4
aI3
aI1
aI0
aI0
aI180
aI0
aI0
aI3
aI0
aI0
assS'30'
p152
(dp153
g7
(lp154
I2
aI2
aI1
aI0
aI2
aI1
aI2
aI2
aI2
aI0
aI2
aI1
aI1
aI0
aI2
aI2
aI2
aI1
aI3
aI1
asg9
(lp155
I0
aI0
aI5
aI8
aI27
aI5
aI5
aI2
aI14
aI166
aI1
aI1
aI44
aI14
aI10
aI89
aI19
aI2
aI31
aI25
assS'40'
p156
(dp157
g7
(lp158
I2
aI2
aI1
aI2
aI1
aI2
aI1
aI3
aI2
aI1
aI1
aI0
aI1
aI1
aI1
aI2
aI2
aI2
aI2
aI1
asg9
(lp159
I0
aI52
aI1
aI10
aI5
aI23
aI68
aI5
aI59
aI15
aI0
aI3
aI5
aI7
aI1
aI0
aI16
aI0
aI4
aI0
assg27
(dp160
g7
(lp161
I2
aI2
aI2
aI2
aI3
aI2
aI2
aI2
aI2
aI2
aI2
aI2
aI2
aI2
aI2
aI2
aI2
aI1
aI2
aI2
asg9
(lp162
I24
aI7
aI16
aI0
aI7
aI10
aI8
aI0
aI3
aI2
aI3
aI16
aI3
aI1
aI13
aI9
aI5
aI0
aI1
aI1
assS'35'
p163
(dp164
g7
(lp165
I2
aI34
aI1
aI2
aI2
aI0
aI1
aI2
aI2
aI0
aI1
aI1
aI3
aI2
aI1
aI1
aI3
aI1
aI2
aI1
asg9
(lp166
I7
aI6
aI0
aI20
aI8
aI6
aI13
aI4
aI14
aI160
aI5
aI1
aI0
aI0
aI77
aI2
aI30
aI1
aI43
aI33
assS'20'
p167
(dp168
g7
(lp169
I2
aI2
aI1
aI2
aI2
aI1
aI3
aI1
aI0
aI2
aI2
aI2
aI2
aI2
aI1
aI2
aI2
aI2
aI2
aI2
asg9
(lp170
I2
aI23
aI3
aI1
aI0
aI2
aI1
aI0
aI1
aI7
aI0
aI0
aI5
aI3
aI0
aI2
aI0
aI4
aI0
aI7
asssS'x264_12'
p171
(dp172
S'10'
p173
(dp174
g7
(lp175
I1
aI2
aI2
aI2
aI2
aI2
aI1
aI2
aI41
aI2
aI2
aI2
aI2
aI2
aI2
aI2
aI2
aI2
aI2
aI2
asg9
(lp176
I1
aI9
aI5
aI11
aI5
aI35
aI48
aI23
aI0
aI4
aI3
aI10
aI47
aI32
aI0
aI1
aI15
aI15
aI10
aI4
assS'15'
p177
(dp178
g7
(lp179
I2
aI1
aI1
aI2
aI94
aI2
aI32
aI2
aI1
aI2
aI2
aI1
aI1
aI32
aI2
aI2
aI2
aI2
aI36
aI2
asg9
(lp180
I111
aI56
aI17
aI84
aI24
aI25
aI5
aI0
aI45
aI4
aI4
aI39
aI1
aI178
aI22
aI1
aI1
aI5
aI43
aI10
assS'25'
p181
(dp182
g7
(lp183
I2
aI1
aI2
aI2
aI2
aI2
aI2
aI34
aI1
aI2
aI30
aI2
aI2
aI2
aI28
aI2
aI32
aI2
aI2
aI1
asg9
(lp184
I0
aI46
aI17
aI0
aI14
aI44
aI5
aI114
aI35
aI32
aI35
aI8
aI38
aI40
aI30
aI119
aI10
aI6
aI2
aI1
assS'30'
p185
(dp186
g7
(lp187
I66
aI95
aI2
aI29
aI2
aI2
aI2
aI1
aI1
aI0
aI2
aI1
aI61
aI27
aI1
aI30
aI1
aI30
aI2
aI2
asg9
(lp188
I7
aI49
aI56
aI0
aI18
aI40
aI2
aI15
aI39
aI54
aI53
aI34
aI37
aI34
aI4
aI35
aI5
aI31
aI20
aI45
assS'40'
p189
(dp190
g7
(lp191
I2
aI2
aI1
aI2
aI1
aI29
aI0
aI1
aI56
aI1
aI26
aI54
aI2
aI52
aI1
aI0
aI2
aI2
aI1
aI59
asg9
(lp192
I53
aI36
aI27
aI18
aI33
aI32
aI33
aI3
aI55
aI11
aI45
aI26
aI38
aI28
aI32
aI39
aI0
aI121
aI5
aI12
assg27
(dp193
g7
(lp194
I2
aI2
aI2
aI2
aI2
aI2
aI2
aI2
aI2
aI2
aI2
aI2
aI2
aI2
aI2
aI2
aI2
aI1
aI2
aI2
asg9
(lp195
I3
aI62
aI10
aI2
aI8
aI1
aI0
aI23
aI13
aI1
aI25
aI0
aI0
aI12
aI0
aI3
aI0
aI5
aI2
aI3
assS'35'
p196
(dp197
g7
(lp198
I1
aI2
aI32
aI2
aI29
aI2
aI2
aI65
aI2
aI2
aI25
aI1
aI1
aI0
aI2
aI2
aI0
aI2
aI2
aI2
asg9
(lp199
I41
aI140
aI172
aI0
aI0
aI0
aI3
aI51
aI46
aI32
aI33
aI36
aI3
aI41
aI173
aI15
aI0
aI95
aI61
aI46
assS'20'
p200
(dp201
g7
(lp202
I33
aI2
aI2
aI36
aI1
aI1
aI36
aI29
aI2
aI1
aI2
aI33
aI1
aI1
aI2
aI33
aI2
aI2
aI1
aI1
asg9
(lp203
I37
aI35
aI41
aI38
aI8
aI4
aI22
aI12
aI0
aI93
aI0
aI38
aI19
aI9
aI114
aI37
aI5
aI63
aI38
aI10
asssS'x264_11'
p204
(dp205
S'10'
p206
(dp207
g7
(lp208
I0
aI0
aI0
aI0
aI0
aI0
aI0
aI0
aI0
aI0
aI0
aI0
aI0
aI0
aI0
aI0
aI0
aI0
aI0
aI0
asg9
(lp209
I2
aI28
aI0
aI0
aI0
aI7
aI3
aI7
aI2
aI4
aI4
aI0
aI4
aI1
aI1
aI0
aI0
aI0
aI1
aI0
assS'20'
p210
(dp211
g7
(lp212
I0
aI0
aI0
aI0
aI0
aI0
aI0
aI0
aI0
aI0
aI0
aI0
aI0
aI0
aI0
aI0
aI0
aI0
aI0
aI0
asg9
(lp213
I26
aI2
aI0
aI1
aI2
aI2
aI2
aI4
aI2
aI2
aI1
aI0
aI1
aI0
aI1
aI0
aI1
aI1
aI12
aI0
assS'25'
p214
(dp215
g7
(lp216
I0
aI0
aI0
aI0
aI0
aI0
aI0
aI0
aI0
aI0
aI0
aI0
aI0
aI0
aI0
aI0
aI0
aI0
aI0
aI0
asg9
(lp217
I0
aI1
aI1
aI30
aI2
aI2
aI0
aI4
aI52
aI0
aI2
aI0
aI34
aI2
aI0
aI1
aI0
aI1
aI4
aI1
assS'30'
p218
(dp219
g7
(lp220
I0
aI0
aI0
aI0
aI0
aI0
aI0
aI0
aI0
aI0
aI0
aI0
aI0
aI0
aI0
aI0
aI0
aI0
aI0
aI0
asg9
(lp221
I3
aI1
aI3
aI1
aI1
aI29
aI0
aI0
aI1
aI0
aI2
aI0
aI0
aI3
aI1
aI0
aI0
aI0
aI0
aI16
assS'35'
p222
(dp223
g7
(lp224
I0
aI0
aI0
aI0
aI0
aI0
aI0
aI0
aI0
aI0
aI0
aI0
aI0
aI0
aI0
aI0
aI0
aI0
aI0
aI0
asg9
(lp225
I2
aI10
aI2
aI0
aI1
aI2
aI0
aI34
aI1
aI0
aI0
aI0
aI0
aI0
aI1
aI2
aI0
aI1
aI1
aI0
assg27
(dp226
g7
(lp227
I0
aI0
aI0
aI0
aI0
aI0
aI0
aI0
aI0
aI0
aI0
aI0
aI0
aI0
aI0
aI0
aI0
aI0
aI0
aI0
asg9
(lp228
I0
aI1
aI0
aI0
aI4
aI1
aI9
aI4
aI8
aI3
aI2
aI0
aI15
aI0
aI1
aI0
aI0
aI2
aI0
aI0
assS'40'
p229
(dp230
g7
(lp231
I0
aI0
aI0
aI0
aI0
aI0
aI0
aI0
aI0
aI0
aI0
aI0
aI0
aI0
aI0
aI0
aI0
aI0
aI4
aI0
asg9
(lp232
I11
aI0
aI0
aI2
aI1
aI0
aI0
aI11
aI0
aI1
aI1
aI0
aI0
aI3
aI2
aI0
aI1
aI1
aI3
aI9
assS'15'
p233
(dp234
g7
(lp235
I0
aI0
aI0
aI0
aI0
aI0
aI0
aI0
aI0
aI0
aI0
aI0
aI0
aI0
aI0
aI0
aI0
aI0
aI0
aI0
asg9
(lp236
I0
aI3
aI2
aI2
aI0
aI5
aI5
aI7
aI0
aI4
aI1
aI1
aI1
aI0
aI29
aI5
aI1
aI0
aI2
aI0
asssS'x264_10'
p237
(dp238
S'10'
p239
(dp240
g7
(lp241
I0
aI0
aI0
aI0
aI0
aI0
aI0
aI0
aI0
aI0
aI0
aI0
aI0
aI0
aI0
aI0
aI0
aI0
aI0
aI0
asg9
(lp242
I0
aI6
aI6
aI0
aI0
aI2
aI5
aI1
aI0
aI1
aI0
aI0
aI6
aI0
aI7
aI2
aI0
aI1
aI0
aI0
assS'15'
p243
(dp244
g7
(lp245
I0
aI0
aI0
aI0
aI0
aI0
aI0
aI0
aI0
aI0
aI0
aI0
aI0
aI0
aI0
aI0
aI0
aI0
aI0
aI0
asg9
(lp246
I7
aI1
aI3
aI0
aI1
aI9
aI0
aI0
aI2
aI3
aI8
aI4
aI12
aI2
aI9
aI4
aI0
aI0
aI21
aI2
assS'25'
p247
(dp248
g7
(lp249
I0
aI0
aI0
aI0
aI0
aI0
aI0
aI0
aI0
aI0
aI0
aI0
aI0
aI0
aI0
aI0
aI0
aI0
aI0
aI0
asg9
(lp250
I0
aI1
aI0
aI0
aI0
aI0
aI3
aI0
aI5
aI0
aI1
aI6
aI1
aI3
aI6
aI3
aI0
aI2
aI0
aI0
assS'30'
p251
(dp252
g7
(lp253
I0
aI0
aI0
aI0
aI0
aI0
aI0
aI0
aI0
aI0
aI0
aI0
aI0
aI0
aI4
aI0
aI0
aI0
aI0
aI0
asg9
(lp254
I7
aI1
aI1
aI25
aI1
aI7
aI0
aI2
aI0
aI2
aI0
aI0
aI0
aI1
aI0
aI25
aI0
aI1
aI0
aI0
assS'35'
p255
(dp256
g7
(lp257
I0
aI0
aI0
aI0
aI0
aI4
aI0
aI0
aI0
aI0
aI0
aI0
aI0
aI0
aI0
aI0
aI0
aI0
aI0
aI0
asg9
(lp258
I0
aI0
aI0
aI8
aI4
aI7
aI8
aI0
aI0
aI0
aI1
aI0
aI0
aI0
aI3
aI2
aI0
aI3
aI1
aI0
assg27
(dp259
g7
(lp260
I0
aI0
aI0
aI0
aI0
aI0
aI0
aI0
aI0
aI0
aI0
aI0
aI0
aI0
aI0
aI0
aI0
aI0
aI0
aI0
asg9
(lp261
I2
aI0
aI0
aI0
aI28
aI0
aI0
aI0
aI0
aI5
aI0
aI0
aI0
aI2
aI4
aI0
aI1
aI0
aI2
aI0
assS'40'
p262
(dp263
g7
(lp264
I0
aI0
aI0
aI0
aI0
aI0
aI0
aI0
aI0
aI0
aI0
aI0
aI0
aI0
aI0
aI0
aI0
aI0
aI0
aI0
asg9
(lp265
I0
aI0
aI6
aI0
aI1
aI0
aI0
aI4
aI0
aI1
aI3
aI0
aI3
aI1
aI0
aI2
aI15
aI0
aI5
aI3
assS'20'
p266
(dp267
g7
(lp268
I0
aI0
aI0
aI0
aI0
aI0
aI0
aI0
aI0
aI0
aI0
aI0
aI0
aI0
aI0
aI0
aI0
aI0
aI0
aI0
asg9
(lp269
I0
aI0
aI3
aI35
aI1
aI0
aI1
aI1
aI1
aI0
aI0
aI1
aI4
aI3
aI1
aI0
aI0
aI6
aI0
aI3
asssS'x264_20'
p270
(dp271
S'25'
p272
(dp273
g7
(lp274
I178
aI178
aI184
aI167
aI195
aI196
aI172
aI201
aI179
aI172
aI177
aI173
aI189
aI182
aI167
aI179
aI171
aI183
aI176
aI192
asg9
(lp275
I462
aI175
aI25
aI51
aI20
aI1
aI286
aI166
aI7
aI21
aI17
aI575
aI13
aI2
aI113
aI154
aI90
aI2
aI115
aI1
assS'20'
p276
(dp277
g7
(lp278
I187
aI188
aI186
aI193
aI191
aI191
aI189
aI192
aI192
aI189
aI186
aI192
aI187
aI192
aI199
aI184
aI197
aI194
aI187
aI187
asg9
(lp279
I161
aI8
aI136
aI143
aI53
aI200
aI2
aI36
aI34
aI103
aI193
aI115
aI11
aI40
aI3
aI20
aI9
aI27
aI54
aI27
assS'10'
p280
(dp281
g7
(lp282
I221
aI215
aI213
aI215
aI207
aI217
aI214
aI211
aI208
aI208
aI217
aI213
aI216
aI212
aI220
aI241
aI214
aI210
aI213
aI214
asg9
(lp283
I253
aI1
aI156
aI93
aI16
aI54
aI19
aI33
aI27
aI2
aI79
aI1
aI40
aI53
aI2
aI64
aI119
aI2
aI65
aI0
assS'30'
p284
(dp285
g7
(lp286
I174
aI169
aI160
aI282
aI174
aI168
aI267
aI157
aI173
aI156
aI175
aI173
aI159
aI183
aI174
aI261
aI170
aI167
aI155
aI265
asg9
(lp287
I164
aI169
aI55
aI601
aI1
aI0
aI372
aI329
aI57
aI21
aI65
aI3
aI279
aI18
aI45
aI443
aI83
aI255
aI11
aI290
assS'35'
p288
(dp289
g7
(lp290
I152
aI244
aI149
aI160
aI141
aI152
aI149
aI146
aI165
aI172
aI155
aI167
aI166
aI154
aI158
aI144
aI157
aI155
aI155
aI152
asg9
(lp291
I235
aI318
aI159
aI0
aI242
aI82
aI8
aI19
aI196
aI0
aI175
aI8
aI186
aI437
aI6
aI14
aI497
aI343
aI54
aI1
assg27
(dp292
g7
(lp293
I223
aI222
aI229
aI232
aI231
aI230
aI226
aI226
aI230
aI229
aI224
aI223
aI228
aI230
aI224
aI234
aI226
aI226
aI226
aI224
asg9
(lp294
I0
aI35
aI0
aI12
aI17
aI9
aI6
aI207
aI45
aI2
aI72
aI18
aI0
aI16
aI0
aI2
aI6
aI13
aI42
aI0
assS'40'
p295
(dp296
g7
(lp297
I151
aI150
aI157
aI254
aI139
aI138
aI148
aI136
aI147
aI151
aI152
aI143
aI145
aI142
aI152
aI219
aI163
aI158
aI243
aI133
asg9
(lp298
I21
aI0
aI144
aI265
aI45
aI131
aI255
aI0
aI1
aI2
aI314
aI182
aI2
aI0
aI279
aI18
aI8
aI0
aI48
aI12
assS'15'
p299
(dp300
g7
(lp301
I202
aI220
aI198
aI232
aI196
aI200
aI219
aI211
aI208
aI201
aI225
aI207
aI200
aI219
aI199
aI203
aI212
aI209
aI200
aI213
asg9
(lp302
I86
aI61
aI4
aI12
aI26
aI20
aI35
aI0
aI12
aI116
aI4
aI253
aI34
aI34
aI7
aI31
aI2
aI41
aI2
aI26
asssS'x264_19'
p303
(dp304
S'25'
p305
(dp306
g7
(lp307
I421
aI1
aI1
aI2
aI407
aI1
aI2
aI1
aI2
aI2
aI417
aI2
aI417
aI1
aI2
aI427
aI2
aI2
aI1
aI2
asg9
(lp308
I9
aI586
aI2
aI16
aI690
aI708
aI218
aI804
aI205
aI528
aI20
aI1
aI449
aI381
aI6
aI218
aI11
aI563
aI441
aI217
assS'20'
p309
(dp310
g7
(lp311
I2
aI433
aI2
aI2
aI1
aI2
aI2
aI2
aI1
aI431
aI2
aI2
aI451
aI1
aI443
aI2
aI1
aI2
aI2
aI2
asg9
(lp312
I15
aI217
aI620
aI1
aI226
aI10
aI349
aI0
aI278
aI221
aI451
aI0
aI236
aI224
aI1
aI297
aI470
aI6
aI246
aI10
assS'10'
p313
(dp314
g7
(lp315
I2
aI2
aI2
aI2
aI2
aI2
aI1
aI2
aI2
aI1
aI2
aI2
aI2
aI2
aI2
aI1
aI2
aI2
aI2
aI2
asg9
(lp316
I9
aI3
aI188
aI5
aI261
aI59
aI258
aI25
aI0
aI59
aI144
aI8
aI113
aI68
aI13
aI646
aI10
aI89
aI5
aI275
assS'30'
p317
(dp318
g7
(lp319
I2
aI1
aI2
aI2
aI2
aI2
aI402
aI1
aI1
aI2
aI2
aI399
aI384
aI1
aI0
aI399
aI384
aI1
aI1
aI384
asg9
(lp320
I294
aI2
aI408
aI192
aI7
aI184
aI494
aI42
aI203
aI2
aI2
aI407
aI3
aI373
aI382
aI209
aI197
aI410
aI4
aI473
assS'35'
p321
(dp322
g7
(lp323
I365
aI357
aI1
aI1
aI1
aI363
aI1
aI362
aI2
aI385
aI1
aI356
aI1
aI2
aI0
aI1
aI364
aI1
aI375
aI345
asg9
(lp324
I0
aI487
aI4
aI327
aI1
aI181
aI187
aI5
aI183
aI55
aI5
aI186
aI399
aI195
aI171
aI3
aI169
aI211
aI190
aI512
assg27
(dp325
g7
(lp326
I2
aI2
aI1
aI2
aI2
aI2
aI2
aI2
aI2
aI2
aI2
aI2
aI2
aI2
aI2
aI1
aI2
aI2
aI2
aI2
asg9
(lp327
I399
aI2
aI1
aI65
aI10
aI5
aI8
aI6
aI567
aI31
aI4
aI43
aI21
aI37
aI73
aI3
aI13
aI47
aI168
aI40
assS'40'
p328
(dp329
g7
(lp330
I1
aI1
aI323
aI1
aI1
aI333
aI0
aI2
aI1
aI0
aI1
aI351
aI1
aI1
aI1
aI341
aI331
aI337
aI2
aI0
asg9
(lp331
I353
aI418
aI503
aI3
aI1
aI1
aI302
aI0
aI557
aI0
aI506
aI455
aI165
aI166
aI556
aI196
aI367
aI353
aI194
aI196
assS'15'
p332
(dp333
g7
(lp334
I2
aI2
aI2
aI1
aI471
aI2
aI2
aI2
aI2
aI2
aI2
aI2
aI1
aI1
aI2
aI1
aI460
aI2
aI2
aI2
asg9
(lp335
I15
aI247
aI49
aI19
aI1
aI247
aI644
aI263
aI699
aI6
aI242
aI430
aI239
aI233
aI14
aI241
aI348
aI285
aI1
aI259
asssS'x264_18'
p336
(dp337
S'25'
p338
(dp339
g7
(lp340
I0
aI0
aI0
aI0
aI0
aI0
aI13
aI0
aI0
aI0
aI0
aI0
aI0
aI0
aI13
aI0
aI0
aI0
aI0
aI0
asg9
(lp341
I2
aI0
aI0
aI0
aI2
aI0
aI0
aI0
aI0
aI6
aI0
aI4
aI6
aI0
aI0
aI1
aI4
aI0
aI0
aI2
assS'20'
p342
(dp343
g7
(lp344
I0
aI0
aI0
aI0
aI0
aI0
aI0
aI0
aI0
aI0
aI0
aI0
aI0
aI0
aI0
aI0
aI0
aI0
aI0
aI0
asg9
(lp345
I0
aI0
aI1
aI3
aI0
aI2
aI2
aI22
aI0
aI6
aI4
aI0
aI0
aI1
aI2
aI1
aI1
aI0
aI3
aI26
assS'10'
p346
(dp347
g7
(lp348
I0
aI0
aI0
aI2
aI0
aI0
aI0
aI0
aI0
aI0
aI0
aI0
aI0
aI0
aI0
aI0
aI0
aI0
aI0
aI0
asg9
(lp349
I1
aI0
aI0
aI22
aI1
aI3
aI0
aI0
aI1
aI2
aI0
aI0
aI0
aI9
aI0
aI1
aI1
aI1
aI0
aI1
assS'30'
p350
(dp351
g7
(lp352
I0
aI0
aI0
aI2
aI0
aI0
aI0
aI0
aI0
aI0
aI2
aI0
aI0
aI0
aI14
aI0
aI0
aI0
aI0
aI0
asg9
(lp353
I0
aI0
aI3
aI4
aI0
aI3
aI0
aI3
aI0
aI0
aI0
aI2
aI0
aI0
aI0
aI2
aI6
aI3
aI3
aI3
assS'35'
p354
(dp355
g7
(lp356
I0
aI0
aI0
aI0
aI0
aI0
aI0
aI0
aI0
aI0
aI0
aI0
aI0
aI0
aI0
aI0
aI0
aI0
aI0
aI0
asg9
(lp357
I7
aI5
aI1
aI1
aI1
aI0
aI1
aI1
aI0
aI0
aI0
aI1
aI0
aI1
aI1
aI1
aI2
aI0
aI8
aI0
assg27
(dp358
g7
(lp359
I0
aI0
aI0
aI0
aI0
aI0
aI0
aI0
aI0
aI0
aI0
aI0
aI0
aI0
aI0
aI0
aI0
aI0
aI0
aI0
asg9
(lp360
I5
aI0
aI2
aI0
aI1
aI1
aI2
aI5
aI0
aI0
aI4
aI10
aI2
aI1
aI2
aI0
aI6
aI1
aI6
aI0
assS'40'
p361
(dp362
g7
(lp363
I9
aI0
aI0
aI0
aI0
aI0
aI2
aI0
aI0
aI0
aI0
aI0
aI0
aI0
aI0
aI0
aI1
aI0
aI0
aI0
asg9
(lp364
I0
aI1
aI1
aI1
aI7
aI1
aI0
aI1
aI0
aI0
aI0
aI1
aI4
aI1
aI0
aI0
aI3
aI0
aI0
aI2
assS'15'
p365
(dp366
g7
(lp367
I0
aI0
aI0
aI0
aI0
aI0
aI0
aI0
aI0
aI0
aI0
aI0
aI0
aI0
aI0
aI0
aI0
aI0
aI0
aI0
asg9
(lp368
I0
aI0
aI2
aI0
aI1
aI2
aI0
aI6
aI1
aI1
aI1
aI2
aI0
aI3
aI1
aI0
aI0
aI2
aI0
aI2
asssS'x264_7'
p369
(dp370
S'25'
p371
(dp372
g7
(lp373
I0
aI0
aI1
aI0
aI1
aI0
aI0
aI0
aI0
aI1
aI0
aI0
aI0
aI0
aI0
aI1
aI1
aI0
aI0
aI0
asg9
(lp374
I1
aI6
aI3
aI2
aI1
aI1
aI2
aI5
aI0
aI0
aI0
aI0
aI0
aI14
aI0
aI0
aI0
aI0
aI1
aI0
assS'20'
p375
(dp376
g7
(lp377
I0
aI0
aI0
aI0
aI0
aI0
aI0
aI0
aI0
aI0
aI0
aI0
aI0
aI0
aI0
aI0
aI0
aI0
aI0
aI0
asg9
(lp378
I3
aI23
aI4
aI0
aI1
aI0
aI3
aI0
aI2
aI0
aI3
aI31
aI0
aI0
aI0
aI0
aI0
aI6
aI3
aI3
assS'10'
p379
(dp380
g7
(lp381
I0
aI0
aI0
aI0
aI0
aI0
aI0
aI0
aI0
aI0
aI0
aI0
aI0
aI0
aI0
aI0
aI0
aI0
aI0
aI0
asg9
(lp382
I10
aI3
aI7
aI4
aI1
aI15
aI2
aI1
aI3
aI0
aI0
aI9
aI8
aI1
aI1
aI0
aI2
aI5
aI3
aI8
assS'30'
p383
(dp384
g7
(lp385
I0
aI0
aI0
aI0
aI0
aI0
aI0
aI0
aI0
aI0
aI1
aI0
aI0
aI1
aI0
aI0
aI0
aI0
aI0
aI1
asg9
(lp386
I2
aI0
aI1
aI0
aI2
aI4
aI5
aI17
aI2
aI2
aI0
aI1
aI1
aI1
aI0
aI1
aI1
aI0
aI1
aI0
assS'35'
p387
(dp388
g7
(lp389
I0
aI0
aI0
aI0
aI0
aI0
aI0
aI0
aI0
aI0
aI0
aI0
aI0
aI0
aI0
aI0
aI0
aI0
aI0
aI0
asg9
(lp390
I2
aI3
aI0
aI6
aI1
aI4
aI0
aI7
aI2
aI3
aI4
aI2
aI0
aI0
aI0
aI2
aI0
aI0
aI1
aI4
assg27
(dp391
g7
(lp392
I0
aI0
aI0
aI0
aI0
aI0
aI0
aI0
aI0
aI0
aI0
aI0
aI0
aI0
aI0
aI0
aI0
aI0
aI0
aI0
asg9
(lp393
I1
aI16
aI7
aI0
aI3
aI22
aI13
aI7
aI0
aI10
aI0
aI1
aI0
aI39
aI0
aI0
aI0
aI0
aI5
aI0
assS'40'
p394
(dp395
g7
(lp396
I0
aI0
aI1
aI0
aI1
aI0
aI0
aI0
aI0
aI0
aI0
aI1
aI0
aI0
aI0
aI0
aI0
aI1
aI0
aI0
asg9
(lp397
I0
aI0
aI0
aI0
aI1
aI1
aI2
aI1
aI0
aI2
aI2
aI0
aI0
aI2
aI0
aI1
aI1
aI1
aI0
aI4
assS'15'
p398
(dp399
g7
(lp400
I0
aI0
aI0
aI0
aI0
aI0
aI0
aI0
aI1
aI0
aI0
aI0
aI0
aI0
aI0
aI0
aI0
aI0
aI0
aI1
asg9
(lp401
I0
aI5
aI6
aI14
aI1
aI4
aI0
aI2
aI0
aI2
aI0
aI4
aI0
aI0
aI2
aI1
aI0
aI0
aI0
aI0
asssS'x264_6'
p402
(dp403
S'25'
p404
(dp405
g7
(lp406
I0
aI3
aI0
aI0
aI0
aI0
aI0
aI0
aI0
aI0
aI0
aI0
aI0
aI0
aI0
aI0
aI0
aI0
aI0
aI0
asg9
(lp407
I1
aI0
aI3
aI0
aI3
aI2
aI7
aI2
aI1
aI26
aI1
aI3
aI13
aI0
aI1
aI1
aI3
aI8
aI3
aI3
assS'20'
p408
(dp409
g7
(lp410
I0
aI0
aI0
aI4
aI0
aI0
aI0
aI0
aI0
aI0
aI0
aI0
aI0
aI0
aI0
aI0
aI0
aI0
aI0
aI0
asg9
(lp411
I2
aI2
aI1
aI13
aI1
aI14
aI0
aI0
aI2
aI7
aI1
aI0
aI6
aI5
aI1
aI0
aI0
aI0
aI0
aI4
assS'10'
p412
(dp413
g7
(lp414
I0
aI0
aI0
aI0
aI0
aI0
aI0
aI0
aI0
aI0
aI0
aI0
aI0
aI0
aI0
aI0
aI0
aI0
aI0
aI0
asg9
(lp415
I0
aI2
aI2
aI4
aI16
aI2
aI7
aI1
aI0
aI2
aI0
aI1
aI1
aI19
aI2
aI0
aI3
aI3
aI2
aI1
assS'30'
p416
(dp417
g7
(lp418
I0
aI0
aI0
aI0
aI0
aI0
aI0
aI0
aI0
aI0
aI0
aI0
aI14
aI0
aI0
aI0
aI0
aI0
aI0
aI0
asg9
(lp419
I1
aI7
aI4
aI22
aI1
aI1
aI3
aI0
aI1
aI0
aI4
aI9
aI11
aI0
aI1
aI0
aI4
aI1
aI0
aI0
assS'35'
p420
(dp421
g7
(lp422
I0
aI0
aI0
aI0
aI0
aI3
aI4
aI0
aI0
aI0
aI0
aI0
aI0
aI0
aI0
aI0
aI0
aI0
aI4
aI0
asg9
(lp423
I8
aI3
aI0
aI10
aI0
aI0
aI1
aI2
aI2
aI1
aI5
aI5
aI6
aI0
aI1
aI3
aI6
aI0
aI10
aI7
assg27
(dp424
g7
(lp425
I0
aI0
aI0
aI0
aI0
aI0
aI0
aI0
aI0
aI0
aI0
aI0
aI0
aI0
aI0
aI0
aI0
aI0
aI0
aI0
asg9
(lp426
I0
aI0
aI11
aI0
aI18
aI6
aI2
aI0
aI3
aI1
aI31
aI5
aI26
aI2
aI2
aI14
aI6
aI6
aI0
aI3
assS'40'
p427
(dp428
g7
(lp429
I3
aI0
aI5
aI0
aI0
aI1
aI0
aI4
aI0
aI0
aI0
aI0
aI0
aI0
aI2
aI0
aI0
aI0
aI0
aI0
asg9
(lp430
I0
aI1
aI6
aI3
aI1
aI0
aI0
aI6
aI8
aI0
aI9
aI2
aI1
aI10
aI0
aI2
aI0
aI1
aI0
aI0
assS'15'
p431
(dp432
g7
(lp433
I0
aI0
aI0
aI0
aI0
aI0
aI0
aI0
aI0
aI0
aI0
aI0
aI0
aI0
aI0
aI0
aI0
aI0
aI0
aI0
asg9
(lp434
I9
aI0
aI5
aI0
aI0
aI1
aI0
aI7
aI0
aI0
aI1
aI15
aI1
aI0
aI4
aI1
aI13
aI1
aI8
aI4
asssS'x264_5'
p435
(dp436
S'25'
p437
(dp438
g7
(lp439
I0
aI0
aI27
aI1
aI2
aI2
aI1
aI1
aI1
aI1
aI0
aI1
aI0
aI1
aI0
aI1
aI0
aI1
aI0
aI1
asg9
(lp440
I1
aI0
aI1
aI1
aI0
aI0
aI0
aI0
aI1
aI0
aI9
aI0
aI1
aI0
aI0
aI9
aI0
aI0
aI35
aI0
assS'15'
p441
(dp442
g7
(lp443
I1
aI1
aI1
aI1
aI0
aI1
aI0
aI1
aI1
aI1
aI1
aI1
aI1
aI1
aI1
aI1
aI1
aI1
aI0
aI0
asg9
(lp444
I5
aI2
aI28
aI3
aI0
aI3
aI8
aI15
aI0
aI0
aI0
aI1
aI1
aI1
aI1
aI5
aI0
aI0
aI0
aI0
assS'10'
p445
(dp446
g7
(lp447
I1
aI1
aI1
aI1
aI1
aI2
aI1
aI1
aI1
aI1
aI1
aI1
aI1
aI1
aI0
aI2
aI1
aI1
aI1
aI1
asg9
(lp448
I1
aI0
aI1
aI0
aI0
aI2
aI5
aI2
aI5
aI1
aI0
aI0
aI0
aI1
aI0
aI1
aI11
aI0
aI0
aI3
assS'30'
p449
(dp450
g7
(lp451
I1
aI1
aI0
aI0
aI1
aI0
aI1
aI1
aI1
aI31
aI1
aI1
aI2
aI0
aI2
aI1
aI1
aI1
aI1
aI1
asg9
(lp452
I1
aI0
aI0
aI1
aI0
aI0
aI5
aI0
aI0
aI0
aI3
aI0
aI2
aI0
aI2
aI1
aI0
aI0
aI0
aI0
assS'40'
p453
(dp454
g7
(lp455
I1
aI19
aI0
aI1
aI1
aI1
aI0
aI0
aI0
aI0
aI0
aI0
aI0
aI1
aI1
aI20
aI1
aI1
aI1
aI1
asg9
(lp456
I2
aI0
aI0
aI0
aI1
aI10
aI1
aI0
aI0
aI0
aI0
aI7
aI2
aI0
aI2
aI0
aI2
aI0
aI48
aI3
assg27
(dp457
g7
(lp458
I1
aI1
aI1
aI1
aI1
aI1
aI1
aI1
aI1
aI1
aI1
aI0
aI1
aI1
aI1
aI1
aI1
aI1
aI1
aI1
asg9
(lp459
I1
aI0
aI1
aI8
aI8
aI0
aI0
aI8
aI36
aI0
aI1
aI1
aI0
aI0
aI0
aI1
aI0
aI12
aI8
aI2
assS'35'
p460
(dp461
g7
(lp462
I2
aI0
aI31
aI2
aI0
aI25
aI0
aI1
aI2
aI26
aI1
aI1
aI1
aI1
aI0
aI1
aI1
aI1
aI29
aI0
asg9
(lp463
I0
aI0
aI3
aI4
aI0
aI0
aI1
aI0
aI3
aI1
aI1
aI1
aI1
aI0
aI3
aI0
aI0
aI0
aI32
aI6
assS'20'
p464
(dp465
g7
(lp466
I2
aI0
aI0
aI1
aI1
aI2
aI1
aI2
aI1
aI28
aI1
aI1
aI1
aI1
aI1
aI1
aI1
aI1
aI1
aI1
asg9
(lp467
I0
aI1
aI0
aI0
aI1
aI4
aI1
aI0
aI0
aI1
aI2
aI0
aI3
aI1
aI8
aI14
aI1
aI1
aI0
aI3
asssS'x264_4'
p468
(dp469
S'25'
p470
(dp471
g7
(lp472
I6
aI6
aI6
aI13
aI4
aI2
aI6
aI3
aI2
aI5
aI3
aI2
aI3
aI5
aI5
aI6
aI4
aI4
aI4
aI13
asg9
(lp473
I1
aI0
aI10
aI0
aI6
aI0
aI2
aI0
aI4
aI0
aI1
aI0
aI3
aI0
aI0
aI3
aI0
aI5
aI5
aI7
assS'15'
p474
(dp475
g7
(lp476
I5
aI5
aI6
aI6
aI4
aI4
aI5
aI4
aI5
aI3
aI6
aI4
aI6
aI4
aI6
aI4
aI5
aI6
aI5
aI5
asg9
(lp477
I0
aI3
aI2
aI3
aI0
aI4
aI9
aI3
aI0
aI2
aI0
aI4
aI2
aI0
aI0
aI1
aI2
aI11
aI0
aI1
assS'10'
p478
(dp479
g7
(lp480
I6
aI5
aI6
aI5
aI5
aI6
aI6
aI5
aI5
aI5
aI6
aI6
aI6
aI6
aI16
aI6
aI4
aI6
aI5
aI6
asg9
(lp481
I2
aI2
aI4
aI0
aI0
aI5
aI15
aI1
aI9
aI7
aI0
aI7
aI1
aI11
aI0
aI4
aI4
aI0
aI0
aI6
assS'30'
p482
(dp483
g7
(lp484
I5
aI5
aI5
aI13
aI6
aI5
aI3
aI5
aI46
aI6
aI15
aI5
aI6
aI6
aI3
aI4
aI4
aI4
aI4
aI5
asg9
(lp485
I3
aI0
aI0
aI1
aI0
aI2
aI0
aI0
aI1
aI1
aI9
aI4
aI5
aI10
aI0
aI1
aI0
aI2
aI2
aI0
assS'40'
p486
(dp487
g7
(lp488
I5
aI4
aI3
aI5
aI2
aI4
aI14
aI4
aI4
aI4
aI2
aI4
aI35
aI3
aI4
aI3
aI2
aI3
aI10
aI4
asg9
(lp489
I3
aI1
aI3
aI0
aI4
aI1
aI9
aI0
aI0
aI1
aI2
aI0
aI0
aI0
aI4
aI0
aI1
aI1
aI1
aI0
assg27
(dp490
g7
(lp491
I6
aI5
aI5
aI5
aI6
aI6
aI6
aI6
aI6
aI5
aI5
aI6
aI5
aI6
aI6
aI5
aI6
aI6
aI6
aI6
asg9
(lp492
I33
aI0
aI0
aI5
aI0
aI1
aI4
aI3
aI0
aI0
aI0
aI0
aI3
aI2
aI3
aI3
aI0
aI2
aI21
aI3
assS'35'
p493
(dp494
g7
(lp495
I5
aI3
aI4
aI5
aI4
aI3
aI5
aI3
aI11
aI2
aI4
aI3
aI3
aI3
aI4
aI14
aI4
aI5
aI4
aI5
asg9
(lp496
I5
aI3
aI0
aI0
aI3
aI1
aI0
aI0
aI0
aI0
aI4
aI0
aI2
aI10
aI1
aI0
aI0
aI0
aI1
aI2
assS'20'
p497
(dp498
g7
(lp499
I3
aI6
aI5
aI4
aI5
aI3
aI4
aI5
aI5
aI5
aI4
aI6
aI6
aI4
aI5
aI6
aI4
aI5
aI4
aI5
asg9
(lp500
I3
aI0
aI2
aI8
aI2
aI0
aI0
aI1
aI0
aI2
aI7
aI0
aI2
aI1
aI0
aI6
aI1
aI0
aI4
aI0
asssS'x264_3'
p501
(dp502
S'25'
p503
(dp504
g7
(lp505
I3
aI4
aI2
aI2
aI5
aI2
aI5
aI2
aI3
aI2
aI3
aI1
aI2
aI3
aI2
aI3
aI3
aI2
aI1
aI2
asg9
(lp506
I0
aI6
aI0
aI0
aI2
aI1
aI19
aI0
aI1
aI4
aI0
aI0
aI0
aI26
aI2
aI1
aI3
aI1
aI3
aI0
assS'20'
p507
(dp508
g7
(lp509
I2
aI3
aI3
aI3
aI2
aI1
aI3
aI2
aI1
aI5
aI3
aI3
aI3
aI3
aI3
aI2
aI3
aI2
aI2
aI1
asg9
(lp510
I3
aI1
aI0
aI14
aI2
aI0
aI1
aI5
aI0
aI11
aI0
aI8
aI1
aI2
aI5
aI28
aI17
aI3
aI2
aI1
assS'10'
p511
(dp512
g7
(lp513
I3
aI3
aI3
aI3
aI3
aI3
aI4
aI3
aI1
aI3
aI4
aI2
aI3
aI3
aI3
aI3
aI4
aI3
aI2
aI2
asg9
(lp514
I2
aI8
aI6
aI14
aI0
aI0
aI4
aI2
aI0
aI12
aI1
aI0
aI0
aI0
aI0
aI10
aI6
aI11
aI0
aI0
assS'30'
p515
(dp516
g7
(lp517
I2
aI5
aI3
aI3
aI2
aI2
aI3
aI3
aI1
aI3
aI3
aI3
aI3
aI4
aI2
aI4
aI5
aI2
aI2
aI3
asg9
(lp518
I0
aI2
aI0
aI1
aI2
aI0
aI3
aI2
aI0
aI8
aI1
aI0
aI0
aI1
aI0
aI6
aI3
aI2
aI2
aI1
assS'35'
p519
(dp520
g7
(lp521
I3
aI1
aI2
aI2
aI2
aI3
aI1
aI1
aI2
aI2
aI3
aI3
aI3
aI3
aI2
aI3
aI1
aI3
aI3
aI4
asg9
(lp522
I1
aI0
aI0
aI2
aI0
aI0
aI1
aI1
aI0
aI0
aI2
aI7
aI7
aI1
aI2
aI2
aI2
aI23
aI1
aI1
assg27
(dp523
g7
(lp524
I3
aI3
aI3
aI5
aI3
aI3
aI3
aI3
aI3
aI3
aI3
aI3
aI3
aI3
aI2
aI3
aI2
aI3
aI3
aI3
asg9
(lp525
I0
aI9
aI5
aI7
aI3
aI6
aI4
aI0
aI9
aI3
aI0
aI8
aI4
aI0
aI7
aI6
aI0
aI6
aI7
aI1
assS'40'
p526
(dp527
g7
(lp528
I3
aI1
aI1
aI3
aI1
aI5
aI3
aI2
aI2
aI1
aI2
aI1
aI2
aI3
aI4
aI5
aI2
aI2
aI4
aI1
asg9
(lp529
I0
aI0
aI0
aI0
aI4
aI0
aI0
aI2
aI0
aI0
aI0
aI0
aI0
aI0
aI8
aI0
aI2
aI0
aI5
aI0
assS'15'
p530
(dp531
g7
(lp532
I2
aI3
aI2
aI4
aI3
aI2
aI5
aI2
aI3
aI5
aI3
aI3
aI4
aI3
aI3
aI5
aI3
aI3
aI2
aI1
asg9
(lp533
I0
aI0
aI11
aI14
aI0
aI0
aI6
aI10
aI0
aI10
aI1
aI2
aI14
aI0
aI0
aI7
aI10
aI4
aI0
aI2
asssS'x264_2'
p534
(dp535
S'25'
p536
(dp537
g7
(lp538
I1
aI1
aI1
aI1
aI0
aI0
aI1
aI1
aI1
aI0
aI3
aI1
aI1
aI1
aI1
aI34
aI3
aI1
aI1
aI3
asg9
(lp539
I0
aI1
aI0
aI1
aI12
aI0
aI1
aI3
aI1
aI13
aI1
aI0
aI1
aI1
aI0
aI0
aI1
aI3
aI10
aI0
assS'20'
p540
(dp541
g7
(lp542
I0
aI1
aI1
aI30
aI39
aI1
aI40
aI3
aI1
aI1
aI0
aI1
aI1
aI0
aI4
aI1
aI2
aI0
aI1
aI35
asg9
(lp543
I13
aI8
aI8
aI2
aI2
aI3
aI2
aI15
aI1
aI0
aI0
aI3
aI1
aI1
aI0
aI1
aI1
aI5
aI10
aI1
assS'10'
p544
(dp545
g7
(lp546
I1
aI3
aI1
aI1
aI1
aI3
aI1
aI1
aI1
aI0
aI1
aI0
aI1
aI1
aI1
aI1
aI1
aI1
aI1
aI1
asg9
(lp547
I13
aI18
aI14
aI8
aI1
aI3
aI1
aI1
aI16
aI4
aI0
aI2
aI3
aI0
aI8
aI0
aI1
aI8
aI1
aI5
assS'30'
p548
(dp549
g7
(lp550
I3
aI1
aI1
aI1
aI0
aI1
aI57
aI1
aI1
aI1
aI1
aI1
aI0
aI1
aI0
aI1
aI0
aI0
aI1
aI1
asg9
(lp551
I28
aI1
aI0
aI1
aI2
aI0
aI28
aI6
aI1
aI0
aI0
aI4
aI0
aI1
aI0
aI0
aI7
aI9
aI0
aI1
assS'35'
p552
(dp553
g7
(lp554
I1
aI1
aI3
aI2
aI1
aI0
aI2
aI0
aI3
aI1
aI1
aI0
aI28
aI1
aI2
aI1
aI1
aI1
aI1
aI1
asg9
(lp555
I0
aI1
aI10
aI0
aI0
aI0
aI4
aI0
aI1
aI1
aI0
aI0
aI11
aI1
aI0
aI4
aI2
aI1
aI1
aI2
assg27
(dp556
g7
(lp557
I1
aI4
aI1
aI1
aI1
aI1
aI1
aI1
aI1
aI1
aI1
aI1
aI1
aI1
aI1
aI0
aI1
aI1
aI1
aI1
asg9
(lp558
I1
aI0
aI10
aI15
aI1
aI7
aI1
aI1
aI10
aI1
aI1
aI13
aI1
aI1
aI3
aI1
aI10
aI6
aI0
aI0
assS'40'
p559
(dp560
g7
(lp561
I1
aI1
aI1
aI3
aI1
aI1
aI1
aI1
aI0
aI1
aI0
aI0
aI0
aI23
aI21
aI0
aI26
aI23
aI1
aI2
asg9
(lp562
I2
aI0
aI1
aI4
aI1
aI1
aI0
aI3
aI0
aI1
aI4
aI0
aI11
aI2
aI24
aI0
aI1
aI1
aI0
aI0
assS'15'
p563
(dp564
g7
(lp565
I1
aI1
aI1
aI3
aI1
aI1
aI1
aI1
aI4
aI1
aI1
aI1
aI0
aI3
aI0
aI1
aI1
aI1
aI1
aI1
asg9
(lp566
I0
aI11
aI0
aI2
aI3
aI0
aI8
aI1
aI2
aI0
aI0
aI1
aI0
aI1
aI0
aI8
aI0
aI6
aI1
aI0
asssS'x264_1'
p567
(dp568
S'10'
p569
(dp570
g7
(lp571
I0
aI0
aI0
aI0
aI0
aI9
aI0
aI0
aI0
aI0
aI0
aI0
aI0
aI7
aI0
aI0
aI0
aI0
aI0
aI7
asg9
(lp572
I0
aI0
aI0
aI1
aI6
aI56
aI9
aI2
aI0
aI5
aI5
aI0
aI1
aI6
aI0
aI12
aI2
aI19
aI2
aI3
assS'15'
p573
(dp574
g7
(lp575
I0
aI0
aI0
aI0
aI0
aI0
aI0
aI9
aI0
aI40
aI0
aI9
aI0
aI0
aI0
aI0
aI8
aI10
aI0
aI0
asg9
(lp576
I0
aI6
aI0
aI0
aI20
aI9
aI2
aI1
aI0
aI0
aI2
aI8
aI0
aI2
aI2
aI2
aI0
aI0
aI0
aI0
assS'25'
p577
(dp578
g7
(lp579
I0
aI0
aI0
aI6
aI0
aI6
aI0
aI0
aI9
aI0
aI9
aI0
aI8
aI0
aI0
aI0
aI0
aI9
aI5
aI8
asg9
(lp580
I6
aI4
aI5
aI3
aI0
aI0
aI0
aI0
aI6
aI2
aI0
aI0
aI0
aI2
aI4
aI0
aI3
aI1
aI6
aI0
assS'30'
p581
(dp582
g7
(lp583
I32
aI0
aI0
aI0
aI0
aI0
aI0
aI0
aI0
aI7
aI9
aI0
aI0
aI0
aI0
aI0
aI0
aI6
aI0
aI0
asg9
(lp584
I8
aI0
aI6
aI0
aI2
aI0
aI5
aI2
aI2
aI6
aI7
aI0
aI0
aI11
aI0
aI0
aI3
aI4
aI6
aI0
assS'40'
p585
(dp586
g7
(lp587
I0
aI8
aI1
aI6
aI0
aI0
aI0
aI0
aI26
aI0
aI0
aI0
aI0
aI0
aI0
aI0
aI0
aI29
aI0
aI5
asg9
(lp588
I0
aI1
aI3
aI3
aI0
aI8
aI0
aI8
aI0
aI2
aI0
aI2
aI0
aI1
aI2
aI0
aI7
aI5
aI2
aI4
assg27
(dp589
g7
(lp590
I0
aI0
aI0
aI0
aI0
aI0
aI0
aI0
aI0
aI0
aI0
aI0
aI0
aI0
aI0
aI0
aI0
aI0
aI0
aI0
asg9
(lp591
I5
aI0
aI0
aI1
aI0
aI0
aI5
aI0
aI0
aI16
aI2
aI0
aI6
aI2
aI5
aI0
aI0
aI0
aI2
aI2
assS'35'
p592
(dp593
g7
(lp594
I0
aI7
aI0
aI0
aI0
aI0
aI0
aI0
aI0
aI5
aI0
aI70
aI0
aI0
aI0
aI0
aI33
aI0
aI0
aI0
asg9
(lp595
I4
aI5
aI2
aI10
aI6
aI0
aI0
aI1
aI2
aI1
aI2
aI0
aI3
aI0
aI2
aI0
aI5
aI0
aI2
aI10
assS'20'
p596
(dp597
g7
(lp598
I0
aI0
aI0
aI0
aI0
aI0
aI0
aI6
aI0
aI0
aI0
aI8
aI0
aI0
aI0
aI41
aI0
aI0
aI0
aI0
asg9
(lp599
I0
aI12
aI2
aI31
aI5
aI6
aI0
aI0
aI2
aI2
aI6
aI3
aI0
aI0
aI10
aI1
aI14
aI3
aI2
aI0
asssS'x264_0'
p600
(dp601
S'10'
p602
(dp603
g7
(lp604
I1
aI1
aI1
aI1
aI1
aI1
aI0
aI1
aI1
aI1
aI1
aI1
aI1
aI1
aI1
aI1
aI1
aI1
aI1
aI1
asg9
(lp605
I5
aI0
aI8
aI3
aI1
aI0
aI0
aI3
aI2
aI4
aI12
aI0
aI0
aI0
aI13
aI3
aI0
aI1
aI32
aI6
assS'15'
p606
(dp607
g7
(lp608
I1
aI1
aI1
aI1
aI8
aI7
aI0
aI1
aI1
aI1
aI1
aI1
aI1
aI4
aI8
aI1
aI1
aI0
aI1
aI1
asg9
(lp609
I5
aI23
aI0
aI0
aI5
aI1
aI3
aI5
aI0
aI4
aI4
aI0
aI5
aI1
aI0
aI0
aI4
aI1
aI1
aI4
assS'25'
p610
(dp611
g7
(lp612
I1
aI7
aI1
aI7
aI13
aI6
aI7
aI0
aI1
aI1
aI6
aI0
aI1
aI0
aI1
aI1
aI1
aI5
aI1
aI1
asg9
(lp613
I4
aI7
aI2
aI0
aI0
aI7
aI1
aI0
aI0
aI0
aI0
aI1
aI0
aI1
aI6
aI33
aI12
aI0
aI0
aI3
assS'30'
p614
(dp615
g7
(lp616
I6
aI9
aI1
aI1
aI1
aI1
aI0
aI0
aI1
aI1
aI19
aI4
aI1
aI1
aI1
aI31
aI9
aI0
aI1
aI6
asg9
(lp617
I1
aI1
aI1
aI4
aI9
aI1
aI0
aI0
aI5
aI0
aI0
aI4
aI0
aI4
aI4
aI10
aI1
aI6
aI0
aI1
assS'40'
p618
(dp619
g7
(lp620
I1
aI1
aI5
aI3
aI23
aI6
aI1
aI5
aI5
aI6
aI4
aI0
aI1
aI4
aI5
aI0
aI0
aI0
aI9
aI0
asg9
(lp621
I17
aI1
aI4
aI2
aI0
aI5
aI9
aI0
aI0
aI2
aI3
aI0
aI1
aI0
aI5
aI3
aI1
aI5
aI0
aI0
assg27
(dp622
g7
(lp623
I1
aI1
aI1
aI1
aI1
aI1
aI1
aI1
aI1
aI1
aI1
aI1
aI1
aI1
aI1
aI1
aI1
aI0
aI7
aI1
asg9
(lp624
I18
aI0
aI5
aI0
aI3
aI14
aI0
aI6
aI1
aI0
aI0
aI2
aI0
aI0
aI0
aI5
aI1
aI3
aI1
aI3
assS'35'
p625
(dp626
g7
(lp627
I8
aI7
aI3
aI6
aI8
aI1
aI6
aI10
aI5
aI0
aI1
aI0
aI6
aI1
aI0
aI1
aI0
aI1
aI1
aI7
asg9
(lp628
I0
aI2
aI1
aI1
aI1
aI0
aI5
aI0
aI5
aI3
aI0
aI1
aI0
aI0
aI0
aI7
aI1
aI0
aI0
aI1
assS'20'
p629
(dp630
g7
(lp631
I1
aI1
aI1
aI4
aI1
aI1
aI7
aI1
aI1
aI1
aI1
aI7
aI5
aI1
aI1
aI6
aI1
aI0
aI1
aI7
asg9
(lp632
I11
aI0
aI0
aI0
aI1
aI0
aI1
aI1
aI0
aI5
aI20
aI1
aI0
aI0
aI2
aI4
aI1
aI2
aI0
aI1
asssS'x264_8'
p633
(dp634
S'25'
p635
(dp636
g7
(lp637
I0
aI0
aI0
aI0
aI0
aI0
aI0
aI0
aI0
aI0
aI0
aI0
aI0
aI0
aI0
aI0
aI0
aI0
aI0
aI0
asg9
(lp638
I0
aI0
aI0
aI0
aI4
aI5
aI3
aI2
aI8
aI0
aI4
aI0
aI5
aI7
aI0
aI0
aI2
aI2
aI79
aI0
assS'15'
p639
(dp640
g7
(lp641
I0
aI0
aI0
aI0
aI0
aI0
aI0
aI0
aI0
aI0
aI0
aI0
aI0
aI0
aI0
aI0
aI0
aI0
aI0
aI0
asg9
(lp642
I14
aI12
aI5
aI2
aI1
aI3
aI2
aI1
aI0
aI27
aI0
aI0
aI3
aI17
aI0
aI3
aI4
aI4
aI3
aI0
assS'10'
p643
(dp644
g7
(lp645
I0
aI0
aI0
aI0
aI0
aI0
aI0
aI0
aI0
aI0
aI0
aI0
aI0
aI0
aI0
aI0
aI0
aI0
aI0
aI0
asg9
(lp646
I0
aI0
aI7
aI2
aI3
aI2
aI9
aI0
aI0
aI0
aI0
aI11
aI2
aI28
aI2
aI9
aI10
aI0
aI0
aI2
assS'30'
p647
(dp648
g7
(lp649
I0
aI0
aI0
aI0
aI0
aI0
aI0
aI0
aI0
aI0
aI0
aI0
aI0
aI0
aI0
aI0
aI0
aI0
aI0
aI0
asg9
(lp650
I4
aI0
aI4
aI2
aI2
aI0
aI2
aI3
aI1
aI4
aI21
aI6
aI9
aI4
aI4
aI3
aI2
aI0
aI5
aI0
assS'35'
p651
(dp652
g7
(lp653
I0
aI0
aI0
aI0
aI0
aI0
aI0
aI0
aI0
aI0
aI0
aI0
aI0
aI0
aI16
aI0
aI0
aI0
aI0
aI0
asg9
(lp654
I0
aI0
aI5
aI1
aI0
aI9
aI0
aI20
aI0
aI33
aI19
aI2
aI2
aI0
aI0
aI3
aI1
aI1
aI3
aI5
assg27
(dp655
g7
(lp656
I0
aI0
aI0
aI0
aI0
aI0
aI0
aI0
aI0
aI0
aI0
aI0
aI0
aI0
aI0
aI0
aI0
aI0
aI0
aI0
asg9
(lp657
I0
aI1
aI0
aI9
aI0
aI0
aI5
aI0
aI4
aI2
aI24
aI0
aI0
aI0
aI3
aI0
aI2
aI3
aI4
aI2
assS'40'
p658
(dp659
g7
(lp660
I11
aI0
aI0
aI0
aI0
aI12
aI0
aI0
aI0
aI0
aI0
aI0
aI0
aI0
aI0
aI0
aI0
aI0
aI0
aI0
asg9
(lp661
I29
aI6
aI1
aI0
aI1
aI0
aI0
aI9
aI8
aI3
aI0
aI1
aI0
aI6
aI1
aI10
aI0
aI1
aI0
aI0
assS'20'
p662
(dp663
g7
(lp664
I0
aI0
aI0
aI0
aI0
aI0
aI0
aI0
aI0
aI0
aI0
aI0
aI0
aI0
aI0
aI0
aI0
aI0
aI0
aI0
asg9
(lp665
I1
aI1
aI2
aI3
aI1
aI4
aI0
aI0
aI3
aI0
aI1
aI4
aI15
aI13
aI1
aI1
aI16
aI8
aI31
aI1
assss.