(dp0
S'sqlite'
p1
(dp2
S'../Data/sqlite_14.csv'
p3
(lp4
S'SQLITE_OMIT_QUICKBALANCE'
p5
aS'SQLITE_OMIT_SHARED_CACHE'
p6
asS'../Data/sqlite_70.csv'
p7
(lp8
S'SQLITE_OMIT_QUICKBALANCE'
p9
aS'SQLITE_OMIT_LOOKASIDE'
p10
asS'../Data/sqlite_19.csv'
p11
(lp12
S'SQLITE_OMIT_QUICKBALANCE'
p13
aS'SQLITE_OMIT_LOOKASIDE'
p14
asS'../Data/sqlite_59.csv'
p15
(lp16
S'SQLITE_OMIT_QUICKBALANCE'
p17
aS'SQLITE_DISABLE_LFS'
p18
asS'../Data/sqlite_49.csv'
p19
(lp20
S'SQLITE_OMIT_QUICKBALANCE'
p21
aS'SQLITE_OMIT_LIKE_OPTIMIZATION'
p22
asS'../Data/sqlite_50.csv'
p23
(lp24
S'SQLITE_OMIT_LOOKASIDE'
p25
aS'SQLITE_OMIT_QUICKBALANCE'
p26
asS'../Data/sqlite_46.csv'
p27
(lp28
S'SQLITE_OMIT_QUICKBALANCE'
p29
aS'SQLITE_OMIT_XFER_OPT'
p30
asS'../Data/sqlite_3.csv'
p31
(lp32
S'SQLITE_OMIT_QUICKBALANCE'
p33
aS'SQLITE_OMIT_LIKE_OPTIMIZATION'
p34
asS'../Data/sqlite_16.csv'
p35
(lp36
S'SQLITE_OMIT_QUICKBALANCE'
p37
aS'SQLITE_OMIT_LOOKASIDE'
p38
asS'../Data/sqlite_33.csv'
p39
(lp40
S'SQLITE_OMIT_LOOKASIDE'
p41
aS'SQLITE_OMIT_QUICKBALANCE'
p42
asS'../Data/sqlite_7.csv'
p43
(lp44
S'SQLITE_OMIT_QUICKBALANCE'
p45
aS'SQLITE_OMIT_OR_OPTIMIZATION'
p46
asS'../Data/sqlite_2.csv'
p47
(lp48
S'SQLITE_OMIT_QUICKBALANCE'
p49
aS'SQLITE_OMIT_LOOKASIDE'
p50
asS'../Data/sqlite_17.csv'
p51
(lp52
S'SQLITE_OMIT_QUICKBALANCE'
p53
aS'SQLITE_ENABLE_STAT2'
p54
assS'spear'
p55
(dp56
S'../Data/spear_7.csv'
p57
(lp58
S'spset-old-default'
p59
aS'spset-hw-bmc'
p60
asS'../Data/spear_4.csv'
p61
(lp62
S'spset-old-default'
p63
aS'spset-hw-bmc'
p64
asS'../Data/spear_3.csv'
p65
(lp66
S'spset-old-default'
p67
aS'spset-autotuned-fh_1_0'
p68
asS'../Data/spear_1.csv'
p69
(lp70
S'spset-old-default'
p71
aS'spset-hw-bmc'
p72
asS'../Data/spear_5.csv'
p73
(lp74
S'spset-old-default'
p75
aS'spset-hw-bmc'
p76
asS'../Data/spear_0.csv'
p77
(lp78
S'spset-old-default'
p79
aS'spset-hw-bmc'
p80
asS'../Data/spear_9.csv'
p81
(lp82
S'spset-old-default'
p83
aS'sp-orig-clause-sort-heur'
p84
asS'../Data/spear_2.csv'
p85
(lp86
S'spset-old-default'
p87
aS'spset-hw-bmc'
p88
asS'../Data/spear_8.csv'
p89
(lp90
S'spset-old-default'
p91
aS'spset-sw-verif'
p92
asS'../Data/spear_6.csv'
p93
(lp94
S'spset-old-default'
p95
aS'spset-hw-bmc'
p96
assS'sac'
p97
(dp98
S'../Data/sac_9.csv'
p99
(lp100
S'cf'
p101
aS'msca'
p102
asS'../Data/sac_4.csv'
p103
(lp104
S'dcr'
p105
aS'cf'
p106
asS'../Data/sac_8.csv'
p107
(lp108
S'cf'
p109
aS'dcr'
p110
asS'../Data/sac_5.csv'
p111
(lp112
S'cf'
p113
aS'uip'
p114
asS'../Data/sac_6.csv'
p115
(lp116
S'uip'
p117
aS'cf'
p118
asS'../Data/sac_7.csv'
p119
(lp120
S'uip'
p121
aS'cf'
p122
assS'storm-obj2'
p123
(dp124
S'../Data/storm-obj2_feature6.csv'
p125
(lp126
S'topology.max.spout.pending'
p127
aS'message.size'
p128
asS'../Data/storm-obj2_feature8.csv'
p129
(lp130
S'topology.max.spout.pending'
p131
aS'component.spout_num'
p132
asS'../Data/storm-obj2_feature7.csv'
p133
(lp134
S'topology.max.spout.pending'
p135
aS'component.spout_num'
p136
asS'../Data/storm-obj2_feature9.csv'
p137
(lp138
S'topology.max.spout.pending'
p139
aS'component.spout_num'
p140
assS'storm-obj1'
p141
(dp142
S'../Data/storm-obj1_feature6.csv'
p143
(lp144
S'message.size'
p145
aS'topology.max.spout.pending'
p146
asS'../Data/storm-obj1_feature8.csv'
p147
(lp148
S'topology.max.spout.pending'
p149
aS'topology.workers'
p150
asS'../Data/storm-obj1_feature7.csv'
p151
(lp152
S'message.size'
p153
aS'component.spout_num'
p154
asS'../Data/storm-obj1_feature9.csv'
p155
(lp156
S'component.spout_num'
p157
aS'topology.max.spout.pending'
p158
assS'x264'
p159
(dp160
S'../Data/x264_11.csv'
p161
(lp162
S'no-asm'
p163
aS'no-mixed-refs'
p164
asS'../Data/x264_4.csv'
p165
(lp166
S'no-mixed-refs'
p167
aS'no-mbtree'
p168
asS'../Data/x264_18.csv'
p169
(lp170
S'no-scenecut'
p171
aS'no-mixed-refs'
p172
asS'../Data/x264_7.csv'
p173
(lp174
S'no-asm'
p175
aS'no-mixed-refs'
p176
asS'../Data/x264_12.csv'
p177
(lp178
S'no-scenecut'
p179
aS'no-mixed-refs'
p180
asS'../Data/x264_19.csv'
p181
(lp182
S'no-mixed-refs'
p183
aS'non-deterministic'
p184
asS'../Data/x264_20.csv'
p185
(lp186
S'no-mixed-refs'
p187
aS'no-8x8dct'
p188
asS'../Data/x264_9.csv'
p189
(lp190
S'no-asm'
p191
aS'no-scenecut'
p192
asS'../Data/x264_15.csv'
p193
(lp194
S'no-scenecut'
p195
aS'dts-compress'
p196
asS'../Data/x264_0.csv'
p197
(lp198
S'no-scenecut'
p199
aS'no-mbtree'
p200
asS'../Data/x264_17.csv'
p201
(lp202
S'no-mixed-refs'
p203
aS'no-8x8dct'
p204
asS'../Data/x264_2.csv'
p205
(lp206
S'no-mixed-refs'
p207
aS'no-mbtree'
p208
asS'../Data/x264_16.csv'
p209
(lp210
S'no-mixed-refs'
p211
aS'no-mbtree'
p212
asS'../Data/x264_13.csv'
p213
(lp214
S'no-mixed-refs'
p215
aS'no-mbtree'
p216
asS'../Data/x264_6.csv'
p217
(lp218
S'no-asm'
p219
aS'no-scenecut'
p220
asS'../Data/x264_8.csv'
p221
(lp222
S'no-asm'
p223
aS'no-mixed-refs'
p224
asS'../Data/x264_3.csv'
p225
(lp226
S'no-scenecut'
p227
aS'no-mixed-refs'
p228
asS'../Data/x264_1.csv'
p229
(lp230
S'no-mixed-refs'
p231
aS'no-mbtree'
p232
asS'../Data/x264_14.csv'
p233
(lp234
S'no-mixed-refs'
p235
aS'no-8x8dct'
p236
asS'../Data/x264_5.csv'
p237
(lp238
S'no-mixed-refs'
p239
aS'no-mbtree'
p240
asS'../Data/x264_10.csv'
p241
(lp242
S'no-asm'
p243
aS'no-mbtree'
p244
ass.