(dp0
S'sqlite'
p1
(dp2
S'../Data/sqlite_14.csv'
p3
(lp4
S'f11'
p5
asS'../Data/sqlite_70.csv'
p6
(lp7
S'f11'
p8
asS'../Data/sqlite_19.csv'
p9
(lp10
S'f11'
p11
asS'../Data/sqlite_59.csv'
p12
(lp13
S'f11'
p14
asS'../Data/sqlite_49.csv'
p15
(lp16
S'f11'
p17
asS'../Data/sqlite_50.csv'
p18
(lp19
S'f9'
p20
asS'../Data/sqlite_46.csv'
p21
(lp22
S'f11'
p23
asS'../Data/sqlite_3.csv'
p24
(lp25
S'f11'
p26
asS'../Data/sqlite_16.csv'
p27
(lp28
S'f11'
p29
asS'../Data/sqlite_33.csv'
p30
(lp31
S'f9'
p32
asS'../Data/sqlite_7.csv'
p33
(lp34
S'f11'
p35
asS'../Data/sqlite_2.csv'
p36
(lp37
S'f11'
p38
asS'../Data/sqlite_17.csv'
p39
(lp40
S'f11'
p41
assS'spear'
p42
(dp43
S'../Data/spear_7.csv'
p44
(lp45
S'f0'
p46
asS'../Data/spear_4.csv'
p47
(lp48
S'f0'
p49
asS'../Data/spear_3.csv'
p50
(lp51
S'f0'
p52
asS'../Data/spear_1.csv'
p53
(lp54
S'f0'
p55
asS'../Data/spear_5.csv'
p56
(lp57
S'f0'
p58
asS'../Data/spear_0.csv'
p59
(lp60
S'f0'
p61
asS'../Data/spear_9.csv'
p62
(lp63
S'f0'
p64
asS'../Data/spear_2.csv'
p65
(lp66
S'f0'
p67
asS'../Data/spear_8.csv'
p68
(lp69
S'f0'
p70
asS'../Data/spear_6.csv'
p71
(lp72
S'f0'
p73
assS'sac'
p74
(dp75
S'../Data/sac_9.csv'
p76
(lp77
S'f24'
p78
asS'../Data/sac_4.csv'
p79
(lp80
S'f2'
p81
asS'../Data/sac_8.csv'
p82
(lp83
S'f2'
p84
asS'../Data/sac_5.csv'
p85
(lp86
S'f16'
p87
asS'../Data/sac_6.csv'
p88
(lp89
S'f16'
p90
asS'../Data/sac_7.csv'
p91
(lp92
S'f16'
p93
assS'storm-obj2'
p94
(dp95
S'../Data/storm-obj2_feature6.csv'
p96
(lp97
S'f6'
p98
asS'../Data/storm-obj2_feature8.csv'
p99
(lp100
S'f6'
p101
asS'../Data/storm-obj2_feature7.csv'
p102
(lp103
S'f6'
p104
asS'../Data/storm-obj2_feature9.csv'
p105
(lp106
S'f6'
p107
assS'storm-obj1'
p108
(dp109
S'../Data/storm-obj1_feature6.csv'
p110
(lp111
S'f3'
p112
asS'../Data/storm-obj1_feature8.csv'
p113
(lp114
S'f0'
p115
asS'../Data/storm-obj1_feature7.csv'
p116
(lp117
S'f6'
p118
asS'../Data/storm-obj1_feature9.csv'
p119
(lp120
S'f4'
p121
assS'x264'
p122
(dp123
S'../Data/x264_11.csv'
p124
(lp125
S'f1'
p126
asS'../Data/x264_4.csv'
p127
(lp128
S'f2'
p129
asS'../Data/x264_18.csv'
p130
(lp131
S'f7'
p132
asS'../Data/x264_7.csv'
p133
(lp134
S'f1'
p135
asS'../Data/x264_12.csv'
p136
(lp137
S'f7'
p138
asS'../Data/x264_19.csv'
p139
(lp140
S'f2'
p141
asS'../Data/x264_20.csv'
p142
(lp143
S'f2'
p144
asS'../Data/x264_9.csv'
p145
(lp146
S'f1'
p147
asS'../Data/x264_15.csv'
p148
(lp149
S'f7'
p150
asS'../Data/x264_0.csv'
p151
(lp152
S'f7'
p153
asS'../Data/x264_17.csv'
p154
(lp155
S'f2'
p156
asS'../Data/x264_2.csv'
p157
(lp158
S'f2'
p159
asS'../Data/x264_16.csv'
p160
(lp161
S'f2'
p162
asS'../Data/x264_13.csv'
p163
(lp164
S'f2'
p165
asS'../Data/x264_6.csv'
p166
(lp167
S'f1'
p168
asS'../Data/x264_8.csv'
p169
(lp170
S'f1'
p171
asS'../Data/x264_3.csv'
p172
(lp173
S'f7'
p174
asS'../Data/x264_1.csv'
p175
(lp176
S'f2'
p177
asS'../Data/x264_14.csv'
p178
(lp179
S'f2'
p180
asS'../Data/x264_5.csv'
p181
(lp182
S'f2'
p183
asS'../Data/x264_10.csv'
p184
(lp185
S'f1'
p186
ass.