(dp0
S'../Data/spear_0.csv'
p1
(dp2
S'../Data/spear_6.csv'
p3
(dp4
S'mmre'
p5
(lp6
cnumpy.core.multiarray
scalar
p7
(cnumpy
dtype
p8
(S'f8'
p9
I0
I1
tp10
Rp11
(I3
S'<'
p12
NNNI-1
I-1
I0
tp13
bS'j\xfa\xd1\x8d\x1fwE@'
p14
tp15
Rp16
ag7
(g11
S'\xf5\x19<\x88\x1dwE@'
p17
tp18
Rp19
ag7
(g11
S'\x88\xa3\xa8E!wE@'
p20
tp21
Rp22
ag7
(g11
S'\xcaX\xf3\xdd\twE@'
p23
tp24
Rp25
ag7
(g11
S'\x0f#\xe1\x92-wE@'
p26
tp27
Rp28
ag7
(g11
S'\xffmN\xbf\nwE@'
p29
tp30
Rp31
ag7
(g11
S'\xf5+\xed\x08\xf3vE@'
p32
tp33
Rp34
ag7
(g11
S'\xd8G_\xd7\xf4vE@'
p35
tp36
Rp37
ag7
(g11
S'a\xae\xb3C#wE@'
p38
tp39
Rp40
ag7
(g11
S'.\xea\x83@%wE@'
p41
tp42
Rp43
ag7
(g11
S'$h\x86\xc4\x14wE@'
p44
tp45
Rp46
ag7
(g11
S'\xa1\xe1\x1d\x90\x06wE@'
p47
tp48
Rp49
ag7
(g11
S',y\x9aZ\x19wE@'
p50
tp51
Rp52
ag7
(g11
S'TH\x9e\x0e\x1cwE@'
p53
tp54
Rp55
ag7
(g11
S'T\x9eH1)wE@'
p56
tp57
Rp58
ag7
(g11
S'7\x83\xb0v\x14wE@'
p59
tp60
Rp61
ag7
(g11
S't\xf3w\xf5\x07wE@'
p62
tp63
Rp64
ag7
(g11
S'\xe4t\x95\x06\x03wE@'
p65
tp66
Rp67
ag7
(g11
S'\x1a\xfcI\xa3\x18wE@'
p68
tp69
Rp70
ag7
(g11
S'\xf1\xc6\xfb\xde&wE@'
p71
tp72
Rp73
ag7
(g11
S'\xf9\xca\xd3p\xf7vE@'
p74
tp75
Rp76
ag7
(g11
S'H\xe8\xfe\xaf\xe9vE@'
p77
tp78
Rp79
ag7
(g11
S'\xb3\xe6\x90\x1e&wE@'
p80
tp81
Rp82
ag7
(g11
S'\xc1\x9d`4\x1dwE@'
p83
tp84
Rp85
ag7
(g11
S'\xa5\xc3i\xfe\x12wE@'
p86
tp87
Rp88
ag7
(g11
S'\x88\xdb\xf2\x02\xedvE@'
p89
tp90
Rp91
ag7
(g11
S'\\\xa8\x18\x18\x04wE@'
p92
tp93
Rp94
ag7
(g11
S'Ua\n\xfb\xe9vE@'
p95
tp96
Rp97
ag7
(g11
S'x\x87V\xbcAwE@'
p98
tp99
Rp100
ag7
(g11
S'%+\x10&\x08wE@'
p101
tp102
Rp103
asss.