(dp0
S'../Data/spear_6.csv'
p1
(dp2
S'../Data/spear_2.csv'
p3
(dp4
S'rank'
p5
(lp6
I94
aI94
aI94
aI94
aI94
aI94
aI94
aI94
aI94
aI94
aI94
aI94
aI94
aI94
aI94
aI94
aI94
aI94
aI94
aI94
aI94
aI94
aI94
aI94
aI94
aI94
aI94
aI94
aI94
aI94
asss.