(dp0
S'../Data/spear_9.csv'
p1
(dp2
S'../Data/spear_6.csv'
p3
(dp4
S'mmre'
p5
(lp6
cnumpy.core.multiarray
scalar
p7
(cnumpy
dtype
p8
(S'f8'
p9
I0
I1
tp10
Rp11
(I3
S'<'
p12
NNNI-1
I-1
I0
tp13
bS'\x8c&\xa4fz6G@'
p14
tp15
Rp16
ag7
(g11
S'\xb3j\x80Kx6G@'
p17
tp18
Rp19
ag7
(g11
S'\xd1\r3\xeax6G@'
p20
tp21
Rp22
ag7
(g11
S'\xfbY\x86\xedw6G@'
p23
tp24
Rp25
ag7
(g11
S'\xaf\x0cz\x08u6G@'
p26
tp27
Rp28
ag7
(g11
S'\x1e(O(:6G@'
p29
tp30
Rp31
ag7
(g11
S'\xea3\x10T86G@'
p32
tp33
Rp34
ag7
(g11
S'\x18\xb3\xc9\xe046G@'
p35
tp36
Rp37
ag7
(g11
S'_\r[\xf966G@'
p38
tp39
Rp40
ag7
(g11
S'~\x99,\x8d86G@'
p41
tp42
Rp43
ag7
(g11
S'k:X\x9796G@'
p44
tp45
Rp46
ag7
(g11
S'\x06\x0f=\xcau6G@'
p47
tp48
Rp49
ag7
(g11
S',\xe3\xc9/y6G@'
p50
tp51
Rp52
ag7
(g11
S'\x8b\x85\x05\x0c96G@'
p53
tp54
Rp55
ag7
(g11
S'\xb6\xae\xd5\x95x6G@'
p56
tp57
Rp58
ag7
(g11
S'\xb6\x80M856G@'
p59
tp60
Rp61
ag7
(g11
S'g\xbayxz6G@'
p62
tp63
Rp64
ag7
(g11
S'\xa2 \xad\x8966G@'
p65
tp66
Rp67
ag7
(g11
S'\xeb\x1b1\x87\x806G@'
p68
tp69
Rp70
ag7
(g11
S'\xc4\xa1\x85\x06w6G@'
p71
tp72
Rp73
ag7
(g11
S'M\xe8R\xd836G@'
p74
tp75
Rp76
ag7
(g11
S'\xa4\xcb\xd3s46G@'
p77
tp78
Rp79
ag7
(g11
S' Uc~;6G@'
p80
tp81
Rp82
ag7
(g11
S'\xca\xd5\xf7\xd386G@'
p83
tp84
Rp85
ag7
(g11
S'\x88\x82[\x03v6G@'
p86
tp87
Rp88
ag7
(g11
S'4\xef\x18\xca86G@'
p89
tp90
Rp91
ag7
(g11
S'\x19\x82\xb1\xd8w6G@'
p92
tp93
Rp94
ag7
(g11
S'l\x84mO{6G@'
p95
tp96
Rp97
ag7
(g11
S'\x9d\x98\x9b\xbcv6G@'
p98
tp99
Rp100
ag7
(g11
S'\xd4\xe8\xd0\\v6G@'
p101
tp102
Rp103
asss.