(dp0
S'../Data/spear_7.csv'
p1
(dp2
S'../Data/spear_0.csv'
p3
(dp4
S'abs_res'
p5
(lp6
cnumpy.core.multiarray
scalar
p7
(cnumpy
dtype
p8
(S'f8'
p9
I0
I1
tp10
Rp11
(I3
S'<'
p12
NNNI-1
I-1
I0
tp13
bS'\xf4\xab_\x19Djp@'
p14
tp15
Rp16
ag7
(g11
S'\xd9Q\xdcJDjp@'
p17
tp18
Rp19
ag7
(g11
S']\x8fKBEjp@'
p20
tp21
Rp22
ag7
(g11
S'\x99CR\xdfDjp@'
p23
tp24
Rp25
ag7
(g11
S'\xa9\x9d\xd5\xadDjp@'
p26
tp27
Rp28
ag7
(g11
S'\xa7\x9d\xd5\xadDjp@'
p29
tp30
Rp31
ag7
(g11
S'\x1d`f\xb6Cjp@'
p32
tp33
Rp34
ag7
(g11
S'\xf7\xab_\x19Djp@'
p35
tp36
Rp37
ag7
(g11
S'\xe1Q\xdcJDjp@'
p38
tp39
Rp40
ag7
(g11
S'\x0b\x06\xe3\xe7Cjp@'
p41
tp42
Rp43
ag7
(g11
S't\xe9\xce\x10Ejp@'
p44
tp45
Rp46
ag7
(g11
S'\xab\x9d\xd5\xadDjp@'
p47
tp48
Rp49
ag7
(g11
S'\xddQ\xdcJDjp@'
p50
tp51
Rp52
ag7
(g11
S'\x1f`f\xb6Cjp@'
p53
tp54
Rp55
ag7
(g11
S'r\xe9\xce\x10Ejp@'
p56
tp57
Rp58
ag7
(g11
S'\xbe\xf7X|Djp@'
p59
tp60
Rp61
ag7
(g11
S'\n\x06\xe3\xe7Cjp@'
p62
tp63
Rp64
ag7
(g11
S'\xef\xab_\x19Djp@'
p65
tp66
Rp67
ag7
(g11
S'\xdaQ\xdcJDjp@'
p68
tp69
Rp70
ag7
(g11
S'\x96CR\xdfDjp@'
p71
tp72
Rp73
ag7
(g11
S'\x8dCR\xdfDjp@'
p74
tp75
Rp76
ag7
(g11
S'\xe0Q\xdcJDjp@'
p77
tp78
Rp79
ag7
(g11
S'\xe0Q\xdcJDjp@'
p80
tp81
Rp82
ag7
(g11
S'\xd7Q\xdcJDjp@'
p83
tp84
Rp85
ag7
(g11
S'\x8fCR\xdfDjp@'
p86
tp87
Rp88
ag7
(g11
S'\xed\xab_\x19Djp@'
p89
tp90
Rp91
ag7
(g11
S'\xf4\xab_\x19Djp@'
p92
tp93
Rp94
ag7
(g11
S'\xbf\xf7X|Djp@'
p95
tp96
Rp97
ag7
(g11
S'\x87CR\xdfDjp@'
p98
tp99
Rp100
ag7
(g11
S'\xb8\xf7X|Djp@'
p101
tp102
Rp103
asss.