(dp0
S'../Data/spear_7.csv'
p1
(dp2
S'../Data/spear_4.csv'
p3
(dp4
S'mmre'
p5
(lp6
cnumpy.core.multiarray
scalar
p7
(cnumpy
dtype
p8
(S'f8'
p9
I0
I1
tp10
Rp11
(I3
S'<'
p12
NNNI-1
I-1
I0
tp13
bS'21\xb1"/TN@'
p14
tp15
Rp16
ag7
(g11
S'j\x7f\x0b\xfe2TN@'
p17
tp18
Rp19
ag7
(g11
S'\x10\xb6\xb1\xc8bTN@'
p20
tp21
Rp22
ag7
(g11
S'\xab(}\xfd\x11TN@'
p23
tp24
Rp25
ag7
(g11
S'\xf1\x86\x18\xf1cTN@'
p26
tp27
Rp28
ag7
(g11
S'M\xf0x\xd9*TN@'
p29
tp30
Rp31
ag7
(g11
S'\x19DQ\xe1+TN@'
p32
tp33
Rp34
ag7
(g11
S'\x1d\x1f\xb3\xe6\x1bTN@'
p35
tp36
Rp37
ag7
(g11
S'$\x97\xf2\xba4TN@'
p38
tp39
Rp40
ag7
(g11
S'\xe2\x9d(S[TN@'
p41
tp42
Rp43
ag7
(g11
S'!\x815N]TN@'
p44
tp45
Rp46
ag7
(g11
S'>i\x90\xaa\x18TN@'
p47
tp48
Rp49
ag7
(g11
S'\x9e\xf1;\x06]TN@'
p50
tp51
Rp52
ag7
(g11
S'\x84|)\xd1,TN@'
p53
tp54
Rp55
ag7
(g11
S'\x9d\xc2\xf2\x124TN@'
p56
tp57
Rp58
ag7
(g11
S'\x18\x91\x01\xe3*TN@'
p59
tp60
Rp61
ag7
(g11
S'\\/\x00;\x14TN@'
p62
tp63
Rp64
ag7
(g11
S'\xba\xd3\xee\xc4+TN@'
p65
tp66
Rp67
ag7
(g11
S'\xb82;\xc1*TN@'
p68
tp69
Rp70
ag7
(g11
S'\xe9\x88\x1e\x13+TN@'
p71
tp72
Rp73
ag7
(g11
S'\xc63\xcc\xe6\x13TN@'
p74
tp75
Rp76
ag7
(g11
S'\xe8\xac\x03\xb6.TN@'
p77
tp78
Rp79
ag7
(g11
S'$\x92xL*TN@'
p80
tp81
Rp82
ag7
(g11
S'\x04\xc5\x9b,]TN@'
p83
tp84
Rp85
ag7
(g11
S'*\x97\t*6TN@'
p86
tp87
Rp88
ag7
(g11
S'\xfb\xf4\x07\xeb;TN@'
p89
tp90
Rp91
ag7
(g11
S'\xaf\xe7\x9a\x00-TN@'
p92
tp93
Rp94
ag7
(g11
S'\x92(`s4TN@'
p95
tp96
Rp97
ag7
(g11
S'd\x96\xc3\x1a-TN@'
p98
tp99
Rp100
ag7
(g11
S'CZ\xa5\xf9\\TN@'
p101
tp102
Rp103
asss.