(dp0
S'../Data/spear_5.csv'
p1
(dp2
S'../Data/spear_0.csv'
p3
(dp4
S'mmre'
p5
(lp6
cnumpy.core.multiarray
scalar
p7
(cnumpy
dtype
p8
(S'f8'
p9
I0
I1
tp10
Rp11
(I3
S'<'
p12
NNNI-1
I-1
I0
tp13
bS']\x9cn\x98\\3b@'
p14
tp15
Rp16
ag7
(g11
S'\xf9\xe1\xc7\xc8b3b@'
p17
tp18
Rp19
ag7
(g11
S'\xe0\\\xa2~]3b@'
p20
tp21
Rp22
ag7
(g11
S'9\xf79\xe9b3b@'
p23
tp24
Rp25
ag7
(g11
S'\xedu^\xc2^3b@'
p26
tp27
Rp28
ag7
(g11
S'DGy=V3b@'
p29
tp30
Rp31
ag7
(g11
S'\xbf\x9b$R^3b@'
p32
tp33
Rp34
ag7
(g11
S'O\xe7ClW3b@'
p35
tp36
Rp37
ag7
(g11
S'\n,\x1f\x10]3b@'
p38
tp39
Rp40
ag7
(g11
S'\x90\xc3\x84Y]3b@'
p41
tp42
Rp43
ag7
(g11
S'\x8f\xb7jhd3b@'
p44
tp45
Rp46
ag7
(g11
S'\xf4\xf0o\x86c3b@'
p47
tp48
Rp49
ag7
(g11
S'\xe6+!\x0e]3b@'
p50
tp51
Rp52
ag7
(g11
S'\xd6>\x19\x85c3b@'
p53
tp54
Rp55
ag7
(g11
S'3\xda\xb6\xa2c3b@'
p56
tp57
Rp58
ag7
(g11
S'\xe4\x9a\x8d\xd4V3b@'
p59
tp60
Rp61
ag7
(g11
S'\xd2\xb5\xcb\xd9c3b@'
p62
tp63
Rp64
ag7
(g11
S'\x01\x91\x89NV3b@'
p65
tp66
Rp67
ag7
(g11
S'O\x13x]]3b@'
p68
tp69
Rp70
ag7
(g11
S'\x80\xae\x10>^3b@'
p71
tp72
Rp73
ag7
(g11
S'\x00\xbb)w\\3b@'
p74
tp75
Rp76
ag7
(g11
S'\x1d\x0b\x02i[3b@'
p77
tp78
Rp79
ag7
(g11
S'87j\x01_3b@'
p80
tp81
Rp82
ag7
(g11
S'\xa2>\xc2}\\3b@'
p83
tp84
Rp85
ag7
(g11
S't\x05(\x98b3b@'
p86
tp87
Rp88
ag7
(g11
S'\x0f\x8c\xa9_W3b@'
p89
tp90
Rp91
ag7
(g11
S'"\xe6\xa9\xfd]3b@'
p92
tp93
Rp94
ag7
(g11
S'S\x1dVQd3b@'
p95
tp96
Rp97
ag7
(g11
S'\xc2\xaec\x81^3b@'
p98
tp99
Rp100
ag7
(g11
S'{\x81\xf9u^3b@'
p101
tp102
Rp103
asss.