(dp0
S'../Data/spear_4.csv'
p1
(dp2
S'../Data/spear_3.csv'
p3
(dp4
S'rank'
p5
(lp6
I7180
aI7180
aI7180
aI7180
aI7180
aI7180
aI7180
aI7180
aI7180
aI7180
aI7180
aI7180
aI7180
aI7180
aI7180
aI7180
aI7180
aI7180
aI7180
aI7180
aI7180
aI7180
aI7180
aI7180
aI7180
aI7180
aI7180
aI7180
aI7180
aI7180
asss.