(dp0
S'../Data/spear_1.csv'
p1
(dp2
S'../Data/spear_5.csv'
p3
(dp4
S'rank'
p5
(lp6
I12
aI12
aI12
aI12
aI12
aI12
aI12
aI12
aI12
aI12
aI12
aI12
aI12
aI12
aI12
aI12
aI12
aI12
aI12
aI12
aI12
aI12
aI12
aI12
aI12
aI12
aI12
aI12
aI12
aI12
asss.