(dp0
S'../Data/spear_3.csv'
p1
(dp2
S'../Data/spear_8.csv'
p3
(dp4
S'abs_res'
p5
(lp6
cnumpy.core.multiarray
scalar
p7
(cnumpy
dtype
p8
(S'f8'
p9
I0
I1
tp10
Rp11
(I3
S'<'
p12
NNNI-1
I-1
I0
tp13
bS'\xff33s\xbf\n\xaf@'
p14
tp15
Rp16
ag7
(g11
S'\xff33s\xbf\n\xaf@'
p17
tp18
Rp19
ag7
(g11
S'\xfd33s\xbf\n\xaf@'
p20
tp21
Rp22
ag7
(g11
S'\xfd33s\xbf\n\xaf@'
p23
tp24
Rp25
ag7
(g11
S'\xff33s\xbf\n\xaf@'
p26
tp27
Rp28
ag7
(g11
S'\xfd33s\xbf\n\xaf@'
p29
tp30
Rp31
ag7
(g11
S'\xff33s\xbf\n\xaf@'
p32
tp33
Rp34
ag7
(g11
S'\xfd33s\xbf\n\xaf@'
p35
tp36
Rp37
ag7
(g11
S'\xff33s\xbf\n\xaf@'
p38
tp39
Rp40
ag7
(g11
S'\xff33s\xbf\n\xaf@'
p41
tp42
Rp43
ag7
(g11
S'\xff33s\xbf\n\xaf@'
p44
tp45
Rp46
ag7
(g11
S'\xff33s\xbf\n\xaf@'
p47
tp48
Rp49
ag7
(g11
S'\xff33s\xbf\n\xaf@'
p50
tp51
Rp52
ag7
(g11
S'\xff33s\xbf\n\xaf@'
p53
tp54
Rp55
ag7
(g11
S'\xfc33s\xbf\n\xaf@'
p56
tp57
Rp58
ag7
(g11
S'\xff33s\xbf\n\xaf@'
p59
tp60
Rp61
ag7
(g11
S'\xff33s\xbf\n\xaf@'
p62
tp63
Rp64
ag7
(g11
S'\xff33s\xbf\n\xaf@'
p65
tp66
Rp67
ag7
(g11
S'\xfd33s\xbf\n\xaf@'
p68
tp69
Rp70
ag7
(g11
S'\x0343s\xbf\n\xaf@'
p71
tp72
Rp73
asss.