(dp0
S'../Data/spear_2.csv'
p1
(dp2
S'../Data/spear_3.csv'
p3
(dp4
S'abs_res'
p5
(lp6
cnumpy.core.multiarray
scalar
p7
(cnumpy
dtype
p8
(S'f8'
p9
I0
I1
tp10
Rp11
(I3
S'<'
p12
NNNI-1
I-1
I0
tp13
bS'i\x99m\x96L\xeau@'
p14
tp15
Rp16
ag7
(g11
S'u\x99m\x96L\xeau@'
p17
tp18
Rp19
ag7
(g11
S'u\x99m\x96L\xeau@'
p20
tp21
Rp22
ag7
(g11
S'n\x99m\x96L\xeau@'
p23
tp24
Rp25
ag7
(g11
S'm\x99m\x96L\xeau@'
p26
tp27
Rp28
ag7
(g11
S't\x99m\x96L\xeau@'
p29
tp30
Rp31
ag7
(g11
S'r\x99m\x96L\xeau@'
p32
tp33
Rp34
ag7
(g11
S'k\x99m\x96L\xeau@'
p35
tp36
Rp37
ag7
(g11
S'w\x99m\x96L\xeau@'
p38
tp39
Rp40
ag7
(g11
S's\x99m\x96L\xeau@'
p41
tp42
Rp43
ag7
(g11
S'j\x99m\x96L\xeau@'
p44
tp45
Rp46
ag7
(g11
S'v\x99m\x96L\xeau@'
p47
tp48
Rp49
ag7
(g11
S'i\x99m\x96L\xeau@'
p50
tp51
Rp52
ag7
(g11
S'y\x99m\x96L\xeau@'
p53
tp54
Rp55
ag7
(g11
S'r\x99m\x96L\xeau@'
p56
tp57
Rp58
ag7
(g11
S'r\x99m\x96L\xeau@'
p59
tp60
Rp61
ag7
(g11
S'r\x99m\x96L\xeau@'
p62
tp63
Rp64
ag7
(g11
S'o\x99m\x96L\xeau@'
p65
tp66
Rp67
ag7
(g11
S'h\x99m\x96L\xeau@'
p68
tp69
Rp70
ag7
(g11
S'i\x99m\x96L\xeau@'
p71
tp72
Rp73
ag7
(g11
S'p\x99m\x96L\xeau@'
p74
tp75
Rp76
ag7
(g11
S'k\x99m\x96L\xeau@'
p77
tp78
Rp79
ag7
(g11
S'|\x99m\x96L\xeau@'
p80
tp81
Rp82
ag7
(g11
S'h\x99m\x96L\xeau@'
p83
tp84
Rp85
ag7
(g11
S'|\x99m\x96L\xeau@'
p86
tp87
Rp88
ag7
(g11
S'n\x99m\x96L\xeau@'
p89
tp90
Rp91
ag7
(g11
S'm\x99m\x96L\xeau@'
p92
tp93
Rp94
ag7
(g11
S'm\x99m\x96L\xeau@'
p95
tp96
Rp97
ag7
(g11
S'q\x99m\x96L\xeau@'
p98
tp99
Rp100
ag7
(g11
S'l\x99m\x96L\xeau@'
p101
tp102
Rp103
asss.