(dp0
S'../Data/spear_9.csv'
p1
(dp2
S'../Data/spear_0.csv'
p3
(dp4
S'mmre'
p5
(lp6
cnumpy.core.multiarray
scalar
p7
(cnumpy
dtype
p8
(S'f8'
p9
I0
I1
tp10
Rp11
(I3
S'<'
p12
NNNI-1
I-1
I0
tp13
bS';\xd0z\xefshW@'
p14
tp15
Rp16
ag7
(g11
S'\x99W\xd5\x87thW@'
p17
tp18
Rp19
ag7
(g11
S'\xf6\xbdSCshW@'
p20
tp21
Rp22
ag7
(g11
S'\x96\xe7H\xc3shW@'
p23
tp24
Rp25
ag7
(g11
S'\xdeG\xd1NthW@'
p26
tp27
Rp28
ag7
(g11
S'\x8a\xd2\x179thW@'
p29
tp30
Rp31
ag7
(g11
S'18-WthW@'
p32
tp33
Rp34
ag7
(g11
S'\xa8\xfb\xb5\xd1shW@'
p35
tp36
Rp37
ag7
(g11
S'\xf9\xe6\xef\xc1thW@'
p38
tp39
Rp40
ag7
(g11
S'\x9e&\xfc\xa9uhW@'
p41
tp42
Rp43
ag7
(g11
S'\xf99\x13dphW@'
p44
tp45
Rp46
ag7
(g11
S'\xa1\xa1!CthW@'
p47
tp48
Rp49
ag7
(g11
S'}\xd6\xe9JshW@'
p50
tp51
Rp52
ag7
(g11
S'^\xde\xb7\xd3vhW@'
p53
tp54
Rp55
ag7
(g11
S'\x8bsI\x13xhW@'
p56
tp57
Rp58
ag7
(g11
S'\xccg\xe9\xa2shW@'
p59
tp60
Rp61
ag7
(g11
S'\x86\x86(<thW@'
p62
tp63
Rp64
ag7
(g11
S'"\xaa\x91\xc8thW@'
p65
tp66
Rp67
ag7
(g11
S'#\xd7xeuhW@'
p68
tp69
Rp70
ag7
(g11
S'\xe2^W\x8ewhW@'
p71
tp72
Rp73
ag7
(g11
S'$\xc1\x82\xd9vhW@'
p74
tp75
Rp76
ag7
(g11
S'\xf6(\x81\x9auhW@'
p77
tp78
Rp79
ag7
(g11
S'@y\xc9lxhW@'
p80
tp81
Rp82
ag7
(g11
S'$\x1b\x96srhW@'
p83
tp84
Rp85
ag7
(g11
S'`\x9b\xfe?vhW@'
p86
tp87
Rp88
ag7
(g11
S'J\x98\xff\x9frhW@'
p89
tp90
Rp91
ag7
(g11
S'!%\xea\xf1shW@'
p92
tp93
Rp94
ag7
(g11
S'\x08a)\x1dqhW@'
p95
tp96
Rp97
ag7
(g11
S'\xa0\xdd\x9a\xeethW@'
p98
tp99
Rp100
ag7
(g11
S':\x85\xd1evhW@'
p101
tp102
Rp103
asss.