(dp0
S'../Data/spear_4.csv'
p1
(dp2
S'../Data/spear_9.csv'
p3
(dp4
S'rank'
p5
(lp6
I3328
aI3328
aI3328
aI3328
aI3328
aI3328
aI3328
aI3328
aI3328
aI3328
aI3328
aI3328
aI3328
aI3328
aI3328
aI3328
aI3328
aI3328
aI3328
aI3328
asss.