(dp0
S'../Data/spear_1.csv'
p1
(dp2
S'../Data/spear_5.csv'
p3
(dp4
S'mmre'
p5
(lp6
cnumpy.core.multiarray
scalar
p7
(cnumpy
dtype
p8
(S'f8'
p9
I0
I1
tp10
Rp11
(I3
S'<'
p12
NNNI-1
I-1
I0
tp13
bS'\xad\xf9B_2DC@'
p14
tp15
Rp16
ag7
(g11
S'U\x9b2.4DC@'
p17
tp18
Rp19
ag7
(g11
S'\xd77\xb8g3DC@'
p20
tp21
Rp22
ag7
(g11
S'\xcd;-\xdc1DC@'
p23
tp24
Rp25
ag7
(g11
S't\xb6\xa2]3DC@'
p26
tp27
Rp28
ag7
(g11
S'zRv\xf23DC@'
p29
tp30
Rp31
ag7
(g11
S'\xe2b\xd0\xc03DC@'
p32
tp33
Rp34
ag7
(g11
S'\x12\xf5\xe6\xd13DC@'
p35
tp36
Rp37
ag7
(g11
S'\xae\xddU\x0f2DC@'
p38
tp39
Rp40
ag7
(g11
S'\xac\xf9\x89\xac2DC@'
p41
tp42
Rp43
ag7
(g11
S'A\xc1\xeeu3DC@'
p44
tp45
Rp46
ag7
(g11
S'3\x92\xefL2DC@'
p47
tp48
Rp49
ag7
(g11
S'\xdcg\xfbD4DC@'
p50
tp51
Rp52
ag7
(g11
S'\x1c\xce\xdb\xb22DC@'
p53
tp54
Rp55
ag7
(g11
S'\x0c\x00\xf3\xb52DC@'
p56
tp57
Rp58
ag7
(g11
S'2*u\xd23DC@'
p59
tp60
Rp61
ag7
(g11
S'\x99\xbf\x7f\x0b4DC@'
p62
tp63
Rp64
ag7
(g11
S'A-)\x113DC@'
p65
tp66
Rp67
ag7
(g11
S'\xc9\xc7\x15!4DC@'
p68
tp69
Rp70
ag7
(g11
S'UI\xdfi4DC@'
p71
tp72
Rp73
ag7
(g11
S'\xd0\x02DV4DC@'
p74
tp75
Rp76
ag7
(g11
S'oPs\xa52DC@'
p77
tp78
Rp79
ag7
(g11
S'\xfe\xcc6q3DC@'
p80
tp81
Rp82
ag7
(g11
S'Q#\xe2\x193DC@'
p83
tp84
Rp85
ag7
(g11
S'\x005\x11\xe53DC@'
p86
tp87
Rp88
ag7
(g11
S'\x01#\x0e\x114DC@'
p89
tp90
Rp91
ag7
(g11
S'\x9e4\xc0\xae1DC@'
p92
tp93
Rp94
ag7
(g11
S'\x8eq\xc9\xdf3DC@'
p95
tp96
Rp97
ag7
(g11
S'D\xee\xe8\xf42DC@'
p98
tp99
Rp100
ag7
(g11
S'\xf7z\xfc\x0e3DC@'
p101
tp102
Rp103
asss.