(dp0
S'../Data/spear_5.csv'
p1
(dp2
S'../Data/spear_3.csv'
p3
(dp4
S'abs_res'
p5
(lp6
cnumpy.core.multiarray
scalar
p7
(cnumpy
dtype
p8
(S'f8'
p9
I0
I1
tp10
Rp11
(I3
S'<'
p12
NNNI-1
I-1
I0
tp13
bS'c\xa3d\x80[]|@'
p14
tp15
Rp16
ag7
(g11
S'\xad\x06\xd0{Z]|@'
p17
tp18
Rp19
ag7
(g11
S'`\xa3d\x80[]|@'
p20
tp21
Rp22
ag7
(g11
S'k\xa3d\x80[]|@'
p23
tp24
Rp25
ag7
(g11
S'\xae\x06\xd0{Z]|@'
p26
tp27
Rp28
ag7
(g11
S'\xb0\x06\xd0{Z]|@'
p29
tp30
Rp31
ag7
(g11
S'd\xa3d\x80[]|@'
p32
tp33
Rp34
ag7
(g11
S'c\xa3d\x80[]|@'
p35
tp36
Rp37
ag7
(g11
S'X\xa3d\x80[]|@'
p38
tp39
Rp40
ag7
(g11
S'g\xa3d\x80[]|@'
p41
tp42
Rp43
ag7
(g11
S']\xa3d\x80[]|@'
p44
tp45
Rp46
ag7
(g11
S'\xa7\x06\xd0{Z]|@'
p47
tp48
Rp49
ag7
(g11
S'h\xa3d\x80[]|@'
p50
tp51
Rp52
ag7
(g11
S'i\xa3d\x80[]|@'
p53
tp54
Rp55
ag7
(g11
S'e\xa3d\x80[]|@'
p56
tp57
Rp58
ag7
(g11
S'\xa7\x06\xd0{Z]|@'
p59
tp60
Rp61
ag7
(g11
S'e\xa3d\x80[]|@'
p62
tp63
Rp64
ag7
(g11
S'\xac\x06\xd0{Z]|@'
p65
tp66
Rp67
ag7
(g11
S'\x9f\x06\xd0{Z]|@'
p68
tp69
Rp70
ag7
(g11
S'\xaf\x06\xd0{Z]|@'
p71
tp72
Rp73
ag7
(g11
S'c\xa3d\x80[]|@'
p74
tp75
Rp76
ag7
(g11
S'i\xa3d\x80[]|@'
p77
tp78
Rp79
ag7
(g11
S'c\xa3d\x80[]|@'
p80
tp81
Rp82
ag7
(g11
S'\xb8\xf2\xc2\xd5\\]|@'
p83
tp84
Rp85
ag7
(g11
S'k\xa3d\x80[]|@'
p86
tp87
Rp88
ag7
(g11
S'a\xa3d\x80[]|@'
p89
tp90
Rp91
ag7
(g11
S'f\xa3d\x80[]|@'
p92
tp93
Rp94
ag7
(g11
S'\xa9\x06\xd0{Z]|@'
p95
tp96
Rp97
ag7
(g11
S'_\xa3d\x80[]|@'
p98
tp99
Rp100
ag7
(g11
S'^\xa3d\x80[]|@'
p101
tp102
Rp103
asss.