(dp0
S'../Data/spear_5.csv'
p1
(dp2
S'../Data/spear_9.csv'
p3
(dp4
S'rank'
p5
(lp6
I4294
aI4294
aI4294
aI4294
aI4294
aI4294
aI4294
aI4294
aI4294
aI4294
aI4294
aI4294
aI4294
aI4294
aI4294
aI4294
aI4294
aI4294
aI4294
aI4294
asss.