(dp0
S'../Data/spear_7.csv'
p1
(dp2
S'../Data/spear_1.csv'
p3
(dp4
S'mmre'
p5
(lp6
cnumpy.core.multiarray
scalar
p7
(cnumpy
dtype
p8
(S'f8'
p9
I0
I1
tp10
Rp11
(I3
S'<'
p12
NNNI-1
I-1
I0
tp13
bS'\xe7S\xb3\xd9PY$@'
p14
tp15
Rp16
ag7
(g11
S'\xbc\xf1a\xb9v\\$@'
p17
tp18
Rp19
ag7
(g11
S'\xc8\x83\x85-\x0ea$@'
p20
tp21
Rp22
ag7
(g11
S'\x83\xf8\xd0\x1c"_$@'
p23
tp24
Rp25
ag7
(g11
S'\xff\xf1u\x8e"_$@'
p26
tp27
Rp28
ag7
(g11
S'\xd0\xc2LB9Y$@'
p29
tp30
Rp31
ag7
(g11
S'\x06\x05\xbf\xd4\xff`$@'
p32
tp33
Rp34
ag7
(g11
S'\x9c\x0f\x0famY$@'
p35
tp36
Rp37
ag7
(g11
S'\x12wX\xc5\xb9[$@'
p38
tp39
Rp40
ag7
(g11
S'\x15\xdf\x14\xe3T\\$@'
p41
tp42
Rp43
ag7
(g11
S'D \xf9~\x9d]$@'
p44
tp45
Rp46
ag7
(g11
S'\xea\xd3\x8d\x91%]$@'
p47
tp48
Rp49
ag7
(g11
S'"\xfb\xc9\x0b\xd8W$@'
p50
tp51
Rp52
ag7
(g11
S'\x14\x8d\xf4\xf5\xe0a$@'
p53
tp54
Rp55
ag7
(g11
S'\xc1\x83L\xc4D\\$@'
p56
tp57
Rp58
ag7
(g11
S'\xa8C\x93bP[$@'
p59
tp60
Rp61
ag7
(g11
S'7.oh\x0f^$@'
p62
tp63
Rp64
ag7
(g11
S'\xe4\x9b\xbd\x02\x8eX$@'
p65
tp66
Rp67
ag7
(g11
S'\\\x11\xf0\xa7\xe6\\$@'
p68
tp69
Rp70
ag7
(g11
S'{m\xcb&\xb2^$@'
p71
tp72
Rp73
ag7
(g11
S'w"\xe1\xc76]$@'
p74
tp75
Rp76
ag7
(g11
S'\xa7Etq\xd4\\$@'
p77
tp78
Rp79
ag7
(g11
S'VE\x87\xd5\rb$@'
p80
tp81
Rp82
ag7
(g11
S';\xad\x9b< W$@'
p83
tp84
Rp85
ag7
(g11
S'\xa7gC\xf5\xfa^$@'
p86
tp87
Rp88
ag7
(g11
S'G\xdbB\x17+^$@'
p89
tp90
Rp91
ag7
(g11
S'\xda@\xde\x7f\xdf^$@'
p92
tp93
Rp94
ag7
(g11
S'=o\xfd\xa8\x84\\$@'
p95
tp96
Rp97
ag7
(g11
S'\xea\xb9\xf0\x15\x01a$@'
p98
tp99
Rp100
ag7
(g11
S'\x11\x06\xea\x95v`$@'
p101
tp102
Rp103
asss.