(dp0
S'../Data/spear_5.csv'
p1
(dp2
S'../Data/spear_4.csv'
p3
(dp4
S'mmre'
p5
(lp6
cnumpy.core.multiarray
scalar
p7
(cnumpy
dtype
p8
(S'f8'
p9
I0
I1
tp10
Rp11
(I3
S'<'
p12
NNNI-1
I-1
I0
tp13
bS"Ch\xa64.'S@"
p14
tp15
Rp16
ag7
(g11
S"X=\xef&.'S@"
p17
tp18
Rp19
ag7
(g11
S"*aG\xca-'S@"
p20
tp21
Rp22
ag7
(g11
S"\x9e\x04\x11\xda-'S@"
p23
tp24
Rp25
ag7
(g11
S"*<\xebT,'S@"
p26
tp27
Rp28
ag7
(g11
S"\xc0\xc14\xe6-'S@"
p29
tp30
Rp31
ag7
(g11
S"\xd0u\x93i,'S@"
p32
tp33
Rp34
ag7
(g11
S"\xed\xa3\xd0\x08,'S@"
p35
tp36
Rp37
ag7
(g11
S"\x15\x8e\xc0\x9d-'S@"
p38
tp39
Rp40
ag7
(g11
S"\x10\x90\xeea,'S@"
p41
tp42
Rp43
ag7
(g11
S"rL[\x13,'S@"
p44
tp45
Rp46
ag7
(g11
S"\xab]#\xc6+'S@"
p47
tp48
Rp49
ag7
(g11
S"\xcf\x15\xb2\xf7+'S@"
p50
tp51
Rp52
ag7
(g11
S"\xe6\xff\xbf-.'S@"
p53
tp54
Rp55
ag7
(g11
S"1_\xe1\xfd+'S@"
p56
tp57
Rp58
ag7
(g11
S"\xd1\xf7\xcd\xd6-'S@"
p59
tp60
Rp61
ag7
(g11
S"\xb5\x19:\x0e,'S@"
p62
tp63
Rp64
ag7
(g11
S"&$\xe7\xf4-'S@"
p65
tp66
Rp67
ag7
(g11
S"\xe8;! ,'S@"
p68
tp69
Rp70
ag7
(g11
S"\xe8\xf9Sv,'S@"
p71
tp72
Rp73
ag7
(g11
S"\xa7\xdc<D,'S@"
p74
tp75
Rp76
ag7
(g11
S"\xda\x93#\xd8-'S@"
p77
tp78
Rp79
ag7
(g11
S"JI\xcb\xc9+'S@"
p80
tp81
Rp82
ag7
(g11
S"_\xf44\xe2-'S@"
p83
tp84
Rp85
ag7
(g11
S"\xd7e\xf3`,'S@"
p86
tp87
Rp88
ag7
(g11
S"\xe7\x9c\xbd\xa2-'S@"
p89
tp90
Rp91
ag7
(g11
S"\xc0\xea\xc13.'S@"
p92
tp93
Rp94
ag7
(g11
S"\x0b`s\xd6-'S@"
p95
tp96
Rp97
ag7
(g11
S"\xa6\xc9A2.'S@"
p98
tp99
Rp100
ag7
(g11
S"Tk\xfcH,'S@"
p101
tp102
Rp103
asss.