(dp0
S'../Data/spear_1.csv'
p1
(dp2
S'../Data/spear_7.csv'
p3
(dp4
S'mmre'
p5
(lp6
cnumpy.core.multiarray
scalar
p7
(cnumpy
dtype
p8
(S'f8'
p9
I0
I1
tp10
Rp11
(I3
S'<'
p12
NNNI-1
I-1
I0
tp13
bS'\xecc\xb0h\xd7A,@'
p14
tp15
Rp16
ag7
(g11
S'\x80\x1d\xcf"\xadA,@'
p17
tp18
Rp19
ag7
(g11
S'\x93\x89Z.3B,@'
p20
tp21
Rp22
ag7
(g11
S'\xd3\xbe\xf0\x8a\xb2;,@'
p23
tp24
Rp25
ag7
(g11
S'\x94 6\xdc0;,@'
p26
tp27
Rp28
ag7
(g11
S'\xdd\xbcIPFB,@'
p29
tp30
Rp31
ag7
(g11
S'v\x05^\xb7_<,@'
p32
tp33
Rp34
ag7
(g11
S'\'\xe6{"\xf3<,@'
p35
tp36
Rp37
ag7
(g11
S'\x9e\xdf\xfc\x9c\xa7@,@'
p38
tp39
Rp40
ag7
(g11
S'\xd4g\xe5\xfbZ=,@'
p41
tp42
Rp43
ag7
(g11
S'\x02\xe3\xa1\x1f\x0cA,@'
p44
tp45
Rp46
ag7
(g11
S'\xa6\x11\xba&\x98<,@'
p47
tp48
Rp49
ag7
(g11
S'\x14F\x16\xd3\xe6=,@'
p50
tp51
Rp52
ag7
(g11
S'`"S\xed\xc5?,@'
p53
tp54
Rp55
ag7
(g11
S')\xcdmY\r<,@'
p56
tp57
Rp58
ag7
(g11
S':T\xcd\xa1\xd4;,@'
p59
tp60
Rp61
ag7
(g11
S'\x9a\x13+M\x10=,@'
p62
tp63
Rp64
ag7
(g11
S'iTI\x84\xc8?,@'
p65
tp66
Rp67
ag7
(g11
S'\x81\xe7\xc9\xa1\xd4;,@'
p68
tp69
Rp70
ag7
(g11
S'8\xdd^\x06\x9a?,@'
p71
tp72
Rp73
ag7
(g11
S'\x94.\x03&2@,@'
p74
tp75
Rp76
ag7
(g11
S'%b\xbat\xed;,@'
p77
tp78
Rp79
ag7
(g11
S'\xf2\\\x11yG>,@'
p80
tp81
Rp82
ag7
(g11
S'J;UFmB,@'
p83
tp84
Rp85
ag7
(g11
S'\x90\xd0W;\xbf@,@'
p86
tp87
Rp88
ag7
(g11
S'0HX\x07\xbc<,@'
p89
tp90
Rp91
ag7
(g11
S'\xad7\x1c%\x0f>,@'
p92
tp93
Rp94
ag7
(g11
S'`E\x8c\xf5\x18=,@'
p95
tp96
Rp97
ag7
(g11
S'\xa6\x8f\xbf\xb68<,@'
p98
tp99
Rp100
ag7
(g11
S'N\xc6\x1er\xbf>,@'
p101
tp102
Rp103
asss.