(dp0
S'../Data/spear_1.csv'
p1
(dp2
S'../Data/spear_3.csv'
p3
(dp4
S'mmre'
p5
(lp6
cnumpy.core.multiarray
scalar
p7
(cnumpy
dtype
p8
(S'f8'
p9
I0
I1
tp10
Rp11
(I3
S'<'
p12
NNNI-1
I-1
I0
tp13
bS'\xeb\xc7\xa3\x8bs#M@'
p14
tp15
Rp16
ag7
(g11
S'W\xd1\x06Wr#M@'
p17
tp18
Rp19
ag7
(g11
S'\xf3A;\xd8r#M@'
p20
tp21
Rp22
ag7
(g11
S'\x17\xb9\\Et#M@'
p23
tp24
Rp25
ag7
(g11
S'\xd2e~\x10r#M@'
p26
tp27
Rp28
ag7
(g11
S'\x9dV,\xefr#M@'
p29
tp30
Rp31
ag7
(g11
S'\x8a\xc6]\x91t#M@'
p32
tp33
Rp34
ag7
(g11
S'\xd7\xb4\x82+r#M@'
p35
tp36
Rp37
ag7
(g11
S'_\xdc\xf4hr#M@'
p38
tp39
Rp40
ag7
(g11
S'\x0e\xb2\x1f\xdbq#M@'
p41
tp42
Rp43
ag7
(g11
S'Z\x82?\xb7r#M@'
p44
tp45
Rp46
ag7
(g11
S'*g\x15\x9bs#M@'
p47
tp48
Rp49
ag7
(g11
S'\x8f\xbb\x98_t#M@'
p50
tp51
Rp52
ag7
(g11
S'y\xd3.%t#M@'
p53
tp54
Rp55
ag7
(g11
S'\xc6\r\x84\xd0r#M@'
p56
tp57
Rp58
ag7
(g11
S'ge\xb2zt#M@'
p59
tp60
Rp61
ag7
(g11
S'%w\x81\xc4r#M@'
p62
tp63
Rp64
ag7
(g11
S'&\x9eA\xa2t#M@'
p65
tp66
Rp67
ag7
(g11
S'\xef\x9a\x1awr#M@'
p68
tp69
Rp70
ag7
(g11
S'\xdf\x8d\t5r#M@'
p71
tp72
Rp73
ag7
(g11
S':\xfd\xe7\xd0r#M@'
p74
tp75
Rp76
ag7
(g11
S'\xda\xf0\xdb\xc1t#M@'
p77
tp78
Rp79
ag7
(g11
S'\x8f\xcc\\Yt#M@'
p80
tp81
Rp82
ag7
(g11
S"\xfe8\xbb't#M@"
p83
tp84
Rp85
ag7
(g11
S'\xe7\x1d\xbe\xa7r#M@'
p86
tp87
Rp88
ag7
(g11
S'\xb3\xf8?\xdfr#M@'
p89
tp90
Rp91
ag7
(g11
S'=p\xd5\xd7r#M@'
p92
tp93
Rp94
ag7
(g11
S'b\xf3\x957r#M@'
p95
tp96
Rp97
ag7
(g11
S'~\x8c\xc3:s#M@'
p98
tp99
Rp100
ag7
(g11
S'S\xaf\xa6{r#M@'
p101
tp102
Rp103
asss.