(dp0
S'../Data/spear_0.csv'
p1
(dp2
S'../Data/spear_7.csv'
p3
(dp4
S'abs_res'
p5
(lp6
cnumpy.core.multiarray
scalar
p7
(cnumpy
dtype
p8
(S'f8'
p9
I0
I1
tp10
Rp11
(I3
S'<'
p12
NNNI-1
I-1
I0
tp13
bS'85\xbb!Njp@'
p14
tp15
Rp16
ag7
(g11
S'>5\xbb!Njp@'
p17
tp18
Rp19
ag7
(g11
S'25\xbb!Njp@'
p20
tp21
Rp22
ag7
(g11
S'<5\xbb!Njp@'
p23
tp24
Rp25
ag7
(g11
S'J5\xbb!Njp@'
p26
tp27
Rp28
ag7
(g11
S'D5\xbb!Njp@'
p29
tp30
Rp31
ag7
(g11
S'D5\xbb!Njp@'
p32
tp33
Rp34
ag7
(g11
S'A5\xbb!Njp@'
p35
tp36
Rp37
ag7
(g11
S'D5\xbb!Njp@'
p38
tp39
Rp40
ag7
(g11
S'H5\xbb!Njp@'
p41
tp42
Rp43
ag7
(g11
S'>5\xbb!Njp@'
p44
tp45
Rp46
ag7
(g11
S'F5\xbb!Njp@'
p47
tp48
Rp49
ag7
(g11
S'<5\xbb!Njp@'
p50
tp51
Rp52
ag7
(g11
S'G5\xbb!Njp@'
p53
tp54
Rp55
ag7
(g11
S'=5\xbb!Njp@'
p56
tp57
Rp58
ag7
(g11
S'>5\xbb!Njp@'
p59
tp60
Rp61
ag7
(g11
S'25\xbb!Njp@'
p62
tp63
Rp64
ag7
(g11
S'B5\xbb!Njp@'
p65
tp66
Rp67
ag7
(g11
S'C5\xbb!Njp@'
p68
tp69
Rp70
ag7
(g11
S'@5\xbb!Njp@'
p71
tp72
Rp73
ag7
(g11
S'B5\xbb!Njp@'
p74
tp75
Rp76
ag7
(g11
S'@5\xbb!Njp@'
p77
tp78
Rp79
ag7
(g11
S'<5\xbb!Njp@'
p80
tp81
Rp82
ag7
(g11
S'75\xbb!Njp@'
p83
tp84
Rp85
ag7
(g11
S'A5\xbb!Njp@'
p86
tp87
Rp88
ag7
(g11
S'@5\xbb!Njp@'
p89
tp90
Rp91
ag7
(g11
S'C5\xbb!Njp@'
p92
tp93
Rp94
ag7
(g11
S';5\xbb!Njp@'
p95
tp96
Rp97
ag7
(g11
S'B5\xbb!Njp@'
p98
tp99
Rp100
ag7
(g11
S'@5\xbb!Njp@'
p101
tp102
Rp103
asss.