(dp0
S'../Data/spear_2.csv'
p1
(dp2
S'../Data/spear_5.csv'
p3
(dp4
S'mmre'
p5
(lp6
cnumpy.core.multiarray
scalar
p7
(cnumpy
dtype
p8
(S'f8'
p9
I0
I1
tp10
Rp11
(I3
S'<'
p12
NNNI-1
I-1
I0
tp13
bS'\xbd\x1aC-PrD@'
p14
tp15
Rp16
ag7
(g11
S'\x041O\xb1WrD@'
p17
tp18
Rp19
ag7
(g11
S'p\xf3\x7fV\xb2rD@'
p20
tp21
Rp22
ag7
(g11
S'\x00\xe0\xf4\xf8\xa8rD@'
p23
tp24
Rp25
ag7
(g11
S'H!\x8aI\x8frD@'
p26
tp27
Rp28
ag7
(g11
S'<\x19\x85\xe3?rD@'
p29
tp30
Rp31
ag7
(g11
S'\xadE\xba\x11\x99rD@'
p32
tp33
Rp34
ag7
(g11
S'\xb3`\xf3\x99}rD@'
p35
tp36
Rp37
ag7
(g11
S'2.j\xbcRrD@'
p38
tp39
Rp40
ag7
(g11
S'\xb2\xdb\x8e%\x8crD@'
p41
tp42
Rp43
ag7
(g11
S'\x81\x0c\x94\n\xf7qD@'
p44
tp45
Rp46
ag7
(g11
S'\xc3\xc6@hmrD@'
p47
tp48
Rp49
ag7
(g11
S'\x93hg\x89\xf7qD@'
p50
tp51
Rp52
ag7
(g11
S'L\xa3\xa8\xf0\x94rD@'
p53
tp54
Rp55
ag7
(g11
S'W\x1e\xac\xa7brD@'
p56
tp57
Rp58
ag7
(g11
S'@\xeaP\xefIrD@'
p59
tp60
Rp61
ag7
(g11
S':\xd0o9\x8drD@'
p62
tp63
Rp64
ag7
(g11
S',J\xb8\xfbdrD@'
p65
tp66
Rp67
ag7
(g11
S'\\\xbf\xb3~_rD@'
p68
tp69
Rp70
ag7
(g11
S'\xf2\r\xb7\x85\x8brD@'
p71
tp72
Rp73
ag7
(g11
S'\xd2\x05\xf6\xdaIrD@'
p74
tp75
Rp76
ag7
(g11
S'&\xbc\xc8\xfdcrD@'
p77
tp78
Rp79
ag7
(g11
S'H?\x86K\x9brD@'
p80
tp81
Rp82
ag7
(g11
S'\x946\xe8N\x1crD@'
p83
tp84
Rp85
ag7
(g11
S'I9I\xd5grD@'
p86
tp87
Rp88
ag7
(g11
S'\x9c\x83)\x84\x0brD@'
p89
tp90
Rp91
ag7
(g11
S'\x11I\x8e\xaf\x96rD@'
p92
tp93
Rp94
ag7
(g11
S'7\xd8\xab\x97FrD@'
p95
tp96
Rp97
ag7
(g11
S'\xaa\xa8\x84@nrD@'
p98
tp99
Rp100
ag7
(g11
S'A\xf7\x86vUrD@'
p101
tp102
Rp103
asss.