(dp0
S'../Data/spear_2.csv'
p1
(dp2
S'../Data/spear_9.csv'
p3
(dp4
S'rank'
p5
(lp6
I5393
aI5393
aI5393
aI5393
aI5393
aI5393
aI5393
aI5393
aI5393
aI5393
aI5393
aI5393
aI5393
aI5393
aI5393
aI5393
aI5393
aI5393
aI5393
aI5393
asss.