(dp0
S'../Data/spear_3.csv'
p1
(dp2
S'../Data/spear_9.csv'
p3
(dp4
S'rank'
p5
(lp6
I6889
aI6889
aI6889
aI6889
aI6889
aI6889
aI6889
aI6889
aI6889
aI6889
aI6889
aI6889
aI6889
aI6889
aI6889
aI6889
aI6889
aI6889
aI6889
aI6889
asss.