(dp0
S'../Data/spear_4.csv'
p1
(dp2
S'../Data/spear_6.csv'
p3
(dp4
S'mmre'
p5
(lp6
cnumpy.core.multiarray
scalar
p7
(cnumpy
dtype
p8
(S'f8'
p9
I0
I1
tp10
Rp11
(I3
S'<'
p12
NNNI-1
I-1
I0
tp13
bS'\x80\x14\xd9!.$E@'
p14
tp15
Rp16
ag7
(g11
S'\xe7^~U|$E@'
p17
tp18
Rp19
ag7
(g11
S'\xd1{\xc7\xbb\x83$E@'
p20
tp21
Rp22
ag7
(g11
S'\x8b\x04\x13v\xb7$E@'
p23
tp24
Rp25
ag7
(g11
S'\x8d\x15\xca#\xaa$E@'
p26
tp27
Rp28
ag7
(g11
S'\xf9\x1a\xb28&$E@'
p29
tp30
Rp31
ag7
(g11
S'p\xeaNl&$E@'
p32
tp33
Rp34
ag7
(g11
S'G\x1eI\xf87$E@'
p35
tp36
Rp37
ag7
(g11
S'{\x11\xda5\x97$E@'
p38
tp39
Rp40
ag7
(g11
S'\\12\x89 $E@'
p41
tp42
Rp43
ag7
(g11
S'\xd3\xf8\x9f\xfb)$E@'
p44
tp45
Rp46
ag7
(g11
S'g6"\xa8\x80$E@'
p47
tp48
Rp49
ag7
(g11
S'\x81""*F$E@'
p50
tp51
Rp52
ag7
(g11
S'\x0e\rH\x96e$E@'
p53
tp54
Rp55
ag7
(g11
S'\x11\x0e\x0fK=$E@'
p56
tp57
Rp58
ag7
(g11
S'-?\xd5;g$E@'
p59
tp60
Rp61
ag7
(g11
S'\xf6:z"9$E@'
p62
tp63
Rp64
ag7
(g11
S'\x12\xa0S\xfd~$E@'
p65
tp66
Rp67
ag7
(g11
S'X\xc3\xf5OB$E@'
p68
tp69
Rp70
ag7
(g11
S'\x93\x11I\x97\x1e$E@'
p71
tp72
Rp73
ag7
(g11
S'?\xebJ\xd0)$E@'
p74
tp75
Rp76
ag7
(g11
S'\x8d\xaa\xf7\xd0B$E@'
p77
tp78
Rp79
ag7
(g11
S'5\xc0>\xbe6$E@'
p80
tp81
Rp82
ag7
(g11
S'\xa7\xb8d#`$E@'
p83
tp84
Rp85
ag7
(g11
S'9\xe4\x8fU\\$E@'
p86
tp87
Rp88
ag7
(g11
S'\x04M_\xd7\xc1$E@'
p89
tp90
Rp91
ag7
(g11
S'\x8e\xf4\xf4\x14\x8a$E@'
p92
tp93
Rp94
ag7
(g11
S'\xb5q\xbb\xb6\xa5$E@'
p95
tp96
Rp97
ag7
(g11
S'\xbc\x14V\xee\xa3$E@'
p98
tp99
Rp100
ag7
(g11
S'J\xbb\xfb#@$E@'
p101
tp102
Rp103
asss.