(dp0
S'sqlite'
p1
(lp2
(lp3
(lp4
S'../Data/sqlite_18.csv'
p5
aa(lp6
cnumpy.core.multiarray
scalar
p7
(cnumpy
dtype
p8
(S'f8'
p9
I0
I1
tp10
Rp11
(I3
S'<'
p12
NNNI-1
I-1
I0
tp13
bS'\xb1\xb7\x00\xb4n{2@'
p14
tp15
Rp16
aaa(lp17
(lp18
S'../Data/sqlite_73.csv'
p19
aa(lp20
g7
(g11
S'\xd2\xb62\xbe\xeb\xbb\x07@'
p21
tp22
Rp23
aaa(lp24
(lp25
g5
aa(lp26
g7
(g11
S'\xb1\xb7\x00\xb4n{2@'
p27
tp28
Rp29
aaa(lp30
(lp31
S'../Data/sqlite_17.csv'
p32
aa(lp33
g7
(g11
S'\x98\x1f\xba\x04s\xc1\xeb?'
p34
tp35
Rp36
aaa(lp37
(lp38
S'../Data/sqlite_45.csv'
p39
aa(lp40
g7
(g11
S'\xd4\xe32\x92r\xd3\x0b@'
p41
tp42
Rp43
aaasS'spear'
p44
(lp45
(lp46
(lp47
S'../Data/spear_7.csv'
p48
aa(lp49
g7
(g11
S'\xf4\x01\x8a/\x0bl\xb9?'
p50
tp51
Rp52
aaa(lp53
(lp54
g48
aa(lp55
g7
(g11
S'\xf4\x01\x8a/\x0bl\xb9?'
p56
tp57
Rp58
aaa(lp59
(lp60
g48
aa(lp61
g7
(g11
S'\xf4\x01\x8a/\x0bl\xb9?'
p62
tp63
Rp64
aaa(lp65
(lp66
g48
aa(lp67
g7
(g11
S'\xf4\x01\x8a/\x0bl\xb9?'
p68
tp69
Rp70
aaa(lp71
(lp72
S'../Data/spear_3.csv'
p73
aa(lp74
g7
(g11
S'&\xc4\xd0|\xae?\xfe?'
p75
tp76
Rp77
aaasS'sac'
p78
(lp79
(lp80
(lp81
S'../Data/sac_6.csv'
p82
aa(lp83
g7
(g11
S'@%4\xe3y@\xd2?'
p84
tp85
Rp86
aaa(lp87
(lp88
S'../Data/sac_4.csv'
p89
aa(lp90
g7
(g11
S'f\xfeA\x82\xddq\xe4?'
p91
tp92
Rp93
aaa(lp94
(lp95
g89
aa(lp96
g7
(g11
S'f\xfeA\x82\xddq\xe4?'
p97
tp98
Rp99
aaa(lp100
(lp101
S'../Data/sac_2.csv'
p102
aa(lp103
g7
(g11
S'\x00\x00\x00\x00\x00\x00Y@'
p104
tp105
Rp106
aaa(lp107
(lp108
g89
aa(lp109
g7
(g11
S'f\xfeA\x82\xddq\xe4?'
p110
tp111
Rp112
aaasS'storm-obj2'
p113
(lp114
(lp115
(lp116
S'../Data/storm-obj2_feature9.csv'
p117
aa(lp118
g7
(g11
S'\x00\x00\x00\x00\x00\x00\x00\x00'
p119
tp120
Rp121
aaa(lp122
(lp123
g117
aa(lp124
g7
(g11
S'\x00\x00\x00\x00\x00\x00\x00\x00'
p125
tp126
Rp127
aaa(lp128
(lp129
g117
aa(lp130
g7
(g11
S'\x00\x00\x00\x00\x00\x00\x00\x00'
p131
tp132
Rp133
aaa(lp134
(lp135
g117
aa(lp136
g7
(g11
S'\x00\x00\x00\x00\x00\x00\x00\x00'
p137
tp138
Rp139
aaa(lp140
(lp141
g117
aa(lp142
g7
(g11
S'\x00\x00\x00\x00\x00\x00\x00\x00'
p143
tp144
Rp145
aaasS'storm-obj1'
p146
(lp147
(lp148
(lp149
S'../Data/storm-obj1_feature8.csv'
p150
aa(lp151
g7
(g11
S'\xf0\x96\x98JL%\x02@'
p152
tp153
Rp154
aaa(lp155
(lp156
g150
aa(lp157
g7
(g11
S'\xf0\x96\x98JL%\x02@'
p158
tp159
Rp160
aaa(lp161
(lp162
g150
aa(lp163
g7
(g11
S'\xf0\x96\x98JL%\x02@'
p164
tp165
Rp166
aaa(lp167
(lp168
S'../Data/storm-obj1_feature6.csv'
p169
aa(lp170
g7
(g11
S'$*\xe4+\xb9\x070@'
p171
tp172
Rp173
aaa(lp174
(lp175
S'../Data/storm-obj1_feature9.csv'
p176
aa(lp177
g7
(g11
S'\xad\x88\x03\xf1-qI@'
p178
tp179
Rp180
aaasS'x264'
p181
(lp182
(lp183
(lp184
S'../Data/x264_7.csv'
p185
aa(lp186
g7
(g11
S'\xaa\xee\xd0\x8a\xa3\x9c\xed?'
p187
tp188
Rp189
aaa(lp190
(lp191
g185
aa(lp192
g7
(g11
S'\xaa\xee\xd0\x8a\xa3\x9c\xed?'
p193
tp194
Rp195
aaa(lp196
(lp197
g185
aa(lp198
g7
(g11
S'\xaa\xee\xd0\x8a\xa3\x9c\xed?'
p199
tp200
Rp201
aaa(lp202
(lp203
S'../Data/x264_16.csv'
p204
aa(lp205
g7
(g11
S'\x8e^L\x9e\xd0\xc5\x01@'
p206
tp207
Rp208
aaa(lp209
(lp210
S'../Data/x264_11.csv'
p211
aa(lp212
g7
(g11
S'\xea\x02\xd7\x92\xaa-\xf8?'
p213
tp214
Rp215
aaas.