(dp0
S'sqlite'
p1
(lp2
(lp3
(lp4
S'../Data/sqlite_17.csv'
p5
aa(lp6
cnumpy.core.multiarray
scalar
p7
(cnumpy
dtype
p8
(S'f8'
p9
I0
I1
tp10
Rp11
(I3
S'<'
p12
NNNI-1
I-1
I0
tp13
bS'\x98\x1f\xba\x04s\xc1\xeb?'
p14
tp15
Rp16
aaa(lp17
(lp18
S'../Data/sqlite_44.csv'
p19
aa(lp20
g7
(g11
S'\xe0r:1|\xd6\x01@'
p21
tp22
Rp23
aaa(lp24
(lp25
S'../Data/sqlite_18.csv'
p26
aa(lp27
g7
(g11
S'\xb1\xb7\x00\xb4n{2@'
p28
tp29
Rp30
aaa(lp31
(lp32
S'../Data/sqlite_73.csv'
p33
aa(lp34
g7
(g11
S'\xd2\xb62\xbe\xeb\xbb\x07@'
p35
tp36
Rp37
aaa(lp38
(lp39
S'../Data/sqlite_52.csv'
p40
aa(lp41
g7
(g11
S'd~p=\x9b\xef\x1d@'
p42
tp43
Rp44
aaasS'spear'
p45
(lp46
(lp47
(lp48
S'../Data/spear_1.csv'
p49
aa(lp50
g7
(g11
S'\xf4\x01\x8a/\x0bl\xb9?'
p51
tp52
Rp53
aaa(lp54
(lp55
g49
aa(lp56
g7
(g11
S'\xf4\x01\x8a/\x0bl\xb9?'
p57
tp58
Rp59
aaa(lp60
(lp61
S'../Data/spear_7.csv'
p62
aa(lp63
g7
(g11
S'\xf4\x01\x8a/\x0bl\xb9?'
p64
tp65
Rp66
aaa(lp67
(lp68
S'../Data/spear_9.csv'
p69
aa(lp70
g7
(g11
S'\xf4\x01\x8a/\x0bl\xb9?'
p71
tp72
Rp73
aaa(lp74
(lp75
g62
aa(lp76
g7
(g11
S'\xf4\x01\x8a/\x0bl\xb9?'
p77
tp78
Rp79
aaasS'sac'
p80
(lp81
(lp82
(lp83
S'../Data/sac_9.csv'
p84
aa(lp85
g7
(g11
S'\x8e\x08\x1a\x03\x9b\xca\x12@'
p86
tp87
Rp88
aaa(lp89
(lp90
S'../Data/sac_4.csv'
p91
aa(lp92
g7
(g11
S'f\xfeA\x82\xddq\xe4?'
p93
tp94
Rp95
aaa(lp96
(lp97
g91
aa(lp98
g7
(g11
S'f\xfeA\x82\xddq\xe4?'
p99
tp100
Rp101
aaa(lp102
(lp103
S'../Data/sac_6.csv'
p104
aa(lp105
g7
(g11
S'\x1a\xd2\x82\xa7\x94\x0e\xd2?'
p106
tp107
Rp108
aaa(lp109
(lp110
g91
aa(lp111
g7
(g11
S'f\xfeA\x82\xddq\xe4?'
p112
tp113
Rp114
aaasS'storm-obj2'
p115
(lp116
(lp117
(lp118
S'../Data/storm-obj2_feature9.csv'
p119
aa(lp120
g7
(g11
S'\x00\x00\x00\x00\x00\x00\x00\x00'
p121
tp122
Rp123
aaa(lp124
(lp125
g119
aa(lp126
g7
(g11
S'\x00\x00\x00\x00\x00\x00\x00\x00'
p127
tp128
Rp129
aaa(lp130
(lp131
g119
aa(lp132
g7
(g11
S'\x00\x00\x00\x00\x00\x00\x00\x00'
p133
tp134
Rp135
aaa(lp136
(lp137
g119
aa(lp138
g7
(g11
S'\x00\x00\x00\x00\x00\x00\x00\x00'
p139
tp140
Rp141
aaa(lp142
(lp143
g119
aa(lp144
g7
(g11
S'\x00\x00\x00\x00\x00\x00\x00\x00'
p145
tp146
Rp147
aaasS'storm-obj1'
p148
(lp149
(lp150
(lp151
S'../Data/storm-obj1_feature8.csv'
p152
aa(lp153
g7
(g11
S'\xf0\x96\x98JL%\x02@'
p154
tp155
Rp156
aaa(lp157
(lp158
g152
aa(lp159
g7
(g11
S'\xf0\x96\x98JL%\x02@'
p160
tp161
Rp162
aaa(lp163
(lp164
S'../Data/storm-obj1_feature9.csv'
p165
aa(lp166
g7
(g11
S'\xad\x88\x03\xf1-qI@'
p167
tp168
Rp169
aaa(lp170
(lp171
g165
aa(lp172
g7
(g11
S'\xad\x88\x03\xf1-qI@'
p173
tp174
Rp175
aaa(lp176
(lp177
S'../Data/storm-obj1_feature7.csv'
p178
aa(lp179
g7
(g11
S'\xd7\xa5`\xf3\xcc@(@'
p180
tp181
Rp182
aaasS'x264'
p183
(lp184
(lp185
(lp186
S'../Data/x264_16.csv'
p187
aa(lp188
g7
(g11
S'\x8e^L\x9e\xd0\xc5\x01@'
p189
tp190
Rp191
aaa(lp192
(lp193
S'../Data/x264_13.csv'
p194
aa(lp195
g7
(g11
S'd\x85\x0e\xcd\xae\xc0(@'
p196
tp197
Rp198
aaa(lp199
(lp200
S'../Data/x264_11.csv'
p201
aa(lp202
g7
(g11
S'\xea\x02\xd7\x92\xaa-\xf8?'
p203
tp204
Rp205
aaa(lp206
(lp207
S'../Data/x264_5.csv'
p208
aa(lp209
g7
(g11
S'\x8e^L\x9e\xd0\xc5\x01@'
p210
tp211
Rp212
aaa(lp213
(lp214
S'../Data/x264_9.csv'
p215
aa(lp216
g7
(g11
S'\x9c^\xf9)\xdba\xd2?'
p217
tp218
Rp219
aaas.