(dp0
S'sqlite'
p1
(lp2
(lp3
(lp4
S'../Data/sqlite_45.csv'
p5
aa(lp6
cnumpy.core.multiarray
scalar
p7
(cnumpy
dtype
p8
(S'f8'
p9
I0
I1
tp10
Rp11
(I3
S'<'
p12
NNNI-1
I-1
I0
tp13
bS'\xd4\xe32\x92r\xd3\x0b@'
p14
tp15
Rp16
aaa(lp17
(lp18
S'../Data/sqlite_16.csv'
p19
aa(lp20
g7
(g11
S'\x10\xb6\x16-R\x16\x0f@'
p21
tp22
Rp23
aaa(lp24
(lp25
S'../Data/sqlite_11.csv'
p26
aa(lp27
g7
(g11
S'z/1,\xbc\xfd\x1a@'
p28
tp29
Rp30
aaa(lp31
(lp32
g5
aa(lp33
g7
(g11
S'\xd4\xe32\x92r\xd3\x0b@'
p34
tp35
Rp36
aaa(lp37
(lp38
S'../Data/sqlite_44.csv'
p39
aa(lp40
g7
(g11
S'\xe0r:1|\xd6\x01@'
p41
tp42
Rp43
aaasS'spear'
p44
(lp45
(lp46
(lp47
S'../Data/spear_7.csv'
p48
aa(lp49
g7
(g11
S'\xf4\x01\x8a/\x0bl\xb9?'
p50
tp51
Rp52
aaa(lp53
(lp54
S'../Data/spear_1.csv'
p55
aa(lp56
g7
(g11
S'\xf4\x01\x8a/\x0bl\xb9?'
p57
tp58
Rp59
aaa(lp60
(lp61
g48
aa(lp62
g7
(g11
S'\xf4\x01\x8a/\x0bl\xb9?'
p63
tp64
Rp65
aaa(lp66
(lp67
g55
aa(lp68
g7
(g11
S'\xf4\x01\x8a/\x0bl\xb9?'
p69
tp70
Rp71
aaa(lp72
(lp73
g48
aa(lp74
g7
(g11
S'\xf4\x01\x8a/\x0bl\xb9?'
p75
tp76
Rp77
aaasS'sac'
p78
(lp79
(lp80
(lp81
S'../Data/sac_4.csv'
p82
aa(lp83
g7
(g11
S'f\xfeA\x82\xddq\xe4?'
p84
tp85
Rp86
aaa(lp87
(lp88
S'../Data/sac_9.csv'
p89
aa(lp90
g7
(g11
S'\x8e\x08\x1a\x03\x9b\xca\x12@'
p91
tp92
Rp93
aaa(lp94
(lp95
S'../Data/sac_2.csv'
p96
aa(lp97
g7
(g11
S'\x00\x00\x00\x00\x00\x00Y@'
p98
tp99
Rp100
aaa(lp101
(lp102
g96
aa(lp103
g7
(g11
S'\x00\x00\x00\x00\x00\x00Y@'
p104
tp105
Rp106
aaa(lp107
(lp108
g96
aa(lp109
g7
(g11
S'\x00\x00\x00\x00\x00\x00Y@'
p110
tp111
Rp112
aaasS'storm-obj2'
p113
(lp114
(lp115
(lp116
S'../Data/storm-obj2_feature9.csv'
p117
aa(lp118
g7
(g11
S'\x00\x00\x00\x00\x00\x00\x00\x00'
p119
tp120
Rp121
aaa(lp122
(lp123
g117
aa(lp124
g7
(g11
S'\x00\x00\x00\x00\x00\x00\x00\x00'
p125
tp126
Rp127
aaa(lp128
(lp129
g117
aa(lp130
g7
(g11
S'\x00\x00\x00\x00\x00\x00\x00\x00'
p131
tp132
Rp133
aaa(lp134
(lp135
g117
aa(lp136
g7
(g11
S'\x00\x00\x00\x00\x00\x00\x00\x00'
p137
tp138
Rp139
aaa(lp140
(lp141
g117
aa(lp142
g7
(g11
S'\x00\x00\x00\x00\x00\x00\x00\x00'
p143
tp144
Rp145
aaasS'storm-obj1'
p146
(lp147
(lp148
(lp149
S'../Data/storm-obj1_feature6.csv'
p150
aa(lp151
g7
(g11
S'$*\xe4+\xb9\x070@'
p152
tp153
Rp154
aaa(lp155
(lp156
S'../Data/storm-obj1_feature9.csv'
p157
aa(lp158
g7
(g11
S'\xad\x88\x03\xf1-qI@'
p159
tp160
Rp161
aaa(lp162
(lp163
g157
aa(lp164
g7
(g11
S'\xad\x88\x03\xf1-qI@'
p165
tp166
Rp167
aaa(lp168
(lp169
g157
aa(lp170
g7
(g11
S'\xad\x88\x03\xf1-qI@'
p171
tp172
Rp173
aaa(lp174
(lp175
S'../Data/storm-obj1_feature8.csv'
p176
aa(lp177
g7
(g11
S'\xf0\x96\x98JL%\x02@'
p178
tp179
Rp180
aaasS'x264'
p181
(lp182
(lp183
(lp184
S'../Data/x264_11.csv'
p185
aa(lp186
g7
(g11
S'\xea\x02\xd7\x92\xaa-\xf8?'
p187
tp188
Rp189
aaa(lp190
(lp191
S'../Data/x264_8.csv'
p192
aa(lp193
g7
(g11
S'\xea\x02\xd7\x92\xaa-\xf8?'
p194
tp195
Rp196
aaa(lp197
(lp198
S'../Data/x264_10.csv'
p199
aa(lp200
g7
(g11
S'\xaa\xee\xd0\x8a\xa3\x9c\xed?'
p201
tp202
Rp203
aaa(lp204
(lp205
g185
aa(lp206
g7
(g11
S'\xea\x02\xd7\x92\xaa-\xf8?'
p207
tp208
Rp209
aaa(lp210
(lp211
S'../Data/x264_0.csv'
p212
aa(lp213
g7
(g11
S'\x97\xbf\xd5\x92\xfbo<@'
p214
tp215
Rp216
aaas.