(dp0
S'sqlite'
p1
(lp2
(lp3
(lp4
S'../Data/sqlite_44.csv'
p5
aa(lp6
cnumpy.core.multiarray
scalar
p7
(cnumpy
dtype
p8
(S'f8'
p9
I0
I1
tp10
Rp11
(I3
S'<'
p12
NNNI-1
I-1
I0
tp13
bS'\xe0r:1|\xd6\x01@'
p14
tp15
Rp16
aaa(lp17
(lp18
S'../Data/sqlite_10.csv'
p19
aa(lp20
g7
(g11
S'\x15\xf2,\xa9U;\x13@'
p21
tp22
Rp23
aaa(lp24
(lp25
S'../Data/sqlite_11.csv'
p26
aa(lp27
g7
(g11
S'z/1,\xbc\xfd\x1a@'
p28
tp29
Rp30
aaa(lp31
(lp32
S'../Data/sqlite_73.csv'
p33
aa(lp34
g7
(g11
S'\xd2\xb62\xbe\xeb\xbb\x07@'
p35
tp36
Rp37
aaa(lp38
(lp39
S'../Data/sqlite_97.csv'
p40
aa(lp41
g7
(g11
S'\x81\xb2\x89\xb3Wf\x1f@'
p42
tp43
Rp44
aaasS'spear'
p45
(lp46
(lp47
(lp48
S'../Data/spear_1.csv'
p49
aa(lp50
g7
(g11
S'\xf4\x01\x8a/\x0bl\xb9?'
p51
tp52
Rp53
aaa(lp54
(lp55
S'../Data/spear_7.csv'
p56
aa(lp57
g7
(g11
S'\xf4\x01\x8a/\x0bl\xb9?'
p58
tp59
Rp60
aaa(lp61
(lp62
g56
aa(lp63
g7
(g11
S'\xf4\x01\x8a/\x0bl\xb9?'
p64
tp65
Rp66
aaa(lp67
(lp68
g56
aa(lp69
g7
(g11
S'\xf4\x01\x8a/\x0bl\xb9?'
p70
tp71
Rp72
aaa(lp73
(lp74
g56
aa(lp75
g7
(g11
S'\xf4\x01\x8a/\x0bl\xb9?'
p76
tp77
Rp78
aaasS'sac'
p79
(lp80
(lp81
(lp82
S'../Data/sac_4.csv'
p83
aa(lp84
g7
(g11
S'f\xfeA\x82\xddq\xe4?'
p85
tp86
Rp87
aaa(lp88
(lp89
S'../Data/sac_2.csv'
p90
aa(lp91
g7
(g11
S'\x00\x00\x00\x00\x00\x00Y@'
p92
tp93
Rp94
aaa(lp95
(lp96
S'../Data/sac_9.csv'
p97
aa(lp98
g7
(g11
S'\x8e\x08\x1a\x03\x9b\xca\x12@'
p99
tp100
Rp101
aaa(lp102
(lp103
S'../Data/sac_6.csv'
p104
aa(lp105
g7
(g11
S'@%4\xe3y@\xd2?'
p106
tp107
Rp108
aaa(lp109
(lp110
g83
aa(lp111
g7
(g11
S'f\xfeA\x82\xddq\xe4?'
p112
tp113
Rp114
aaasS'storm-obj2'
p115
(lp116
(lp117
(lp118
S'../Data/storm-obj2_feature9.csv'
p119
aa(lp120
g7
(g11
S'\x00\x00\x00\x00\x00\x00\x00\x00'
p121
tp122
Rp123
aaa(lp124
(lp125
g119
aa(lp126
g7
(g11
S'\x00\x00\x00\x00\x00\x00\x00\x00'
p127
tp128
Rp129
aaa(lp130
(lp131
g119
aa(lp132
g7
(g11
S'\x00\x00\x00\x00\x00\x00\x00\x00'
p133
tp134
Rp135
aaa(lp136
(lp137
g119
aa(lp138
g7
(g11
S'\x00\x00\x00\x00\x00\x00\x00\x00'
p139
tp140
Rp141
aaa(lp142
(lp143
g119
aa(lp144
g7
(g11
S'\x00\x00\x00\x00\x00\x00\x00\x00'
p145
tp146
Rp147
aaasS'storm-obj1'
p148
(lp149
(lp150
(lp151
S'../Data/storm-obj1_feature9.csv'
p152
aa(lp153
g7
(g11
S'\xad\x88\x03\xf1-qI@'
p154
tp155
Rp156
aaa(lp157
(lp158
S'../Data/storm-obj1_feature8.csv'
p159
aa(lp160
g7
(g11
S'\xf0\x96\x98JL%\x02@'
p161
tp162
Rp163
aaa(lp164
(lp165
g159
aa(lp166
g7
(g11
S'\xf0\x96\x98JL%\x02@'
p167
tp168
Rp169
aaa(lp170
(lp171
g159
aa(lp172
g7
(g11
S'\xf0\x96\x98JL%\x02@'
p173
tp174
Rp175
aaa(lp176
(lp177
g152
aa(lp178
g7
(g11
S'\xad\x88\x03\xf1-qI@'
p179
tp180
Rp181
aaasS'x264'
p182
(lp183
(lp184
(lp185
S'../Data/x264_11.csv'
p186
aa(lp187
g7
(g11
S'\xea\x02\xd7\x92\xaa-\xf8?'
p188
tp189
Rp190
aaa(lp191
(lp192
S'../Data/x264_8.csv'
p193
aa(lp194
g7
(g11
S'\xea\x02\xd7\x92\xaa-\xf8?'
p195
tp196
Rp197
aaa(lp198
(lp199
S'../Data/x264_7.csv'
p200
aa(lp201
g7
(g11
S'\xaa\xee\xd0\x8a\xa3\x9c\xed?'
p202
tp203
Rp204
aaa(lp205
(lp206
g200
aa(lp207
g7
(g11
S'\xaa\xee\xd0\x8a\xa3\x9c\xed?'
p208
tp209
Rp210
aaa(lp211
(lp212
g200
aa(lp213
g7
(g11
S'\xaa\xee\xd0\x8a\xa3\x9c\xed?'
p214
tp215
Rp216
aaas.