(dp0
S'sqlite'
p1
(lp2
(lp3
(lp4
S'../Data/sqlite_16.csv'
p5
aa(lp6
cnumpy.core.multiarray
scalar
p7
(cnumpy
dtype
p8
(S'f8'
p9
I0
I1
tp10
Rp11
(I3
S'<'
p12
NNNI-1
I-1
I0
tp13
bS'\x10\xb6\x16-R\x16\x0f@'
p14
tp15
Rp16
aaa(lp17
(lp18
S'../Data/sqlite_44.csv'
p19
aa(lp20
g7
(g11
S'\xe0r:1|\xd6\x01@'
p21
tp22
Rp23
aaa(lp24
(lp25
S'../Data/sqlite_45.csv'
p26
aa(lp27
g7
(g11
S'\xd4\xe32\x92r\xd3\x0b@'
p28
tp29
Rp30
aaa(lp31
(lp32
S'../Data/sqlite_19.csv'
p33
aa(lp34
g7
(g11
S'T\x93\xe0\x98/\xce\x00@'
p35
tp36
Rp37
aaa(lp38
(lp39
g19
aa(lp40
g7
(g11
S'\xe0r:1|\xd6\x01@'
p41
tp42
Rp43
aaasS'spear'
p44
(lp45
(lp46
(lp47
S'../Data/spear_7.csv'
p48
aa(lp49
g7
(g11
S'\xf4\x01\x8a/\x0bl\xb9?'
p50
tp51
Rp52
aaa(lp53
(lp54
g48
aa(lp55
g7
(g11
S'\xf4\x01\x8a/\x0bl\xb9?'
p56
tp57
Rp58
aaa(lp59
(lp60
S'../Data/spear_1.csv'
p61
aa(lp62
g7
(g11
S'\xf4\x01\x8a/\x0bl\xb9?'
p63
tp64
Rp65
aaa(lp66
(lp67
S'../Data/spear_9.csv'
p68
aa(lp69
g7
(g11
S'\xf4\x01\x8a/\x0bl\xb9?'
p70
tp71
Rp72
aaa(lp73
(lp74
g48
aa(lp75
g7
(g11
S'\xf4\x01\x8a/\x0bl\xb9?'
p76
tp77
Rp78
aaasS'sac'
p79
(lp80
(lp81
(lp82
S'../Data/sac_4.csv'
p83
aa(lp84
g7
(g11
S'f\xfeA\x82\xddq\xe4?'
p85
tp86
Rp87
aaa(lp88
(lp89
g83
aa(lp90
g7
(g11
S'f\xfeA\x82\xddq\xe4?'
p91
tp92
Rp93
aaa(lp94
(lp95
g83
aa(lp96
g7
(g11
S'f\xfeA\x82\xddq\xe4?'
p97
tp98
Rp99
aaa(lp100
(lp101
g83
aa(lp102
g7
(g11
S'f\xfeA\x82\xddq\xe4?'
p103
tp104
Rp105
aaa(lp106
(lp107
g83
aa(lp108
g7
(g11
S'f\xfeA\x82\xddq\xe4?'
p109
tp110
Rp111
aaasS'storm-obj2'
p112
(lp113
(lp114
(lp115
S'../Data/storm-obj2_feature9.csv'
p116
aa(lp117
g7
(g11
S'\x00\x00\x00\x00\x00\x00\x00\x00'
p118
tp119
Rp120
aaa(lp121
(lp122
g116
aa(lp123
g7
(g11
S'\x00\x00\x00\x00\x00\x00\x00\x00'
p124
tp125
Rp126
aaa(lp127
(lp128
g116
aa(lp129
g7
(g11
S'\x00\x00\x00\x00\x00\x00\x00\x00'
p130
tp131
Rp132
aaa(lp133
(lp134
g116
aa(lp135
g7
(g11
S'\x00\x00\x00\x00\x00\x00\x00\x00'
p136
tp137
Rp138
aaa(lp139
(lp140
g116
aa(lp141
g7
(g11
S'\x00\x00\x00\x00\x00\x00\x00\x00'
p142
tp143
Rp144
aaasS'storm-obj1'
p145
(lp146
(lp147
(lp148
S'../Data/storm-obj1_feature8.csv'
p149
aa(lp150
g7
(g11
S'\xf0\x96\x98JL%\x02@'
p151
tp152
Rp153
aaa(lp154
(lp155
g149
aa(lp156
g7
(g11
S'\xf0\x96\x98JL%\x02@'
p157
tp158
Rp159
aaa(lp160
(lp161
S'../Data/storm-obj1_feature9.csv'
p162
aa(lp163
g7
(g11
S'\xad\x88\x03\xf1-qI@'
p164
tp165
Rp166
aaa(lp167
(lp168
g149
aa(lp169
g7
(g11
S'\xf0\x96\x98JL%\x02@'
p170
tp171
Rp172
aaa(lp173
(lp174
g149
aa(lp175
g7
(g11
S'\xf0\x96\x98JL%\x02@'
p176
tp177
Rp178
aaasS'x264'
p179
(lp180
(lp181
(lp182
S'../Data/x264_18.csv'
p183
aa(lp184
g7
(g11
S'\x9c^\xf9)\xdba\xd2?'
p185
tp186
Rp187
aaa(lp188
(lp189
S'../Data/x264_9.csv'
p190
aa(lp191
g7
(g11
S'\x9c^\xf9)\xdba\xd2?'
p192
tp193
Rp194
aaa(lp195
(lp196
S'../Data/x264_7.csv'
p197
aa(lp198
g7
(g11
S'\xaa\xee\xd0\x8a\xa3\x9c\xed?'
p199
tp200
Rp201
aaa(lp202
(lp203
S'../Data/x264_16.csv'
p204
aa(lp205
g7
(g11
S'\x8e^L\x9e\xd0\xc5\x01@'
p206
tp207
Rp208
aaa(lp209
(lp210
S'../Data/x264_8.csv'
p211
aa(lp212
g7
(g11
S'\xea\x02\xd7\x92\xaa-\xf8?'
p213
tp214
Rp215
aaas.