(dp0
S'sqlite'
p1
(lp2
(lp3
(lp4
S'../Data/sqlite_73.csv'
p5
aa(lp6
cnumpy.core.multiarray
scalar
p7
(cnumpy
dtype
p8
(S'f8'
p9
I0
I1
tp10
Rp11
(I3
S'<'
p12
NNNI-1
I-1
I0
tp13
bS'\xd2\xb62\xbe\xeb\xbb\x07@'
p14
tp15
Rp16
aaa(lp17
(lp18
S'../Data/sqlite_17.csv'
p19
aa(lp20
g7
(g11
S'\x98\x1f\xba\x04s\xc1\xeb?'
p21
tp22
Rp23
aaa(lp24
(lp25
S'../Data/sqlite_44.csv'
p26
aa(lp27
g7
(g11
S'\xe0r:1|\xd6\x01@'
p28
tp29
Rp30
aaa(lp31
(lp32
S'../Data/sqlite_52.csv'
p33
aa(lp34
g7
(g11
S'd~p=\x9b\xef\x1d@'
p35
tp36
Rp37
aaa(lp38
(lp39
S'../Data/sqlite_18.csv'
p40
aa(lp41
g7
(g11
S'\xb1\xb7\x00\xb4n{2@'
p42
tp43
Rp44
aaasS'spear'
p45
(lp46
(lp47
(lp48
S'../Data/spear_7.csv'
p49
aa(lp50
g7
(g11
S'\xf4\x01\x8a/\x0bl\xb9?'
p51
tp52
Rp53
aaa(lp54
(lp55
g49
aa(lp56
g7
(g11
S'\xf4\x01\x8a/\x0bl\xb9?'
p57
tp58
Rp59
aaa(lp60
(lp61
g49
aa(lp62
g7
(g11
S'\xf4\x01\x8a/\x0bl\xb9?'
p63
tp64
Rp65
aaa(lp66
(lp67
g49
aa(lp68
g7
(g11
S'\xf4\x01\x8a/\x0bl\xb9?'
p69
tp70
Rp71
aaa(lp72
(lp73
g49
aa(lp74
g7
(g11
S'\xf4\x01\x8a/\x0bl\xb9?'
p75
tp76
Rp77
aaasS'sac'
p78
(lp79
(lp80
(lp81
S'../Data/sac_2.csv'
p82
aa(lp83
g7
(g11
S'\x00\x00\x00\x00\x00\x00Y@'
p84
tp85
Rp86
aaa(lp87
(lp88
g82
aa(lp89
g7
(g11
S'\x00\x00\x00\x00\x00\x00Y@'
p90
tp91
Rp92
aaa(lp93
(lp94
S'../Data/sac_4.csv'
p95
aa(lp96
g7
(g11
S'f\xfeA\x82\xddq\xe4?'
p97
tp98
Rp99
aaa(lp100
(lp101
g82
aa(lp102
g7
(g11
S'\x00\x00\x00\x00\x00\x00Y@'
p103
tp104
Rp105
aaa(lp106
(lp107
g95
aa(lp108
g7
(g11
S'f\xfeA\x82\xddq\xe4?'
p109
tp110
Rp111
aaasS'storm-obj2'
p112
(lp113
(lp114
(lp115
S'../Data/storm-obj2_feature9.csv'
p116
aa(lp117
g7
(g11
S'\x00\x00\x00\x00\x00\x00\x00\x00'
p118
tp119
Rp120
aaa(lp121
(lp122
g116
aa(lp123
g7
(g11
S'\x00\x00\x00\x00\x00\x00\x00\x00'
p124
tp125
Rp126
aaa(lp127
(lp128
g116
aa(lp129
g7
(g11
S'\x00\x00\x00\x00\x00\x00\x00\x00'
p130
tp131
Rp132
aaa(lp133
(lp134
g116
aa(lp135
g7
(g11
S'\x00\x00\x00\x00\x00\x00\x00\x00'
p136
tp137
Rp138
aaa(lp139
(lp140
g116
aa(lp141
g7
(g11
S'\x00\x00\x00\x00\x00\x00\x00\x00'
p142
tp143
Rp144
aaasS'storm-obj1'
p145
(lp146
(lp147
(lp148
S'../Data/storm-obj1_feature8.csv'
p149
aa(lp150
g7
(g11
S'\xf0\x96\x98JL%\x02@'
p151
tp152
Rp153
aaa(lp154
(lp155
g149
aa(lp156
g7
(g11
S'\xf0\x96\x98JL%\x02@'
p157
tp158
Rp159
aaa(lp160
(lp161
g149
aa(lp162
g7
(g11
S'\xf0\x96\x98JL%\x02@'
p163
tp164
Rp165
aaa(lp166
(lp167
g149
aa(lp168
g7
(g11
S'\xf0\x96\x98JL%\x02@'
p169
tp170
Rp171
aaa(lp172
(lp173
g149
aa(lp174
g7
(g11
S'\xf0\x96\x98JL%\x02@'
p175
tp176
Rp177
aaasS'x264'
p178
(lp179
(lp180
(lp181
S'../Data/x264_11.csv'
p182
aa(lp183
g7
(g11
S'\xea\x02\xd7\x92\xaa-\xf8?'
p184
tp185
Rp186
aaa(lp187
(lp188
S'../Data/x264_3.csv'
p189
aa(lp190
g7
(g11
S'\xf5\xde\xdf\xd3\x8f\x9d\x1e@'
p191
tp192
Rp193
aaa(lp194
(lp195
S'../Data/x264_6.csv'
p196
aa(lp197
g7
(g11
S'\x97&u\xa9ld\x01@'
p198
tp199
Rp200
aaa(lp201
(lp202
S'../Data/x264_10.csv'
p203
aa(lp204
g7
(g11
S'\xaa\xee\xd0\x8a\xa3\x9c\xed?'
p205
tp206
Rp207
aaa(lp208
(lp209
S'../Data/x264_19.csv'
p210
aa(lp211
g7
(g11
S'E\r\xb7\x94\x08\xd5\x16@'
p212
tp213
Rp214
aaas.