(dp0
S'sqlite'
p1
(lp2
(lp3
(lp4
S'../Data/sqlite_16.csv'
p5
aa(lp6
cnumpy.core.multiarray
scalar
p7
(cnumpy
dtype
p8
(S'f8'
p9
I0
I1
tp10
Rp11
(I3
S'<'
p12
NNNI-1
I-1
I0
tp13
bS'\x10\xb6\x16-R\x16\x0f@'
p14
tp15
Rp16
aaa(lp17
(lp18
g5
aa(lp19
g7
(g11
S'\x10\xb6\x16-R\x16\x0f@'
p20
tp21
Rp22
aaa(lp23
(lp24
S'../Data/sqlite_10.csv'
p25
aa(lp26
g7
(g11
S'\x15\xf2,\xa9U;\x13@'
p27
tp28
Rp29
aaa(lp30
(lp31
S'../Data/sqlite_52.csv'
p32
aa(lp33
g7
(g11
S'd~p=\x9b\xef\x1d@'
p34
tp35
Rp36
aaa(lp37
(lp38
S'../Data/sqlite_45.csv'
p39
aa(lp40
g7
(g11
S'\xd4\xe32\x92r\xd3\x0b@'
p41
tp42
Rp43
aaasS'spear'
p44
(lp45
(lp46
(lp47
S'../Data/spear_7.csv'
p48
aa(lp49
g7
(g11
S'\xf4\x01\x8a/\x0bl\xb9?'
p50
tp51
Rp52
aaa(lp53
(lp54
S'../Data/spear_1.csv'
p55
aa(lp56
g7
(g11
S'\xf4\x01\x8a/\x0bl\xb9?'
p57
tp58
Rp59
aaa(lp60
(lp61
g48
aa(lp62
g7
(g11
S'\xf4\x01\x8a/\x0bl\xb9?'
p63
tp64
Rp65
aaa(lp66
(lp67
g48
aa(lp68
g7
(g11
S'\xf4\x01\x8a/\x0bl\xb9?'
p69
tp70
Rp71
aaa(lp72
(lp73
g48
aa(lp74
g7
(g11
S'\xf4\x01\x8a/\x0bl\xb9?'
p75
tp76
Rp77
aaasS'sac'
p78
(lp79
(lp80
(lp81
S'../Data/sac_2.csv'
p82
aa(lp83
g7
(g11
S'\x00\x00\x00\x00\x00\x00Y@'
p84
tp85
Rp86
aaa(lp87
(lp88
g82
aa(lp89
g7
(g11
S'\x00\x00\x00\x00\x00\x00Y@'
p90
tp91
Rp92
aaa(lp93
(lp94
g82
aa(lp95
g7
(g11
S'\x00\x00\x00\x00\x00\x00Y@'
p96
tp97
Rp98
aaa(lp99
(lp100
S'../Data/sac_9.csv'
p101
aa(lp102
g7
(g11
S'\x8e\x08\x1a\x03\x9b\xca\x12@'
p103
tp104
Rp105
aaa(lp106
(lp107
g82
aa(lp108
g7
(g11
S'\x00\x00\x00\x00\x00\x00Y@'
p109
tp110
Rp111
aaasS'storm-obj2'
p112
(lp113
(lp114
(lp115
S'../Data/storm-obj2_feature9.csv'
p116
aa(lp117
g7
(g11
S'\x00\x00\x00\x00\x00\x00\x00\x00'
p118
tp119
Rp120
aaa(lp121
(lp122
g116
aa(lp123
g7
(g11
S'\x00\x00\x00\x00\x00\x00\x00\x00'
p124
tp125
Rp126
aaa(lp127
(lp128
g116
aa(lp129
g7
(g11
S'\x00\x00\x00\x00\x00\x00\x00\x00'
p130
tp131
Rp132
aaa(lp133
(lp134
g116
aa(lp135
g7
(g11
S'\x00\x00\x00\x00\x00\x00\x00\x00'
p136
tp137
Rp138
aaa(lp139
(lp140
g116
aa(lp141
g7
(g11
S'\x00\x00\x00\x00\x00\x00\x00\x00'
p142
tp143
Rp144
aaasS'storm-obj1'
p145
(lp146
(lp147
(lp148
S'../Data/storm-obj1_feature9.csv'
p149
aa(lp150
g7
(g11
S'\xad\x88\x03\xf1-qI@'
p151
tp152
Rp153
aaa(lp154
(lp155
S'../Data/storm-obj1_feature6.csv'
p156
aa(lp157
g7
(g11
S'$*\xe4+\xb9\x070@'
p158
tp159
Rp160
aaa(lp161
(lp162
S'../Data/storm-obj1_feature8.csv'
p163
aa(lp164
g7
(g11
S'\xf0\x96\x98JL%\x02@'
p165
tp166
Rp167
aaa(lp168
(lp169
g163
aa(lp170
g7
(g11
S'\xf0\x96\x98JL%\x02@'
p171
tp172
Rp173
aaa(lp174
(lp175
g163
aa(lp176
g7
(g11
S'\xf0\x96\x98JL%\x02@'
p177
tp178
Rp179
aaasS'x264'
p180
(lp181
(lp182
(lp183
S'../Data/x264_9.csv'
p184
aa(lp185
g7
(g11
S'\x9c^\xf9)\xdba\xd2?'
p186
tp187
Rp188
aaa(lp189
(lp190
S'../Data/x264_11.csv'
p191
aa(lp192
g7
(g11
S'\xea\x02\xd7\x92\xaa-\xf8?'
p193
tp194
Rp195
aaa(lp196
(lp197
g191
aa(lp198
g7
(g11
S'\xea\x02\xd7\x92\xaa-\xf8?'
p199
tp200
Rp201
aaa(lp202
(lp203
S'../Data/x264_19.csv'
p204
aa(lp205
g7
(g11
S'E\r\xb7\x94\x08\xd5\x16@'
p206
tp207
Rp208
aaa(lp209
(lp210
g191
aa(lp211
g7
(g11
S'\xea\x02\xd7\x92\xaa-\xf8?'
p212
tp213
Rp214
aaas.