(dp0
S'sqlite'
p1
(lp2
(lp3
(lp4
S'../Data/sqlite_59.csv'
p5
aa(lp6
cnumpy.core.multiarray
scalar
p7
(cnumpy
dtype
p8
(S'f8'
p9
I0
I1
tp10
Rp11
(I3
S'<'
p12
NNNI-1
I-1
I0
tp13
bS'\xd4|\xf2\xde\xd5\xc5\x00@'
p14
tp15
Rp16
aaa(lp17
(lp18
S'../Data/sqlite_44.csv'
p19
aa(lp20
g7
(g11
S'\xe0r:1|\xd6\x01@'
p21
tp22
Rp23
aaa(lp24
(lp25
S'../Data/sqlite_73.csv'
p26
aa(lp27
g7
(g11
S'\xd2\xb62\xbe\xeb\xbb\x07@'
p28
tp29
Rp30
aaa(lp31
(lp32
S'../Data/sqlite_79.csv'
p33
aa(lp34
g7
(g11
S'TJ\x86\x1e\\\xf5\x16@'
p35
tp36
Rp37
aaa(lp38
(lp39
S'../Data/sqlite_96.csv'
p40
aa(lp41
g7
(g11
S'\xca\x14\xfe5O\xbf\x16@'
p42
tp43
Rp44
aaasS'spear'
p45
(lp46
(lp47
(lp48
S'../Data/spear_7.csv'
p49
aa(lp50
g7
(g11
S'\xf4\x01\x8a/\x0bl\xb9?'
p51
tp52
Rp53
aaa(lp54
(lp55
g49
aa(lp56
g7
(g11
S'\xf4\x01\x8a/\x0bl\xb9?'
p57
tp58
Rp59
aaa(lp60
(lp61
g49
aa(lp62
g7
(g11
S'\xf4\x01\x8a/\x0bl\xb9?'
p63
tp64
Rp65
aaa(lp66
(lp67
S'../Data/spear_1.csv'
p68
aa(lp69
g7
(g11
S'\xf4\x01\x8a/\x0bl\xb9?'
p70
tp71
Rp72
aaa(lp73
(lp74
g49
aa(lp75
g7
(g11
S'\xf4\x01\x8a/\x0bl\xb9?'
p76
tp77
Rp78
aaasS'sac'
p79
(lp80
(lp81
(lp82
S'../Data/sac_2.csv'
p83
aa(lp84
g7
(g11
S'\x00\x00\x00\x00\x00\x00Y@'
p85
tp86
Rp87
aaa(lp88
(lp89
S'../Data/sac_8.csv'
p90
aa(lp91
g7
(g11
S'oZ\x1e\x8c\xd9\x85\xec?'
p92
tp93
Rp94
aaa(lp95
(lp96
S'../Data/sac_9.csv'
p97
aa(lp98
g7
(g11
S'\x8e\x08\x1a\x03\x9b\xca\x12@'
p99
tp100
Rp101
aaa(lp102
(lp103
S'../Data/sac_4.csv'
p104
aa(lp105
g7
(g11
S'f\xfeA\x82\xddq\xe4?'
p106
tp107
Rp108
aaa(lp109
(lp110
g104
aa(lp111
g7
(g11
S'f\xfeA\x82\xddq\xe4?'
p112
tp113
Rp114
aaasS'storm-obj2'
p115
(lp116
(lp117
(lp118
S'../Data/storm-obj2_feature9.csv'
p119
aa(lp120
g7
(g11
S'\x00\x00\x00\x00\x00\x00\x00\x00'
p121
tp122
Rp123
aaa(lp124
(lp125
g119
aa(lp126
g7
(g11
S'\x00\x00\x00\x00\x00\x00\x00\x00'
p127
tp128
Rp129
aaa(lp130
(lp131
g119
aa(lp132
g7
(g11
S'\x00\x00\x00\x00\x00\x00\x00\x00'
p133
tp134
Rp135
aaa(lp136
(lp137
g119
aa(lp138
g7
(g11
S'\x00\x00\x00\x00\x00\x00\x00\x00'
p139
tp140
Rp141
aaa(lp142
(lp143
g119
aa(lp144
g7
(g11
S'\x00\x00\x00\x00\x00\x00\x00\x00'
p145
tp146
Rp147
aaasS'storm-obj1'
p148
(lp149
(lp150
(lp151
S'../Data/storm-obj1_feature8.csv'
p152
aa(lp153
g7
(g11
S'\xf0\x96\x98JL%\x02@'
p154
tp155
Rp156
aaa(lp157
(lp158
g152
aa(lp159
g7
(g11
S'\xf0\x96\x98JL%\x02@'
p160
tp161
Rp162
aaa(lp163
(lp164
g152
aa(lp165
g7
(g11
S'\xf0\x96\x98JL%\x02@'
p166
tp167
Rp168
aaa(lp169
(lp170
g152
aa(lp171
g7
(g11
S'\xf0\x96\x98JL%\x02@'
p172
tp173
Rp174
aaa(lp175
(lp176
g152
aa(lp177
g7
(g11
S'\xf0\x96\x98JL%\x02@'
p178
tp179
Rp180
aaasS'x264'
p181
(lp182
(lp183
(lp184
S'../Data/x264_10.csv'
p185
aa(lp186
g7
(g11
S'\xaa\xee\xd0\x8a\xa3\x9c\xed?'
p187
tp188
Rp189
aaa(lp190
(lp191
S'../Data/x264_7.csv'
p192
aa(lp193
g7
(g11
S'\xaa\xee\xd0\x8a\xa3\x9c\xed?'
p194
tp195
Rp196
aaa(lp197
(lp198
g192
aa(lp199
g7
(g11
S'\xaa\xee\xd0\x8a\xa3\x9c\xed?'
p200
tp201
Rp202
aaa(lp203
(lp204
S'../Data/x264_9.csv'
p205
aa(lp206
g7
(g11
S'\x9c^\xf9)\xdba\xd2?'
p207
tp208
Rp209
aaa(lp210
(lp211
g185
aa(lp212
g7
(g11
S'\xaa\xee\xd0\x8a\xa3\x9c\xed?'
p213
tp214
Rp215
aaas.