(dp0
S'sqlite'
p1
(lp2
(lp3
(lp4
S'../Data/sqlite_17.csv'
p5
aa(lp6
cnumpy.core.multiarray
scalar
p7
(cnumpy
dtype
p8
(S'f8'
p9
I0
I1
tp10
Rp11
(I3
S'<'
p12
NNNI-1
I-1
I0
tp13
bS'\x98\x1f\xba\x04s\xc1\xeb?'
p14
tp15
Rp16
aaa(lp17
(lp18
S'../Data/sqlite_16.csv'
p19
aa(lp20
g7
(g11
S'\x10\xb6\x16-R\x16\x0f@'
p21
tp22
Rp23
aaa(lp24
(lp25
g19
aa(lp26
g7
(g11
S'\x10\xb6\x16-R\x16\x0f@'
p27
tp28
Rp29
aaa(lp30
(lp31
S'../Data/sqlite_44.csv'
p32
aa(lp33
g7
(g11
S'\xe0r:1|\xd6\x01@'
p34
tp35
Rp36
aaa(lp37
(lp38
S'../Data/sqlite_59.csv'
p39
aa(lp40
g7
(g11
S'\xd4|\xf2\xde\xd5\xc5\x00@'
p41
tp42
Rp43
aaasS'spear'
p44
(lp45
(lp46
(lp47
S'../Data/spear_7.csv'
p48
aa(lp49
g7
(g11
S'\xf4\x01\x8a/\x0bl\xb9?'
p50
tp51
Rp52
aaa(lp53
(lp54
g48
aa(lp55
g7
(g11
S'\xf4\x01\x8a/\x0bl\xb9?'
p56
tp57
Rp58
aaa(lp59
(lp60
g48
aa(lp61
g7
(g11
S'\xf4\x01\x8a/\x0bl\xb9?'
p62
tp63
Rp64
aaa(lp65
(lp66
g48
aa(lp67
g7
(g11
S'\xf4\x01\x8a/\x0bl\xb9?'
p68
tp69
Rp70
aaa(lp71
(lp72
g48
aa(lp73
g7
(g11
S'\xf4\x01\x8a/\x0bl\xb9?'
p74
tp75
Rp76
aaasS'sac'
p77
(lp78
(lp79
(lp80
S'../Data/sac_4.csv'
p81
aa(lp82
g7
(g11
S'f\xfeA\x82\xddq\xe4?'
p83
tp84
Rp85
aaa(lp86
(lp87
S'../Data/sac_8.csv'
p88
aa(lp89
g7
(g11
S'oZ\x1e\x8c\xd9\x85\xec?'
p90
tp91
Rp92
aaa(lp93
(lp94
g81
aa(lp95
g7
(g11
S'f\xfeA\x82\xddq\xe4?'
p96
tp97
Rp98
aaa(lp99
(lp100
S'../Data/sac_9.csv'
p101
aa(lp102
g7
(g11
S'\x8e\x08\x1a\x03\x9b\xca\x12@'
p103
tp104
Rp105
aaa(lp106
(lp107
g81
aa(lp108
g7
(g11
S'f\xfeA\x82\xddq\xe4?'
p109
tp110
Rp111
aaasS'storm-obj2'
p112
(lp113
(lp114
(lp115
S'../Data/storm-obj2_feature9.csv'
p116
aa(lp117
g7
(g11
S'\x00\x00\x00\x00\x00\x00\x00\x00'
p118
tp119
Rp120
aaa(lp121
(lp122
g116
aa(lp123
g7
(g11
S'\x00\x00\x00\x00\x00\x00\x00\x00'
p124
tp125
Rp126
aaa(lp127
(lp128
g116
aa(lp129
g7
(g11
S'\x00\x00\x00\x00\x00\x00\x00\x00'
p130
tp131
Rp132
aaa(lp133
(lp134
g116
aa(lp135
g7
(g11
S'\x00\x00\x00\x00\x00\x00\x00\x00'
p136
tp137
Rp138
aaa(lp139
(lp140
g116
aa(lp141
g7
(g11
S'\x00\x00\x00\x00\x00\x00\x00\x00'
p142
tp143
Rp144
aaasS'storm-obj1'
p145
(lp146
(lp147
(lp148
S'../Data/storm-obj1_feature8.csv'
p149
aa(lp150
g7
(g11
S'\xf0\x96\x98JL%\x02@'
p151
tp152
Rp153
aaa(lp154
(lp155
S'../Data/storm-obj1_feature9.csv'
p156
aa(lp157
g7
(g11
S'\xad\x88\x03\xf1-qI@'
p158
tp159
Rp160
aaa(lp161
(lp162
g149
aa(lp163
g7
(g11
S'\xf0\x96\x98JL%\x02@'
p164
tp165
Rp166
aaa(lp167
(lp168
g149
aa(lp169
g7
(g11
S'\xf0\x96\x98JL%\x02@'
p170
tp171
Rp172
aaa(lp173
(lp174
g156
aa(lp175
g7
(g11
S'\xad\x88\x03\xf1-qI@'
p176
tp177
Rp178
aaasS'x264'
p179
(lp180
(lp181
(lp182
S'../Data/x264_2.csv'
p183
aa(lp184
g7
(g11
S'\x8e^L\x9e\xd0\xc5\x01@'
p185
tp186
Rp187
aaa(lp188
(lp189
S'../Data/x264_9.csv'
p190
aa(lp191
g7
(g11
S'\x9c^\xf9)\xdba\xd2?'
p192
tp193
Rp194
aaa(lp195
(lp196
g190
aa(lp197
g7
(g11
S'\x9c^\xf9)\xdba\xd2?'
p198
tp199
Rp200
aaa(lp201
(lp202
S'../Data/x264_8.csv'
p203
aa(lp204
g7
(g11
S'\xea\x02\xd7\x92\xaa-\xf8?'
p205
tp206
Rp207
aaa(lp208
(lp209
S'../Data/x264_3.csv'
p210
aa(lp211
g7
(g11
S'\xf5\xde\xdf\xd3\x8f\x9d\x1e@'
p212
tp213
Rp214
aaas.