(dp0
S'sqlite'
p1
(lp2
(lp3
(lp4
S'../Data/sqlite_19.csv'
p5
aa(lp6
cnumpy.core.multiarray
scalar
p7
(cnumpy
dtype
p8
(S'f8'
p9
I0
I1
tp10
Rp11
(I3
S'<'
p12
NNNI-1
I-1
I0
tp13
bS'T\x93\xe0\x98/\xce\x00@'
p14
tp15
Rp16
aaa(lp17
(lp18
S'../Data/sqlite_73.csv'
p19
aa(lp20
g7
(g11
S'\xd2\xb62\xbe\xeb\xbb\x07@'
p21
tp22
Rp23
aaa(lp24
(lp25
g5
aa(lp26
g7
(g11
S'T\x93\xe0\x98/\xce\x00@'
p27
tp28
Rp29
aaa(lp30
(lp31
S'../Data/sqlite_52.csv'
p32
aa(lp33
g7
(g11
S'd~p=\x9b\xef\x1d@'
p34
tp35
Rp36
aaa(lp37
(lp38
S'../Data/sqlite_45.csv'
p39
aa(lp40
g7
(g11
S'\xd4\xe32\x92r\xd3\x0b@'
p41
tp42
Rp43
aaasS'spear'
p44
(lp45
(lp46
(lp47
S'../Data/spear_7.csv'
p48
aa(lp49
g7
(g11
S'\xf4\x01\x8a/\x0bl\xb9?'
p50
tp51
Rp52
aaa(lp53
(lp54
S'../Data/spear_1.csv'
p55
aa(lp56
g7
(g11
S'\xf4\x01\x8a/\x0bl\xb9?'
p57
tp58
Rp59
aaa(lp60
(lp61
g55
aa(lp62
g7
(g11
S'\xf4\x01\x8a/\x0bl\xb9?'
p63
tp64
Rp65
aaa(lp66
(lp67
g48
aa(lp68
g7
(g11
S'\xf4\x01\x8a/\x0bl\xb9?'
p69
tp70
Rp71
aaa(lp72
(lp73
g48
aa(lp74
g7
(g11
S'\xf4\x01\x8a/\x0bl\xb9?'
p75
tp76
Rp77
aaasS'sac'
p78
(lp79
(lp80
(lp81
S'../Data/sac_4.csv'
p82
aa(lp83
g7
(g11
S'f\xfeA\x82\xddq\xe4?'
p84
tp85
Rp86
aaa(lp87
(lp88
g82
aa(lp89
g7
(g11
S'f\xfeA\x82\xddq\xe4?'
p90
tp91
Rp92
aaa(lp93
(lp94
g82
aa(lp95
g7
(g11
S'f\xfeA\x82\xddq\xe4?'
p96
tp97
Rp98
aaa(lp99
(lp100
g82
aa(lp101
g7
(g11
S'f\xfeA\x82\xddq\xe4?'
p102
tp103
Rp104
aaa(lp105
(lp106
g82
aa(lp107
g7
(g11
S'f\xfeA\x82\xddq\xe4?'
p108
tp109
Rp110
aaasS'storm-obj2'
p111
(lp112
(lp113
(lp114
S'../Data/storm-obj2_feature9.csv'
p115
aa(lp116
g7
(g11
S'\x00\x00\x00\x00\x00\x00\x00\x00'
p117
tp118
Rp119
aaa(lp120
(lp121
g115
aa(lp122
g7
(g11
S'\x00\x00\x00\x00\x00\x00\x00\x00'
p123
tp124
Rp125
aaa(lp126
(lp127
g115
aa(lp128
g7
(g11
S'\x00\x00\x00\x00\x00\x00\x00\x00'
p129
tp130
Rp131
aaa(lp132
(lp133
g115
aa(lp134
g7
(g11
S'\x00\x00\x00\x00\x00\x00\x00\x00'
p135
tp136
Rp137
aaa(lp138
(lp139
g115
aa(lp140
g7
(g11
S'\x00\x00\x00\x00\x00\x00\x00\x00'
p141
tp142
Rp143
aaasS'storm-obj1'
p144
(lp145
(lp146
(lp147
S'../Data/storm-obj1_feature8.csv'
p148
aa(lp149
g7
(g11
S'\xf0\x96\x98JL%\x02@'
p150
tp151
Rp152
aaa(lp153
(lp154
g148
aa(lp155
g7
(g11
S'\xf0\x96\x98JL%\x02@'
p156
tp157
Rp158
aaa(lp159
(lp160
g148
aa(lp161
g7
(g11
S'\xf0\x96\x98JL%\x02@'
p162
tp163
Rp164
aaa(lp165
(lp166
g148
aa(lp167
g7
(g11
S'\xf0\x96\x98JL%\x02@'
p168
tp169
Rp170
aaa(lp171
(lp172
g148
aa(lp173
g7
(g11
S'\xf0\x96\x98JL%\x02@'
p174
tp175
Rp176
aaasS'x264'
p177
(lp178
(lp179
(lp180
S'../Data/x264_11.csv'
p181
aa(lp182
g7
(g11
S'\xea\x02\xd7\x92\xaa-\xf8?'
p183
tp184
Rp185
aaa(lp186
(lp187
g181
aa(lp188
g7
(g11
S'\xea\x02\xd7\x92\xaa-\xf8?'
p189
tp190
Rp191
aaa(lp192
(lp193
S'../Data/x264_14.csv'
p194
aa(lp195
g7
(g11
S'\x1f\xc46\xafo\xcf:@'
p196
tp197
Rp198
aaa(lp199
(lp200
S'../Data/x264_9.csv'
p201
aa(lp202
g7
(g11
S'\x9c^\xf9)\xdba\xd2?'
p203
tp204
Rp205
aaa(lp206
(lp207
S'../Data/x264_10.csv'
p208
aa(lp209
g7
(g11
S'\xaa\xee\xd0\x8a\xa3\x9c\xed?'
p210
tp211
Rp212
aaas.