(dp0
S'sqlite'
p1
(lp2
(lp3
(lp4
S'../Data/sqlite_18.csv'
p5
aa(lp6
cnumpy.core.multiarray
scalar
p7
(cnumpy
dtype
p8
(S'f8'
p9
I0
I1
tp10
Rp11
(I3
S'<'
p12
NNNI-1
I-1
I0
tp13
bS'\xb1\xb7\x00\xb4n{2@'
p14
tp15
Rp16
aaa(lp17
(lp18
g5
aa(lp19
g7
(g11
S'\xb1\xb7\x00\xb4n{2@'
p20
tp21
Rp22
aaa(lp23
(lp24
S'../Data/sqlite_19.csv'
p25
aa(lp26
g7
(g11
S'T\x93\xe0\x98/\xce\x00@'
p27
tp28
Rp29
aaa(lp30
(lp31
S'../Data/sqlite_79.csv'
p32
aa(lp33
g7
(g11
S'TJ\x86\x1e\\\xf5\x16@'
p34
tp35
Rp36
aaa(lp37
(lp38
S'../Data/sqlite_52.csv'
p39
aa(lp40
g7
(g11
S'd~p=\x9b\xef\x1d@'
p41
tp42
Rp43
aaasS'spear'
p44
(lp45
(lp46
(lp47
S'../Data/spear_7.csv'
p48
aa(lp49
g7
(g11
S'\xf4\x01\x8a/\x0bl\xb9?'
p50
tp51
Rp52
aaa(lp53
(lp54
g48
aa(lp55
g7
(g11
S'\xf4\x01\x8a/\x0bl\xb9?'
p56
tp57
Rp58
aaa(lp59
(lp60
g48
aa(lp61
g7
(g11
S'\xf4\x01\x8a/\x0bl\xb9?'
p62
tp63
Rp64
aaa(lp65
(lp66
S'../Data/spear_1.csv'
p67
aa(lp68
g7
(g11
S'\xf4\x01\x8a/\x0bl\xb9?'
p69
tp70
Rp71
aaa(lp72
(lp73
g48
aa(lp74
g7
(g11
S'\xf4\x01\x8a/\x0bl\xb9?'
p75
tp76
Rp77
aaasS'sac'
p78
(lp79
(lp80
(lp81
S'../Data/sac_2.csv'
p82
aa(lp83
g7
(g11
S'\x00\x00\x00\x00\x00\x00Y@'
p84
tp85
Rp86
aaa(lp87
(lp88
S'../Data/sac_4.csv'
p89
aa(lp90
g7
(g11
S'f\xfeA\x82\xddq\xe4?'
p91
tp92
Rp93
aaa(lp94
(lp95
g89
aa(lp96
g7
(g11
S'f\xfeA\x82\xddq\xe4?'
p97
tp98
Rp99
aaa(lp100
(lp101
g89
aa(lp102
g7
(g11
S'f\xfeA\x82\xddq\xe4?'
p103
tp104
Rp105
aaa(lp106
(lp107
g89
aa(lp108
g7
(g11
S'f\xfeA\x82\xddq\xe4?'
p109
tp110
Rp111
aaasS'storm-obj2'
p112
(lp113
(lp114
(lp115
S'../Data/storm-obj2_feature9.csv'
p116
aa(lp117
g7
(g11
S'\x00\x00\x00\x00\x00\x00\x00\x00'
p118
tp119
Rp120
aaa(lp121
(lp122
g116
aa(lp123
g7
(g11
S'\x00\x00\x00\x00\x00\x00\x00\x00'
p124
tp125
Rp126
aaa(lp127
(lp128
g116
aa(lp129
g7
(g11
S'\x00\x00\x00\x00\x00\x00\x00\x00'
p130
tp131
Rp132
aaa(lp133
(lp134
g116
aa(lp135
g7
(g11
S'\x00\x00\x00\x00\x00\x00\x00\x00'
p136
tp137
Rp138
aaa(lp139
(lp140
g116
aa(lp141
g7
(g11
S'\x00\x00\x00\x00\x00\x00\x00\x00'
p142
tp143
Rp144
aaasS'storm-obj1'
p145
(lp146
(lp147
(lp148
S'../Data/storm-obj1_feature6.csv'
p149
aa(lp150
g7
(g11
S'$*\xe4+\xb9\x070@'
p151
tp152
Rp153
aaa(lp154
(lp155
S'../Data/storm-obj1_feature8.csv'
p156
aa(lp157
g7
(g11
S'\xf0\x96\x98JL%\x02@'
p158
tp159
Rp160
aaa(lp161
(lp162
g156
aa(lp163
g7
(g11
S'\xf0\x96\x98JL%\x02@'
p164
tp165
Rp166
aaa(lp167
(lp168
g156
aa(lp169
g7
(g11
S'\xf0\x96\x98JL%\x02@'
p170
tp171
Rp172
aaa(lp173
(lp174
S'../Data/storm-obj1_feature9.csv'
p175
aa(lp176
g7
(g11
S'\xad\x88\x03\xf1-qI@'
p177
tp178
Rp179
aaasS'x264'
p180
(lp181
(lp182
(lp183
S'../Data/x264_11.csv'
p184
aa(lp185
g7
(g11
S'\xea\x02\xd7\x92\xaa-\xf8?'
p186
tp187
Rp188
aaa(lp189
(lp190
S'../Data/x264_7.csv'
p191
aa(lp192
g7
(g11
S'\xaa\xee\xd0\x8a\xa3\x9c\xed?'
p193
tp194
Rp195
aaa(lp196
(lp197
S'../Data/x264_18.csv'
p198
aa(lp199
g7
(g11
S'\x9c^\xf9)\xdba\xd2?'
p200
tp201
Rp202
aaa(lp203
(lp204
g184
aa(lp205
g7
(g11
S'\xea\x02\xd7\x92\xaa-\xf8?'
p206
tp207
Rp208
aaa(lp209
(lp210
S'../Data/x264_10.csv'
p211
aa(lp212
g7
(g11
S'\xaa\xee\xd0\x8a\xa3\x9c\xed?'
p213
tp214
Rp215
aaas.