(dp0
S'sqlite'
p1
(lp2
(lp3
(lp4
S'../Data/sqlite_59.csv'
p5
aa(lp6
cnumpy.core.multiarray
scalar
p7
(cnumpy
dtype
p8
(S'f8'
p9
I0
I1
tp10
Rp11
(I3
S'<'
p12
NNNI-1
I-1
I0
tp13
bS'\xd4|\xf2\xde\xd5\xc5\x00@'
p14
tp15
Rp16
aaa(lp17
(lp18
S'../Data/sqlite_17.csv'
p19
aa(lp20
g7
(g11
S'\x98\x1f\xba\x04s\xc1\xeb?'
p21
tp22
Rp23
aaa(lp24
(lp25
S'../Data/sqlite_44.csv'
p26
aa(lp27
g7
(g11
S'\xe0r:1|\xd6\x01@'
p28
tp29
Rp30
aaa(lp31
(lp32
S'../Data/sqlite_19.csv'
p33
aa(lp34
g7
(g11
S'T\x93\xe0\x98/\xce\x00@'
p35
tp36
Rp37
aaa(lp38
(lp39
S'../Data/sqlite_18.csv'
p40
aa(lp41
g7
(g11
S'\xb1\xb7\x00\xb4n{2@'
p42
tp43
Rp44
aaasS'spear'
p45
(lp46
(lp47
(lp48
S'../Data/spear_7.csv'
p49
aa(lp50
g7
(g11
S'\xf4\x01\x8a/\x0bl\xb9?'
p51
tp52
Rp53
aaa(lp54
(lp55
g49
aa(lp56
g7
(g11
S'\xf4\x01\x8a/\x0bl\xb9?'
p57
tp58
Rp59
aaa(lp60
(lp61
g49
aa(lp62
g7
(g11
S'\xf4\x01\x8a/\x0bl\xb9?'
p63
tp64
Rp65
aaa(lp66
(lp67
g49
aa(lp68
g7
(g11
S'\xf4\x01\x8a/\x0bl\xb9?'
p69
tp70
Rp71
aaa(lp72
(lp73
g49
aa(lp74
g7
(g11
S'\xf4\x01\x8a/\x0bl\xb9?'
p75
tp76
Rp77
aaasS'sac'
p78
(lp79
(lp80
(lp81
S'../Data/sac_4.csv'
p82
aa(lp83
g7
(g11
S'f\xfeA\x82\xddq\xe4?'
p84
tp85
Rp86
aaa(lp87
(lp88
g82
aa(lp89
g7
(g11
S'f\xfeA\x82\xddq\xe4?'
p90
tp91
Rp92
aaa(lp93
(lp94
g82
aa(lp95
g7
(g11
S'f\xfeA\x82\xddq\xe4?'
p96
tp97
Rp98
aaa(lp99
(lp100
S'../Data/sac_9.csv'
p101
aa(lp102
g7
(g11
S'\x8e\x08\x1a\x03\x9b\xca\x12@'
p103
tp104
Rp105
aaa(lp106
(lp107
S'../Data/sac_2.csv'
p108
aa(lp109
g7
(g11
S'\x00\x00\x00\x00\x00\x00Y@'
p110
tp111
Rp112
aaasS'storm-obj2'
p113
(lp114
(lp115
(lp116
S'../Data/storm-obj2_feature9.csv'
p117
aa(lp118
g7
(g11
S'\x00\x00\x00\x00\x00\x00\x00\x00'
p119
tp120
Rp121
aaa(lp122
(lp123
g117
aa(lp124
g7
(g11
S'\x00\x00\x00\x00\x00\x00\x00\x00'
p125
tp126
Rp127
aaa(lp128
(lp129
g117
aa(lp130
g7
(g11
S'\x00\x00\x00\x00\x00\x00\x00\x00'
p131
tp132
Rp133
aaa(lp134
(lp135
g117
aa(lp136
g7
(g11
S'\x00\x00\x00\x00\x00\x00\x00\x00'
p137
tp138
Rp139
aaa(lp140
(lp141
g117
aa(lp142
g7
(g11
S'\x00\x00\x00\x00\x00\x00\x00\x00'
p143
tp144
Rp145
aaasS'storm-obj1'
p146
(lp147
(lp148
(lp149
S'../Data/storm-obj1_feature6.csv'
p150
aa(lp151
g7
(g11
S'$*\xe4+\xb9\x070@'
p152
tp153
Rp154
aaa(lp155
(lp156
S'../Data/storm-obj1_feature8.csv'
p157
aa(lp158
g7
(g11
S'\xf0\x96\x98JL%\x02@'
p159
tp160
Rp161
aaa(lp162
(lp163
g157
aa(lp164
g7
(g11
S'\xf0\x96\x98JL%\x02@'
p165
tp166
Rp167
aaa(lp168
(lp169
g157
aa(lp170
g7
(g11
S'\xf0\x96\x98JL%\x02@'
p171
tp172
Rp173
aaa(lp174
(lp175
g157
aa(lp176
g7
(g11
S'\xf0\x96\x98JL%\x02@'
p177
tp178
Rp179
aaasS'x264'
p180
(lp181
(lp182
(lp183
S'../Data/x264_9.csv'
p184
aa(lp185
g7
(g11
S'\x9c^\xf9)\xdba\xd2?'
p186
tp187
Rp188
aaa(lp189
(lp190
S'../Data/x264_11.csv'
p191
aa(lp192
g7
(g11
S'\xea\x02\xd7\x92\xaa-\xf8?'
p193
tp194
Rp195
aaa(lp196
(lp197
g191
aa(lp198
g7
(g11
S'\xea\x02\xd7\x92\xaa-\xf8?'
p199
tp200
Rp201
aaa(lp202
(lp203
S'../Data/x264_10.csv'
p204
aa(lp205
g7
(g11
S'\xaa\xee\xd0\x8a\xa3\x9c\xed?'
p206
tp207
Rp208
aaa(lp209
(lp210
S'../Data/x264_4.csv'
p211
aa(lp212
g7
(g11
S'\x8e^L\x9e\xd0\xc5\x01@'
p213
tp214
Rp215
aaas.