(dp0
S'sqlite'
p1
(lp2
(lp3
(lp4
S'../Data/sqlite_11.csv'
p5
aa(lp6
cnumpy.core.multiarray
scalar
p7
(cnumpy
dtype
p8
(S'f8'
p9
I0
I1
tp10
Rp11
(I3
S'<'
p12
NNNI-1
I-1
I0
tp13
bS'z/1,\xbc\xfd\x1a@'
p14
tp15
Rp16
aaa(lp17
(lp18
S'../Data/sqlite_18.csv'
p19
aa(lp20
g7
(g11
S'\xb1\xb7\x00\xb4n{2@'
p21
tp22
Rp23
aaa(lp24
(lp25
S'../Data/sqlite_59.csv'
p26
aa(lp27
g7
(g11
S'\xd4|\xf2\xde\xd5\xc5\x00@'
p28
tp29
Rp30
aaa(lp31
(lp32
g26
aa(lp33
g7
(g11
S'\xd4|\xf2\xde\xd5\xc5\x00@'
p34
tp35
Rp36
aaa(lp37
(lp38
S'../Data/sqlite_52.csv'
p39
aa(lp40
g7
(g11
S'd~p=\x9b\xef\x1d@'
p41
tp42
Rp43
aaasS'spear'
p44
(lp45
(lp46
(lp47
S'../Data/spear_9.csv'
p48
aa(lp49
g7
(g11
S'\xf4\x01\x8a/\x0bl\xb9?'
p50
tp51
Rp52
aaa(lp53
(lp54
S'../Data/spear_7.csv'
p55
aa(lp56
g7
(g11
S'\xf4\x01\x8a/\x0bl\xb9?'
p57
tp58
Rp59
aaa(lp60
(lp61
g55
aa(lp62
g7
(g11
S'\xf4\x01\x8a/\x0bl\xb9?'
p63
tp64
Rp65
aaa(lp66
(lp67
g55
aa(lp68
g7
(g11
S'\xf4\x01\x8a/\x0bl\xb9?'
p69
tp70
Rp71
aaa(lp72
(lp73
g55
aa(lp74
g7
(g11
S'\xf4\x01\x8a/\x0bl\xb9?'
p75
tp76
Rp77
aaasS'sac'
p78
(lp79
(lp80
(lp81
S'../Data/sac_2.csv'
p82
aa(lp83
g7
(g11
S'\x00\x00\x00\x00\x00\x00Y@'
p84
tp85
Rp86
aaa(lp87
(lp88
S'../Data/sac_9.csv'
p89
aa(lp90
g7
(g11
S'\x8e\x08\x1a\x03\x9b\xca\x12@'
p91
tp92
Rp93
aaa(lp94
(lp95
S'../Data/sac_6.csv'
p96
aa(lp97
g7
(g11
S'@%4\xe3y@\xd2?'
p98
tp99
Rp100
aaa(lp101
(lp102
S'../Data/sac_4.csv'
p103
aa(lp104
g7
(g11
S'f\xfeA\x82\xddq\xe4?'
p105
tp106
Rp107
aaa(lp108
(lp109
g103
aa(lp110
g7
(g11
S'f\xfeA\x82\xddq\xe4?'
p111
tp112
Rp113
aaasS'storm-obj2'
p114
(lp115
(lp116
(lp117
S'../Data/storm-obj2_feature9.csv'
p118
aa(lp119
g7
(g11
S'\x00\x00\x00\x00\x00\x00\x00\x00'
p120
tp121
Rp122
aaa(lp123
(lp124
g118
aa(lp125
g7
(g11
S'\x00\x00\x00\x00\x00\x00\x00\x00'
p126
tp127
Rp128
aaa(lp129
(lp130
g118
aa(lp131
g7
(g11
S'\x00\x00\x00\x00\x00\x00\x00\x00'
p132
tp133
Rp134
aaa(lp135
(lp136
g118
aa(lp137
g7
(g11
S'\x00\x00\x00\x00\x00\x00\x00\x00'
p138
tp139
Rp140
aaa(lp141
(lp142
g118
aa(lp143
g7
(g11
S'\x00\x00\x00\x00\x00\x00\x00\x00'
p144
tp145
Rp146
aaasS'storm-obj1'
p147
(lp148
(lp149
(lp150
S'../Data/storm-obj1_feature9.csv'
p151
aa(lp152
g7
(g11
S'\xad\x88\x03\xf1-qI@'
p153
tp154
Rp155
aaa(lp156
(lp157
g151
aa(lp158
g7
(g11
S'\xad\x88\x03\xf1-qI@'
p159
tp160
Rp161
aaa(lp162
(lp163
S'../Data/storm-obj1_feature8.csv'
p164
aa(lp165
g7
(g11
S'\xf0\x96\x98JL%\x02@'
p166
tp167
Rp168
aaa(lp169
(lp170
g164
aa(lp171
g7
(g11
S'\xf0\x96\x98JL%\x02@'
p172
tp173
Rp174
aaa(lp175
(lp176
g164
aa(lp177
g7
(g11
S'\xf0\x96\x98JL%\x02@'
p178
tp179
Rp180
aaasS'x264'
p181
(lp182
(lp183
(lp184
S'../Data/x264_0.csv'
p185
aa(lp186
g7
(g11
S'\x97\xbf\xd5\x92\xfbo<@'
p187
tp188
Rp189
aaa(lp190
(lp191
S'../Data/x264_11.csv'
p192
aa(lp193
g7
(g11
S'\xea\x02\xd7\x92\xaa-\xf8?'
p194
tp195
Rp196
aaa(lp197
(lp198
g192
aa(lp199
g7
(g11
S'\xea\x02\xd7\x92\xaa-\xf8?'
p200
tp201
Rp202
aaa(lp203
(lp204
S'../Data/x264_9.csv'
p205
aa(lp206
g7
(g11
S'\x9c^\xf9)\xdba\xd2?'
p207
tp208
Rp209
aaa(lp210
(lp211
g192
aa(lp212
g7
(g11
S'\xea\x02\xd7\x92\xaa-\xf8?'
p213
tp214
Rp215
aaas.