(dp0
S'sqlite'
p1
(lp2
(lp3
(lp4
S'../Data/sqlite_11.csv'
p5
aa(lp6
cnumpy.core.multiarray
scalar
p7
(cnumpy
dtype
p8
(S'f8'
p9
I0
I1
tp10
Rp11
(I3
S'<'
p12
NNNI-1
I-1
I0
tp13
bS'z/1,\xbc\xfd\x1a@'
p14
tp15
Rp16
aaa(lp17
(lp18
S'../Data/sqlite_73.csv'
p19
aa(lp20
g7
(g11
S'\xd2\xb62\xbe\xeb\xbb\x07@'
p21
tp22
Rp23
aaa(lp24
(lp25
S'../Data/sqlite_19.csv'
p26
aa(lp27
g7
(g11
S'T\x93\xe0\x98/\xce\x00@'
p28
tp29
Rp30
aaa(lp31
(lp32
S'../Data/sqlite_44.csv'
p33
aa(lp34
g7
(g11
S'\xe0r:1|\xd6\x01@'
p35
tp36
Rp37
aaa(lp38
(lp39
g19
aa(lp40
g7
(g11
S'\xd2\xb62\xbe\xeb\xbb\x07@'
p41
tp42
Rp43
aaasS'spear'
p44
(lp45
(lp46
(lp47
S'../Data/spear_7.csv'
p48
aa(lp49
g7
(g11
S'\xf4\x01\x8a/\x0bl\xb9?'
p50
tp51
Rp52
aaa(lp53
(lp54
g48
aa(lp55
g7
(g11
S'\xf4\x01\x8a/\x0bl\xb9?'
p56
tp57
Rp58
aaa(lp59
(lp60
g48
aa(lp61
g7
(g11
S'\xf4\x01\x8a/\x0bl\xb9?'
p62
tp63
Rp64
aaa(lp65
(lp66
g48
aa(lp67
g7
(g11
S'\xf4\x01\x8a/\x0bl\xb9?'
p68
tp69
Rp70
aaa(lp71
(lp72
g48
aa(lp73
g7
(g11
S'\xf4\x01\x8a/\x0bl\xb9?'
p74
tp75
Rp76
aaasS'sac'
p77
(lp78
(lp79
(lp80
S'../Data/sac_2.csv'
p81
aa(lp82
g7
(g11
S'\x00\x00\x00\x00\x00\x00Y@'
p83
tp84
Rp85
aaa(lp86
(lp87
S'../Data/sac_4.csv'
p88
aa(lp89
g7
(g11
S'f\xfeA\x82\xddq\xe4?'
p90
tp91
Rp92
aaa(lp93
(lp94
S'../Data/sac_9.csv'
p95
aa(lp96
g7
(g11
S'\x8e\x08\x1a\x03\x9b\xca\x12@'
p97
tp98
Rp99
aaa(lp100
(lp101
g88
aa(lp102
g7
(g11
S'f\xfeA\x82\xddq\xe4?'
p103
tp104
Rp105
aaa(lp106
(lp107
g81
aa(lp108
g7
(g11
S'\x00\x00\x00\x00\x00\x00Y@'
p109
tp110
Rp111
aaasS'storm-obj2'
p112
(lp113
(lp114
(lp115
S'../Data/storm-obj2_feature9.csv'
p116
aa(lp117
g7
(g11
S'\x00\x00\x00\x00\x00\x00\x00\x00'
p118
tp119
Rp120
aaa(lp121
(lp122
g116
aa(lp123
g7
(g11
S'\x00\x00\x00\x00\x00\x00\x00\x00'
p124
tp125
Rp126
aaa(lp127
(lp128
g116
aa(lp129
g7
(g11
S'\x00\x00\x00\x00\x00\x00\x00\x00'
p130
tp131
Rp132
aaa(lp133
(lp134
g116
aa(lp135
g7
(g11
S'\x00\x00\x00\x00\x00\x00\x00\x00'
p136
tp137
Rp138
aaa(lp139
(lp140
g116
aa(lp141
g7
(g11
S'\x00\x00\x00\x00\x00\x00\x00\x00'
p142
tp143
Rp144
aaasS'storm-obj1'
p145
(lp146
(lp147
(lp148
S'../Data/storm-obj1_feature8.csv'
p149
aa(lp150
g7
(g11
S'\xf0\x96\x98JL%\x02@'
p151
tp152
Rp153
aaa(lp154
(lp155
g149
aa(lp156
g7
(g11
S'\xf0\x96\x98JL%\x02@'
p157
tp158
Rp159
aaa(lp160
(lp161
S'../Data/storm-obj1_feature6.csv'
p162
aa(lp163
g7
(g11
S'$*\xe4+\xb9\x070@'
p164
tp165
Rp166
aaa(lp167
(lp168
S'../Data/storm-obj1_feature9.csv'
p169
aa(lp170
g7
(g11
S'\xad\x88\x03\xf1-qI@'
p171
tp172
Rp173
aaa(lp174
(lp175
g169
aa(lp176
g7
(g11
S'\xad\x88\x03\xf1-qI@'
p177
tp178
Rp179
aaasS'x264'
p180
(lp181
(lp182
(lp183
S'../Data/x264_5.csv'
p184
aa(lp185
g7
(g11
S'\x8e^L\x9e\xd0\xc5\x01@'
p186
tp187
Rp188
aaa(lp189
(lp190
S'../Data/x264_11.csv'
p191
aa(lp192
g7
(g11
S'\xea\x02\xd7\x92\xaa-\xf8?'
p193
tp194
Rp195
aaa(lp196
(lp197
S'../Data/x264_9.csv'
p198
aa(lp199
g7
(g11
S'\x9c^\xf9)\xdba\xd2?'
p200
tp201
Rp202
aaa(lp203
(lp204
S'../Data/x264_10.csv'
p205
aa(lp206
g7
(g11
S'\xaa\xee\xd0\x8a\xa3\x9c\xed?'
p207
tp208
Rp209
aaa(lp210
(lp211
g205
aa(lp212
g7
(g11
S'\xaa\xee\xd0\x8a\xa3\x9c\xed?'
p213
tp214
Rp215
aaas.