(dp0
S'sqlite'
p1
(lp2
(lp3
(lp4
S'../Data/sqlite_18.csv'
p5
aa(lp6
cnumpy.core.multiarray
scalar
p7
(cnumpy
dtype
p8
(S'f8'
p9
I0
I1
tp10
Rp11
(I3
S'<'
p12
NNNI-1
I-1
I0
tp13
bS'\xb1\xb7\x00\xb4n{2@'
p14
tp15
Rp16
aaa(lp17
(lp18
S'../Data/sqlite_17.csv'
p19
aa(lp20
g7
(g11
S'\x98\x1f\xba\x04s\xc1\xeb?'
p21
tp22
Rp23
aaa(lp24
(lp25
S'../Data/sqlite_45.csv'
p26
aa(lp27
g7
(g11
S'\xd4\xe32\x92r\xd3\x0b@'
p28
tp29
Rp30
aaa(lp31
(lp32
g19
aa(lp33
g7
(g11
S'\x98\x1f\xba\x04s\xc1\xeb?'
p34
tp35
Rp36
aaa(lp37
(lp38
S'../Data/sqlite_10.csv'
p39
aa(lp40
g7
(g11
S'\x15\xf2,\xa9U;\x13@'
p41
tp42
Rp43
aaasS'spear'
p44
(lp45
(lp46
(lp47
S'../Data/spear_9.csv'
p48
aa(lp49
g7
(g11
S'\xf4\x01\x8a/\x0bl\xb9?'
p50
tp51
Rp52
aaa(lp53
(lp54
S'../Data/spear_7.csv'
p55
aa(lp56
g7
(g11
S'\xf4\x01\x8a/\x0bl\xb9?'
p57
tp58
Rp59
aaa(lp60
(lp61
g55
aa(lp62
g7
(g11
S'\xf4\x01\x8a/\x0bl\xb9?'
p63
tp64
Rp65
aaa(lp66
(lp67
S'../Data/spear_1.csv'
p68
aa(lp69
g7
(g11
S'\xf4\x01\x8a/\x0bl\xb9?'
p70
tp71
Rp72
aaa(lp73
(lp74
g55
aa(lp75
g7
(g11
S'\xf4\x01\x8a/\x0bl\xb9?'
p76
tp77
Rp78
aaasS'sac'
p79
(lp80
(lp81
(lp82
S'../Data/sac_4.csv'
p83
aa(lp84
g7
(g11
S'f\xfeA\x82\xddq\xe4?'
p85
tp86
Rp87
aaa(lp88
(lp89
S'../Data/sac_2.csv'
p90
aa(lp91
g7
(g11
S'\x00\x00\x00\x00\x00\x00Y@'
p92
tp93
Rp94
aaa(lp95
(lp96
g83
aa(lp97
g7
(g11
S'f\xfeA\x82\xddq\xe4?'
p98
tp99
Rp100
aaa(lp101
(lp102
S'../Data/sac_7.csv'
p103
aa(lp104
g7
(g11
S'\xdac:\r\xea\xfd\xf1?'
p105
tp106
Rp107
aaa(lp108
(lp109
g83
aa(lp110
g7
(g11
S'f\xfeA\x82\xddq\xe4?'
p111
tp112
Rp113
aaasS'storm-obj2'
p114
(lp115
(lp116
(lp117
S'../Data/storm-obj2_feature9.csv'
p118
aa(lp119
g7
(g11
S'\x00\x00\x00\x00\x00\x00\x00\x00'
p120
tp121
Rp122
aaa(lp123
(lp124
g118
aa(lp125
g7
(g11
S'\x00\x00\x00\x00\x00\x00\x00\x00'
p126
tp127
Rp128
aaa(lp129
(lp130
g118
aa(lp131
g7
(g11
S'\x00\x00\x00\x00\x00\x00\x00\x00'
p132
tp133
Rp134
aaa(lp135
(lp136
g118
aa(lp137
g7
(g11
S'\x00\x00\x00\x00\x00\x00\x00\x00'
p138
tp139
Rp140
aaa(lp141
(lp142
g118
aa(lp143
g7
(g11
S'\x00\x00\x00\x00\x00\x00\x00\x00'
p144
tp145
Rp146
aaasS'storm-obj1'
p147
(lp148
(lp149
(lp150
S'../Data/storm-obj1_feature9.csv'
p151
aa(lp152
g7
(g11
S'\xad\x88\x03\xf1-qI@'
p153
tp154
Rp155
aaa(lp156
(lp157
S'../Data/storm-obj1_feature8.csv'
p158
aa(lp159
g7
(g11
S'\xf0\x96\x98JL%\x02@'
p160
tp161
Rp162
aaa(lp163
(lp164
g151
aa(lp165
g7
(g11
S'\xad\x88\x03\xf1-qI@'
p166
tp167
Rp168
aaa(lp169
(lp170
g158
aa(lp171
g7
(g11
S'\xf0\x96\x98JL%\x02@'
p172
tp173
Rp174
aaa(lp175
(lp176
g151
aa(lp177
g7
(g11
S'\xad\x88\x03\xf1-qI@'
p178
tp179
Rp180
aaasS'x264'
p181
(lp182
(lp183
(lp184
S'../Data/x264_0.csv'
p185
aa(lp186
g7
(g11
S'\x97\xbf\xd5\x92\xfbo<@'
p187
tp188
Rp189
aaa(lp190
(lp191
S'../Data/x264_6.csv'
p192
aa(lp193
g7
(g11
S'\x97&u\xa9ld\x01@'
p194
tp195
Rp196
aaa(lp197
(lp198
S'../Data/x264_10.csv'
p199
aa(lp200
g7
(g11
S'\xaa\xee\xd0\x8a\xa3\x9c\xed?'
p201
tp202
Rp203
aaa(lp204
(lp205
S'../Data/x264_3.csv'
p206
aa(lp207
g7
(g11
S'\xf5\xde\xdf\xd3\x8f\x9d\x1e@'
p208
tp209
Rp210
aaa(lp211
(lp212
g192
aa(lp213
g7
(g11
S'\x97&u\xa9ld\x01@'
p214
tp215
Rp216
aaas.