(dp0
S'sqlite'
p1
(lp2
(lp3
(lp4
S'../Data/sqlite_44.csv'
p5
aa(lp6
cnumpy.core.multiarray
scalar
p7
(cnumpy
dtype
p8
(S'f8'
p9
I0
I1
tp10
Rp11
(I3
S'<'
p12
NNNI-1
I-1
I0
tp13
bS'\xe0r:1|\xd6\x01@'
p14
tp15
Rp16
aaa(lp17
(lp18
S'../Data/sqlite_19.csv'
p19
aa(lp20
g7
(g11
S'T\x93\xe0\x98/\xce\x00@'
p21
tp22
Rp23
aaa(lp24
(lp25
g5
aa(lp26
g7
(g11
S'\xe0r:1|\xd6\x01@'
p27
tp28
Rp29
aaa(lp30
(lp31
g19
aa(lp32
g7
(g11
S'T\x93\xe0\x98/\xce\x00@'
p33
tp34
Rp35
aaa(lp36
(lp37
g19
aa(lp38
g7
(g11
S'T\x93\xe0\x98/\xce\x00@'
p39
tp40
Rp41
aaasS'spear'
p42
(lp43
(lp44
(lp45
S'../Data/spear_7.csv'
p46
aa(lp47
g7
(g11
S'\xf4\x01\x8a/\x0bl\xb9?'
p48
tp49
Rp50
aaa(lp51
(lp52
g46
aa(lp53
g7
(g11
S'\xf4\x01\x8a/\x0bl\xb9?'
p54
tp55
Rp56
aaa(lp57
(lp58
S'../Data/spear_1.csv'
p59
aa(lp60
g7
(g11
S'\xf4\x01\x8a/\x0bl\xb9?'
p61
tp62
Rp63
aaa(lp64
(lp65
g59
aa(lp66
g7
(g11
S'\xf4\x01\x8a/\x0bl\xb9?'
p67
tp68
Rp69
aaa(lp70
(lp71
g46
aa(lp72
g7
(g11
S'\xf4\x01\x8a/\x0bl\xb9?'
p73
tp74
Rp75
aaasS'sac'
p76
(lp77
(lp78
(lp79
S'../Data/sac_2.csv'
p80
aa(lp81
g7
(g11
S'\x00\x00\x00\x00\x00\x00Y@'
p82
tp83
Rp84
aaa(lp85
(lp86
S'../Data/sac_4.csv'
p87
aa(lp88
g7
(g11
S'f\xfeA\x82\xddq\xe4?'
p89
tp90
Rp91
aaa(lp92
(lp93
g80
aa(lp94
g7
(g11
S'\x00\x00\x00\x00\x00\x00Y@'
p95
tp96
Rp97
aaa(lp98
(lp99
g80
aa(lp100
g7
(g11
S'\x00\x00\x00\x00\x00\x00Y@'
p101
tp102
Rp103
aaa(lp104
(lp105
g80
aa(lp106
g7
(g11
S'\x00\x00\x00\x00\x00\x00Y@'
p107
tp108
Rp109
aaasS'storm-obj2'
p110
(lp111
(lp112
(lp113
S'../Data/storm-obj2_feature9.csv'
p114
aa(lp115
g7
(g11
S'\x00\x00\x00\x00\x00\x00\x00\x00'
p116
tp117
Rp118
aaa(lp119
(lp120
g114
aa(lp121
g7
(g11
S'\x00\x00\x00\x00\x00\x00\x00\x00'
p122
tp123
Rp124
aaa(lp125
(lp126
g114
aa(lp127
g7
(g11
S'\x00\x00\x00\x00\x00\x00\x00\x00'
p128
tp129
Rp130
aaa(lp131
(lp132
g114
aa(lp133
g7
(g11
S'\x00\x00\x00\x00\x00\x00\x00\x00'
p134
tp135
Rp136
aaa(lp137
(lp138
g114
aa(lp139
g7
(g11
S'\x00\x00\x00\x00\x00\x00\x00\x00'
p140
tp141
Rp142
aaasS'storm-obj1'
p143
(lp144
(lp145
(lp146
S'../Data/storm-obj1_feature8.csv'
p147
aa(lp148
g7
(g11
S'\xf0\x96\x98JL%\x02@'
p149
tp150
Rp151
aaa(lp152
(lp153
g147
aa(lp154
g7
(g11
S'\xf0\x96\x98JL%\x02@'
p155
tp156
Rp157
aaa(lp158
(lp159
g147
aa(lp160
g7
(g11
S'\xf0\x96\x98JL%\x02@'
p161
tp162
Rp163
aaa(lp164
(lp165
g147
aa(lp166
g7
(g11
S'\xf0\x96\x98JL%\x02@'
p167
tp168
Rp169
aaa(lp170
(lp171
S'../Data/storm-obj1_feature9.csv'
p172
aa(lp173
g7
(g11
S'\xad\x88\x03\xf1-qI@'
p174
tp175
Rp176
aaasS'x264'
p177
(lp178
(lp179
(lp180
S'../Data/x264_12.csv'
p181
aa(lp182
g7
(g11
S'\x0b\x84\x1eX\x84Q*@'
p183
tp184
Rp185
aaa(lp186
(lp187
S'../Data/x264_10.csv'
p188
aa(lp189
g7
(g11
S'\xaa\xee\xd0\x8a\xa3\x9c\xed?'
p190
tp191
Rp192
aaa(lp193
(lp194
g188
aa(lp195
g7
(g11
S'\xaa\xee\xd0\x8a\xa3\x9c\xed?'
p196
tp197
Rp198
aaa(lp199
(lp200
S'../Data/x264_18.csv'
p201
aa(lp202
g7
(g11
S'\x9c^\xf9)\xdba\xd2?'
p203
tp204
Rp205
aaa(lp206
(lp207
S'../Data/x264_8.csv'
p208
aa(lp209
g7
(g11
S'\xea\x02\xd7\x92\xaa-\xf8?'
p210
tp211
Rp212
aaas.