(dp0
S'sqlite'
p1
(lp2
(lp3
(lp4
S'../Data/sqlite_44.csv'
p5
aa(lp6
cnumpy.core.multiarray
scalar
p7
(cnumpy
dtype
p8
(S'f8'
p9
I0
I1
tp10
Rp11
(I3
S'<'
p12
NNNI-1
I-1
I0
tp13
bS'\xe0r:1|\xd6\x01@'
p14
tp15
Rp16
aaa(lp17
(lp18
S'../Data/sqlite_16.csv'
p19
aa(lp20
g7
(g11
S'\x10\xb6\x16-R\x16\x0f@'
p21
tp22
Rp23
aaa(lp24
(lp25
g19
aa(lp26
g7
(g11
S'\x10\xb6\x16-R\x16\x0f@'
p27
tp28
Rp29
aaa(lp30
(lp31
S'../Data/sqlite_52.csv'
p32
aa(lp33
g7
(g11
S'd~p=\x9b\xef\x1d@'
p34
tp35
Rp36
aaa(lp37
(lp38
S'../Data/sqlite_19.csv'
p39
aa(lp40
g7
(g11
S'T\x93\xe0\x98/\xce\x00@'
p41
tp42
Rp43
aaasS'spear'
p44
(lp45
(lp46
(lp47
S'../Data/spear_7.csv'
p48
aa(lp49
g7
(g11
S'\xf4\x01\x8a/\x0bl\xb9?'
p50
tp51
Rp52
aaa(lp53
(lp54
S'../Data/spear_1.csv'
p55
aa(lp56
g7
(g11
S'\xf4\x01\x8a/\x0bl\xb9?'
p57
tp58
Rp59
aaa(lp60
(lp61
g48
aa(lp62
g7
(g11
S'\xf4\x01\x8a/\x0bl\xb9?'
p63
tp64
Rp65
aaa(lp66
(lp67
g48
aa(lp68
g7
(g11
S'\xf4\x01\x8a/\x0bl\xb9?'
p69
tp70
Rp71
aaa(lp72
(lp73
g48
aa(lp74
g7
(g11
S'\xf4\x01\x8a/\x0bl\xb9?'
p75
tp76
Rp77
aaasS'sac'
p78
(lp79
(lp80
(lp81
S'../Data/sac_9.csv'
p82
aa(lp83
g7
(g11
S'\x8e\x08\x1a\x03\x9b\xca\x12@'
p84
tp85
Rp86
aaa(lp87
(lp88
g82
aa(lp89
g7
(g11
S'\x8e\x08\x1a\x03\x9b\xca\x12@'
p90
tp91
Rp92
aaa(lp93
(lp94
S'../Data/sac_4.csv'
p95
aa(lp96
g7
(g11
S'f\xfeA\x82\xddq\xe4?'
p97
tp98
Rp99
aaa(lp100
(lp101
g95
aa(lp102
g7
(g11
S'f\xfeA\x82\xddq\xe4?'
p103
tp104
Rp105
aaa(lp106
(lp107
S'../Data/sac_2.csv'
p108
aa(lp109
g7
(g11
S'\x00\x00\x00\x00\x00\x00Y@'
p110
tp111
Rp112
aaasS'storm-obj2'
p113
(lp114
(lp115
(lp116
S'../Data/storm-obj2_feature9.csv'
p117
aa(lp118
g7
(g11
S'\x00\x00\x00\x00\x00\x00\x00\x00'
p119
tp120
Rp121
aaa(lp122
(lp123
g117
aa(lp124
g7
(g11
S'\x00\x00\x00\x00\x00\x00\x00\x00'
p125
tp126
Rp127
aaa(lp128
(lp129
g117
aa(lp130
g7
(g11
S'\x00\x00\x00\x00\x00\x00\x00\x00'
p131
tp132
Rp133
aaa(lp134
(lp135
g117
aa(lp136
g7
(g11
S'\x00\x00\x00\x00\x00\x00\x00\x00'
p137
tp138
Rp139
aaa(lp140
(lp141
g117
aa(lp142
g7
(g11
S'\x00\x00\x00\x00\x00\x00\x00\x00'
p143
tp144
Rp145
aaasS'storm-obj1'
p146
(lp147
(lp148
(lp149
S'../Data/storm-obj1_feature9.csv'
p150
aa(lp151
g7
(g11
S'\xad\x88\x03\xf1-qI@'
p152
tp153
Rp154
aaa(lp155
(lp156
S'../Data/storm-obj1_feature8.csv'
p157
aa(lp158
g7
(g11
S'\xf0\x96\x98JL%\x02@'
p159
tp160
Rp161
aaa(lp162
(lp163
g157
aa(lp164
g7
(g11
S'\xf0\x96\x98JL%\x02@'
p165
tp166
Rp167
aaa(lp168
(lp169
S'../Data/storm-obj1_feature7.csv'
p170
aa(lp171
g7
(g11
S'\xd7\xa5`\xf3\xcc@(@'
p172
tp173
Rp174
aaa(lp175
(lp176
g150
aa(lp177
g7
(g11
S'\xad\x88\x03\xf1-qI@'
p178
tp179
Rp180
aaasS'x264'
p181
(lp182
(lp183
(lp184
S'../Data/x264_11.csv'
p185
aa(lp186
g7
(g11
S'\xea\x02\xd7\x92\xaa-\xf8?'
p187
tp188
Rp189
aaa(lp190
(lp191
S'../Data/x264_10.csv'
p192
aa(lp193
g7
(g11
S'\xaa\xee\xd0\x8a\xa3\x9c\xed?'
p194
tp195
Rp196
aaa(lp197
(lp198
S'../Data/x264_0.csv'
p199
aa(lp200
g7
(g11
S'\x97\xbf\xd5\x92\xfbo<@'
p201
tp202
Rp203
aaa(lp204
(lp205
S'../Data/x264_8.csv'
p206
aa(lp207
g7
(g11
S'\xea\x02\xd7\x92\xaa-\xf8?'
p208
tp209
Rp210
aaa(lp211
(lp212
g206
aa(lp213
g7
(g11
S'\xea\x02\xd7\x92\xaa-\xf8?'
p214
tp215
Rp216
aaas.