(dp0
S'sqlite'
p1
(lp2
(lp3
(lp4
S'../Data/sqlite_44.csv'
p5
aa(lp6
cnumpy.core.multiarray
scalar
p7
(cnumpy
dtype
p8
(S'f8'
p9
I0
I1
tp10
Rp11
(I3
S'<'
p12
NNNI-1
I-1
I0
tp13
bS'\xe0r:1|\xd6\x01@'
p14
tp15
Rp16
aaa(lp17
(lp18
g5
aa(lp19
g7
(g11
S'\xe0r:1|\xd6\x01@'
p20
tp21
Rp22
aaa(lp23
(lp24
S'../Data/sqlite_16.csv'
p25
aa(lp26
g7
(g11
S'\x10\xb6\x16-R\x16\x0f@'
p27
tp28
Rp29
aaa(lp30
(lp31
S'../Data/sqlite_19.csv'
p32
aa(lp33
g7
(g11
S'T\x93\xe0\x98/\xce\x00@'
p34
tp35
Rp36
aaa(lp37
(lp38
S'../Data/sqlite_18.csv'
p39
aa(lp40
g7
(g11
S'\xb1\xb7\x00\xb4n{2@'
p41
tp42
Rp43
aaasS'spear'
p44
(lp45
(lp46
(lp47
S'../Data/spear_7.csv'
p48
aa(lp49
g7
(g11
S'\xf4\x01\x8a/\x0bl\xb9?'
p50
tp51
Rp52
aaa(lp53
(lp54
g48
aa(lp55
g7
(g11
S'\xf4\x01\x8a/\x0bl\xb9?'
p56
tp57
Rp58
aaa(lp59
(lp60
S'../Data/spear_9.csv'
p61
aa(lp62
g7
(g11
S'\xf4\x01\x8a/\x0bl\xb9?'
p63
tp64
Rp65
aaa(lp66
(lp67
g48
aa(lp68
g7
(g11
S'\xf4\x01\x8a/\x0bl\xb9?'
p69
tp70
Rp71
aaa(lp72
(lp73
S'../Data/spear_1.csv'
p74
aa(lp75
g7
(g11
S'\xf4\x01\x8a/\x0bl\xb9?'
p76
tp77
Rp78
aaasS'sac'
p79
(lp80
(lp81
(lp82
S'../Data/sac_6.csv'
p83
aa(lp84
g7
(g11
S'@%4\xe3y@\xd2?'
p85
tp86
Rp87
aaa(lp88
(lp89
S'../Data/sac_4.csv'
p90
aa(lp91
g7
(g11
S'f\xfeA\x82\xddq\xe4?'
p92
tp93
Rp94
aaa(lp95
(lp96
g90
aa(lp97
g7
(g11
S'f\xfeA\x82\xddq\xe4?'
p98
tp99
Rp100
aaa(lp101
(lp102
g90
aa(lp103
g7
(g11
S'f\xfeA\x82\xddq\xe4?'
p104
tp105
Rp106
aaa(lp107
(lp108
g90
aa(lp109
g7
(g11
S'f\xfeA\x82\xddq\xe4?'
p110
tp111
Rp112
aaasS'storm-obj2'
p113
(lp114
(lp115
(lp116
S'../Data/storm-obj2_feature9.csv'
p117
aa(lp118
g7
(g11
S'\x00\x00\x00\x00\x00\x00\x00\x00'
p119
tp120
Rp121
aaa(lp122
(lp123
g117
aa(lp124
g7
(g11
S'\x00\x00\x00\x00\x00\x00\x00\x00'
p125
tp126
Rp127
aaa(lp128
(lp129
g117
aa(lp130
g7
(g11
S'\x00\x00\x00\x00\x00\x00\x00\x00'
p131
tp132
Rp133
aaa(lp134
(lp135
g117
aa(lp136
g7
(g11
S'\x00\x00\x00\x00\x00\x00\x00\x00'
p137
tp138
Rp139
aaa(lp140
(lp141
g117
aa(lp142
g7
(g11
S'\x00\x00\x00\x00\x00\x00\x00\x00'
p143
tp144
Rp145
aaasS'storm-obj1'
p146
(lp147
(lp148
(lp149
S'../Data/storm-obj1_feature8.csv'
p150
aa(lp151
g7
(g11
S'\xf0\x96\x98JL%\x02@'
p152
tp153
Rp154
aaa(lp155
(lp156
g150
aa(lp157
g7
(g11
S'\xf0\x96\x98JL%\x02@'
p158
tp159
Rp160
aaa(lp161
(lp162
g150
aa(lp163
g7
(g11
S'\xf0\x96\x98JL%\x02@'
p164
tp165
Rp166
aaa(lp167
(lp168
S'../Data/storm-obj1_feature9.csv'
p169
aa(lp170
g7
(g11
S'\xad\x88\x03\xf1-qI@'
p171
tp172
Rp173
aaa(lp174
(lp175
g150
aa(lp176
g7
(g11
S'\xf0\x96\x98JL%\x02@'
p177
tp178
Rp179
aaasS'x264'
p180
(lp181
(lp182
(lp183
S'../Data/x264_11.csv'
p184
aa(lp185
g7
(g11
S'\xea\x02\xd7\x92\xaa-\xf8?'
p186
tp187
Rp188
aaa(lp189
(lp190
S'../Data/x264_7.csv'
p191
aa(lp192
g7
(g11
S'\xaa\xee\xd0\x8a\xa3\x9c\xed?'
p193
tp194
Rp195
aaa(lp196
(lp197
g191
aa(lp198
g7
(g11
S'\xaa\xee\xd0\x8a\xa3\x9c\xed?'
p199
tp200
Rp201
aaa(lp202
(lp203
S'../Data/x264_8.csv'
p204
aa(lp205
g7
(g11
S'\xea\x02\xd7\x92\xaa-\xf8?'
p206
tp207
Rp208
aaa(lp209
(lp210
g191
aa(lp211
g7
(g11
S'\xaa\xee\xd0\x8a\xa3\x9c\xed?'
p212
tp213
Rp214
aaas.