(dp0
S'sqlite'
p1
(lp2
(lp3
(lp4
S'../Data/sqlite_17.csv'
p5
aa(lp6
cnumpy.core.multiarray
scalar
p7
(cnumpy
dtype
p8
(S'f8'
p9
I0
I1
tp10
Rp11
(I3
S'<'
p12
NNNI-1
I-1
I0
tp13
bS'\x98\x1f\xba\x04s\xc1\xeb?'
p14
tp15
Rp16
aaa(lp17
(lp18
S'../Data/sqlite_18.csv'
p19
aa(lp20
g7
(g11
S'\xb1\xb7\x00\xb4n{2@'
p21
tp22
Rp23
aaa(lp24
(lp25
S'../Data/sqlite_52.csv'
p26
aa(lp27
g7
(g11
S'd~p=\x9b\xef\x1d@'
p28
tp29
Rp30
aaa(lp31
(lp32
S'../Data/sqlite_44.csv'
p33
aa(lp34
g7
(g11
S'\xe0r:1|\xd6\x01@'
p35
tp36
Rp37
aaa(lp38
(lp39
S'../Data/sqlite_59.csv'
p40
aa(lp41
g7
(g11
S'\xd4|\xf2\xde\xd5\xc5\x00@'
p42
tp43
Rp44
aaasS'spear'
p45
(lp46
(lp47
(lp48
S'../Data/spear_7.csv'
p49
aa(lp50
g7
(g11
S'\xf4\x01\x8a/\x0bl\xb9?'
p51
tp52
Rp53
aaa(lp54
(lp55
g49
aa(lp56
g7
(g11
S'\xf4\x01\x8a/\x0bl\xb9?'
p57
tp58
Rp59
aaa(lp60
(lp61
g49
aa(lp62
g7
(g11
S'\xf4\x01\x8a/\x0bl\xb9?'
p63
tp64
Rp65
aaa(lp66
(lp67
g49
aa(lp68
g7
(g11
S'\xf4\x01\x8a/\x0bl\xb9?'
p69
tp70
Rp71
aaa(lp72
(lp73
S'../Data/spear_9.csv'
p74
aa(lp75
g7
(g11
S'\xf4\x01\x8a/\x0bl\xb9?'
p76
tp77
Rp78
aaasS'sac'
p79
(lp80
(lp81
(lp82
S'../Data/sac_4.csv'
p83
aa(lp84
g7
(g11
S'f\xfeA\x82\xddq\xe4?'
p85
tp86
Rp87
aaa(lp88
(lp89
g83
aa(lp90
g7
(g11
S'f\xfeA\x82\xddq\xe4?'
p91
tp92
Rp93
aaa(lp94
(lp95
g83
aa(lp96
g7
(g11
S'f\xfeA\x82\xddq\xe4?'
p97
tp98
Rp99
aaa(lp100
(lp101
S'../Data/sac_9.csv'
p102
aa(lp103
g7
(g11
S'\x8e\x08\x1a\x03\x9b\xca\x12@'
p104
tp105
Rp106
aaa(lp107
(lp108
g83
aa(lp109
g7
(g11
S'f\xfeA\x82\xddq\xe4?'
p110
tp111
Rp112
aaasS'storm-obj2'
p113
(lp114
(lp115
(lp116
S'../Data/storm-obj2_feature9.csv'
p117
aa(lp118
g7
(g11
S'\x00\x00\x00\x00\x00\x00\x00\x00'
p119
tp120
Rp121
aaa(lp122
(lp123
g117
aa(lp124
g7
(g11
S'\x00\x00\x00\x00\x00\x00\x00\x00'
p125
tp126
Rp127
aaa(lp128
(lp129
g117
aa(lp130
g7
(g11
S'\x00\x00\x00\x00\x00\x00\x00\x00'
p131
tp132
Rp133
aaa(lp134
(lp135
g117
aa(lp136
g7
(g11
S'\x00\x00\x00\x00\x00\x00\x00\x00'
p137
tp138
Rp139
aaa(lp140
(lp141
g117
aa(lp142
g7
(g11
S'\x00\x00\x00\x00\x00\x00\x00\x00'
p143
tp144
Rp145
aaasS'storm-obj1'
p146
(lp147
(lp148
(lp149
S'../Data/storm-obj1_feature9.csv'
p150
aa(lp151
g7
(g11
S'\xad\x88\x03\xf1-qI@'
p152
tp153
Rp154
aaa(lp155
(lp156
g150
aa(lp157
g7
(g11
S'\xad\x88\x03\xf1-qI@'
p158
tp159
Rp160
aaa(lp161
(lp162
S'../Data/storm-obj1_feature8.csv'
p163
aa(lp164
g7
(g11
S'\xf0\x96\x98JL%\x02@'
p165
tp166
Rp167
aaa(lp168
(lp169
g150
aa(lp170
g7
(g11
S'\xad\x88\x03\xf1-qI@'
p171
tp172
Rp173
aaa(lp174
(lp175
g163
aa(lp176
g7
(g11
S'\xf0\x96\x98JL%\x02@'
p177
tp178
Rp179
aaasS'x264'
p180
(lp181
(lp182
(lp183
S'../Data/x264_0.csv'
p184
aa(lp185
g7
(g11
S'\x97\xbf\xd5\x92\xfbo<@'
p186
tp187
Rp188
aaa(lp189
(lp190
S'../Data/x264_6.csv'
p191
aa(lp192
g7
(g11
S'\x97&u\xa9ld\x01@'
p193
tp194
Rp195
aaa(lp196
(lp197
S'../Data/x264_7.csv'
p198
aa(lp199
g7
(g11
S'\xaa\xee\xd0\x8a\xa3\x9c\xed?'
p200
tp201
Rp202
aaa(lp203
(lp204
g191
aa(lp205
g7
(g11
S'\x97&u\xa9ld\x01@'
p206
tp207
Rp208
aaa(lp209
(lp210
S'../Data/x264_9.csv'
p211
aa(lp212
g7
(g11
S'\x9c^\xf9)\xdba\xd2?'
p213
tp214
Rp215
aaas.