(dp0
S'sqlite'
p1
(lp2
(lp3
(lp4
S'../Data/sqlite_17.csv'
p5
aa(lp6
cnumpy.core.multiarray
scalar
p7
(cnumpy
dtype
p8
(S'f8'
p9
I0
I1
tp10
Rp11
(I3
S'<'
p12
NNNI-1
I-1
I0
tp13
bS'\x98\x1f\xba\x04s\xc1\xeb?'
p14
tp15
Rp16
aaa(lp17
(lp18
S'../Data/sqlite_44.csv'
p19
aa(lp20
g7
(g11
S'\xe0r:1|\xd6\x01@'
p21
tp22
Rp23
aaa(lp24
(lp25
S'../Data/sqlite_16.csv'
p26
aa(lp27
g7
(g11
S'\x10\xb6\x16-R\x16\x0f@'
p28
tp29
Rp30
aaa(lp31
(lp32
S'../Data/sqlite_19.csv'
p33
aa(lp34
g7
(g11
S'T\x93\xe0\x98/\xce\x00@'
p35
tp36
Rp37
aaa(lp38
(lp39
g33
aa(lp40
g7
(g11
S'T\x93\xe0\x98/\xce\x00@'
p41
tp42
Rp43
aaasS'spear'
p44
(lp45
(lp46
(lp47
S'../Data/spear_7.csv'
p48
aa(lp49
g7
(g11
S'\xf4\x01\x8a/\x0bl\xb9?'
p50
tp51
Rp52
aaa(lp53
(lp54
g48
aa(lp55
g7
(g11
S'\xf4\x01\x8a/\x0bl\xb9?'
p56
tp57
Rp58
aaa(lp59
(lp60
g48
aa(lp61
g7
(g11
S'\xf4\x01\x8a/\x0bl\xb9?'
p62
tp63
Rp64
aaa(lp65
(lp66
g48
aa(lp67
g7
(g11
S'\xf4\x01\x8a/\x0bl\xb9?'
p68
tp69
Rp70
aaa(lp71
(lp72
g48
aa(lp73
g7
(g11
S'\xf4\x01\x8a/\x0bl\xb9?'
p74
tp75
Rp76
aaasS'sac'
p77
(lp78
(lp79
(lp80
S'../Data/sac_4.csv'
p81
aa(lp82
g7
(g11
S'f\xfeA\x82\xddq\xe4?'
p83
tp84
Rp85
aaa(lp86
(lp87
S'../Data/sac_9.csv'
p88
aa(lp89
g7
(g11
S'\x8e\x08\x1a\x03\x9b\xca\x12@'
p90
tp91
Rp92
aaa(lp93
(lp94
g81
aa(lp95
g7
(g11
S'f\xfeA\x82\xddq\xe4?'
p96
tp97
Rp98
aaa(lp99
(lp100
g81
aa(lp101
g7
(g11
S'f\xfeA\x82\xddq\xe4?'
p102
tp103
Rp104
aaa(lp105
(lp106
g81
aa(lp107
g7
(g11
S'f\xfeA\x82\xddq\xe4?'
p108
tp109
Rp110
aaasS'storm-obj2'
p111
(lp112
(lp113
(lp114
S'../Data/storm-obj2_feature9.csv'
p115
aa(lp116
g7
(g11
S'\x00\x00\x00\x00\x00\x00\x00\x00'
p117
tp118
Rp119
aaa(lp120
(lp121
g115
aa(lp122
g7
(g11
S'\x00\x00\x00\x00\x00\x00\x00\x00'
p123
tp124
Rp125
aaa(lp126
(lp127
g115
aa(lp128
g7
(g11
S'\x00\x00\x00\x00\x00\x00\x00\x00'
p129
tp130
Rp131
aaa(lp132
(lp133
g115
aa(lp134
g7
(g11
S'\x00\x00\x00\x00\x00\x00\x00\x00'
p135
tp136
Rp137
aaa(lp138
(lp139
g115
aa(lp140
g7
(g11
S'\x00\x00\x00\x00\x00\x00\x00\x00'
p141
tp142
Rp143
aaasS'storm-obj1'
p144
(lp145
(lp146
(lp147
S'../Data/storm-obj1_feature9.csv'
p148
aa(lp149
g7
(g11
S'\xad\x88\x03\xf1-qI@'
p150
tp151
Rp152
aaa(lp153
(lp154
S'../Data/storm-obj1_feature8.csv'
p155
aa(lp156
g7
(g11
S'\xf0\x96\x98JL%\x02@'
p157
tp158
Rp159
aaa(lp160
(lp161
S'../Data/storm-obj1_feature7.csv'
p162
aa(lp163
g7
(g11
S'\xd7\xa5`\xf3\xcc@(@'
p164
tp165
Rp166
aaa(lp167
(lp168
g155
aa(lp169
g7
(g11
S'\xf0\x96\x98JL%\x02@'
p170
tp171
Rp172
aaa(lp173
(lp174
S'../Data/storm-obj1_feature6.csv'
p175
aa(lp176
g7
(g11
S'$*\xe4+\xb9\x070@'
p177
tp178
Rp179
aaasS'x264'
p180
(lp181
(lp182
(lp183
S'../Data/x264_9.csv'
p184
aa(lp185
g7
(g11
S'\x9c^\xf9)\xdba\xd2?'
p186
tp187
Rp188
aaa(lp189
(lp190
g184
aa(lp191
g7
(g11
S'\x9c^\xf9)\xdba\xd2?'
p192
tp193
Rp194
aaa(lp195
(lp196
g184
aa(lp197
g7
(g11
S'\x9c^\xf9)\xdba\xd2?'
p198
tp199
Rp200
aaa(lp201
(lp202
S'../Data/x264_0.csv'
p203
aa(lp204
g7
(g11
S'\x97\xbf\xd5\x92\xfbo<@'
p205
tp206
Rp207
aaa(lp208
(lp209
S'../Data/x264_13.csv'
p210
aa(lp211
g7
(g11
S'd\x85\x0e\xcd\xae\xc0(@'
p212
tp213
Rp214
aaas.