(dp0
S'sqlite'
p1
(lp2
(lp3
(lp4
S'../Data/sqlite_16.csv'
p5
aa(lp6
cnumpy.core.multiarray
scalar
p7
(cnumpy
dtype
p8
(S'f8'
p9
I0
I1
tp10
Rp11
(I3
S'<'
p12
NNNI-1
I-1
I0
tp13
bS'\x10\xb6\x16-R\x16\x0f@'
p14
tp15
Rp16
aaa(lp17
(lp18
S'../Data/sqlite_44.csv'
p19
aa(lp20
g7
(g11
S'\xe0r:1|\xd6\x01@'
p21
tp22
Rp23
aaa(lp24
(lp25
g19
aa(lp26
g7
(g11
S'\xe0r:1|\xd6\x01@'
p27
tp28
Rp29
aaa(lp30
(lp31
S'../Data/sqlite_18.csv'
p32
aa(lp33
g7
(g11
S'\xb1\xb7\x00\xb4n{2@'
p34
tp35
Rp36
aaa(lp37
(lp38
g19
aa(lp39
g7
(g11
S'\xe0r:1|\xd6\x01@'
p40
tp41
Rp42
aaasS'spear'
p43
(lp44
(lp45
(lp46
S'../Data/spear_7.csv'
p47
aa(lp48
g7
(g11
S'\xf4\x01\x8a/\x0bl\xb9?'
p49
tp50
Rp51
aaa(lp52
(lp53
g47
aa(lp54
g7
(g11
S'\xf4\x01\x8a/\x0bl\xb9?'
p55
tp56
Rp57
aaa(lp58
(lp59
g47
aa(lp60
g7
(g11
S'\xf4\x01\x8a/\x0bl\xb9?'
p61
tp62
Rp63
aaa(lp64
(lp65
g47
aa(lp66
g7
(g11
S'\xf4\x01\x8a/\x0bl\xb9?'
p67
tp68
Rp69
aaa(lp70
(lp71
S'../Data/spear_9.csv'
p72
aa(lp73
g7
(g11
S'\xf4\x01\x8a/\x0bl\xb9?'
p74
tp75
Rp76
aaasS'sac'
p77
(lp78
(lp79
(lp80
S'../Data/sac_4.csv'
p81
aa(lp82
g7
(g11
S'f\xfeA\x82\xddq\xe4?'
p83
tp84
Rp85
aaa(lp86
(lp87
g81
aa(lp88
g7
(g11
S'f\xfeA\x82\xddq\xe4?'
p89
tp90
Rp91
aaa(lp92
(lp93
g81
aa(lp94
g7
(g11
S'f\xfeA\x82\xddq\xe4?'
p95
tp96
Rp97
aaa(lp98
(lp99
S'../Data/sac_9.csv'
p100
aa(lp101
g7
(g11
S'\x8e\x08\x1a\x03\x9b\xca\x12@'
p102
tp103
Rp104
aaa(lp105
(lp106
S'../Data/sac_2.csv'
p107
aa(lp108
g7
(g11
S'\x00\x00\x00\x00\x00\x00Y@'
p109
tp110
Rp111
aaasS'storm-obj2'
p112
(lp113
(lp114
(lp115
S'../Data/storm-obj2_feature9.csv'
p116
aa(lp117
g7
(g11
S'\x00\x00\x00\x00\x00\x00\x00\x00'
p118
tp119
Rp120
aaa(lp121
(lp122
g116
aa(lp123
g7
(g11
S'\x00\x00\x00\x00\x00\x00\x00\x00'
p124
tp125
Rp126
aaa(lp127
(lp128
g116
aa(lp129
g7
(g11
S'\x00\x00\x00\x00\x00\x00\x00\x00'
p130
tp131
Rp132
aaa(lp133
(lp134
g116
aa(lp135
g7
(g11
S'\x00\x00\x00\x00\x00\x00\x00\x00'
p136
tp137
Rp138
aaa(lp139
(lp140
g116
aa(lp141
g7
(g11
S'\x00\x00\x00\x00\x00\x00\x00\x00'
p142
tp143
Rp144
aaasS'storm-obj1'
p145
(lp146
(lp147
(lp148
S'../Data/storm-obj1_feature8.csv'
p149
aa(lp150
g7
(g11
S'\xf0\x96\x98JL%\x02@'
p151
tp152
Rp153
aaa(lp154
(lp155
g149
aa(lp156
g7
(g11
S'\xf0\x96\x98JL%\x02@'
p157
tp158
Rp159
aaa(lp160
(lp161
g149
aa(lp162
g7
(g11
S'\xf0\x96\x98JL%\x02@'
p163
tp164
Rp165
aaa(lp166
(lp167
S'../Data/storm-obj1_feature9.csv'
p168
aa(lp169
g7
(g11
S'\xad\x88\x03\xf1-qI@'
p170
tp171
Rp172
aaa(lp173
(lp174
g149
aa(lp175
g7
(g11
S'\xf0\x96\x98JL%\x02@'
p176
tp177
Rp178
aaasS'x264'
p179
(lp180
(lp181
(lp182
S'../Data/x264_11.csv'
p183
aa(lp184
g7
(g11
S'\xea\x02\xd7\x92\xaa-\xf8?'
p185
tp186
Rp187
aaa(lp188
(lp189
g183
aa(lp190
g7
(g11
S'\xea\x02\xd7\x92\xaa-\xf8?'
p191
tp192
Rp193
aaa(lp194
(lp195
g183
aa(lp196
g7
(g11
S'\xea\x02\xd7\x92\xaa-\xf8?'
p197
tp198
Rp199
aaa(lp200
(lp201
S'../Data/x264_8.csv'
p202
aa(lp203
g7
(g11
S'\xea\x02\xd7\x92\xaa-\xf8?'
p204
tp205
Rp206
aaa(lp207
(lp208
S'../Data/x264_10.csv'
p209
aa(lp210
g7
(g11
S'\xaa\xee\xd0\x8a\xa3\x9c\xed?'
p211
tp212
Rp213
aaas.