(dp0
S'sqlite'
p1
(lp2
(lp3
(lp4
S'../Data/sqlite_44.csv'
p5
aa(lp6
cnumpy.core.multiarray
scalar
p7
(cnumpy
dtype
p8
(S'f8'
p9
I0
I1
tp10
Rp11
(I3
S'<'
p12
NNNI-1
I-1
I0
tp13
bS'\xe0r:1|\xd6\x01@'
p14
tp15
Rp16
aaa(lp17
(lp18
S'../Data/sqlite_73.csv'
p19
aa(lp20
g7
(g11
S'\xd2\xb62\xbe\xeb\xbb\x07@'
p21
tp22
Rp23
aaa(lp24
(lp25
g5
aa(lp26
g7
(g11
S'\xe0r:1|\xd6\x01@'
p27
tp28
Rp29
aaa(lp30
(lp31
g19
aa(lp32
g7
(g11
S'\xd2\xb62\xbe\xeb\xbb\x07@'
p33
tp34
Rp35
aaa(lp36
(lp37
S'../Data/sqlite_16.csv'
p38
aa(lp39
g7
(g11
S'\x10\xb6\x16-R\x16\x0f@'
p40
tp41
Rp42
aaasS'spear'
p43
(lp44
(lp45
(lp46
S'../Data/spear_1.csv'
p47
aa(lp48
g7
(g11
S'\xf4\x01\x8a/\x0bl\xb9?'
p49
tp50
Rp51
aaa(lp52
(lp53
S'../Data/spear_7.csv'
p54
aa(lp55
g7
(g11
S'\xf4\x01\x8a/\x0bl\xb9?'
p56
tp57
Rp58
aaa(lp59
(lp60
g54
aa(lp61
g7
(g11
S'\xf4\x01\x8a/\x0bl\xb9?'
p62
tp63
Rp64
aaa(lp65
(lp66
g54
aa(lp67
g7
(g11
S'\xf4\x01\x8a/\x0bl\xb9?'
p68
tp69
Rp70
aaa(lp71
(lp72
S'../Data/spear_9.csv'
p73
aa(lp74
g7
(g11
S'\xf4\x01\x8a/\x0bl\xb9?'
p75
tp76
Rp77
aaasS'sac'
p78
(lp79
(lp80
(lp81
S'../Data/sac_4.csv'
p82
aa(lp83
g7
(g11
S'f\xfeA\x82\xddq\xe4?'
p84
tp85
Rp86
aaa(lp87
(lp88
S'../Data/sac_2.csv'
p89
aa(lp90
g7
(g11
S'\x00\x00\x00\x00\x00\x00Y@'
p91
tp92
Rp93
aaa(lp94
(lp95
g82
aa(lp96
g7
(g11
S'f\xfeA\x82\xddq\xe4?'
p97
tp98
Rp99
aaa(lp100
(lp101
g82
aa(lp102
g7
(g11
S'f\xfeA\x82\xddq\xe4?'
p103
tp104
Rp105
aaa(lp106
(lp107
g82
aa(lp108
g7
(g11
S'f\xfeA\x82\xddq\xe4?'
p109
tp110
Rp111
aaasS'storm-obj2'
p112
(lp113
(lp114
(lp115
S'../Data/storm-obj2_feature9.csv'
p116
aa(lp117
g7
(g11
S'\x00\x00\x00\x00\x00\x00\x00\x00'
p118
tp119
Rp120
aaa(lp121
(lp122
g116
aa(lp123
g7
(g11
S'\x00\x00\x00\x00\x00\x00\x00\x00'
p124
tp125
Rp126
aaa(lp127
(lp128
g116
aa(lp129
g7
(g11
S'\x00\x00\x00\x00\x00\x00\x00\x00'
p130
tp131
Rp132
aaa(lp133
(lp134
g116
aa(lp135
g7
(g11
S'\x00\x00\x00\x00\x00\x00\x00\x00'
p136
tp137
Rp138
aaa(lp139
(lp140
g116
aa(lp141
g7
(g11
S'\x00\x00\x00\x00\x00\x00\x00\x00'
p142
tp143
Rp144
aaasS'storm-obj1'
p145
(lp146
(lp147
(lp148
S'../Data/storm-obj1_feature9.csv'
p149
aa(lp150
g7
(g11
S'\xad\x88\x03\xf1-qI@'
p151
tp152
Rp153
aaa(lp154
(lp155
S'../Data/storm-obj1_feature8.csv'
p156
aa(lp157
g7
(g11
S'\xf0\x96\x98JL%\x02@'
p158
tp159
Rp160
aaa(lp161
(lp162
g156
aa(lp163
g7
(g11
S'\xf0\x96\x98JL%\x02@'
p164
tp165
Rp166
aaa(lp167
(lp168
g156
aa(lp169
g7
(g11
S'\xf0\x96\x98JL%\x02@'
p170
tp171
Rp172
aaa(lp173
(lp174
g156
aa(lp175
g7
(g11
S'\xf0\x96\x98JL%\x02@'
p176
tp177
Rp178
aaasS'x264'
p179
(lp180
(lp181
(lp182
S'../Data/x264_10.csv'
p183
aa(lp184
g7
(g11
S'\xaa\xee\xd0\x8a\xa3\x9c\xed?'
p185
tp186
Rp187
aaa(lp188
(lp189
S'../Data/x264_3.csv'
p190
aa(lp191
g7
(g11
S'\xf5\xde\xdf\xd3\x8f\x9d\x1e@'
p192
tp193
Rp194
aaa(lp195
(lp196
S'../Data/x264_13.csv'
p197
aa(lp198
g7
(g11
S'd\x85\x0e\xcd\xae\xc0(@'
p199
tp200
Rp201
aaa(lp202
(lp203
S'../Data/x264_5.csv'
p204
aa(lp205
g7
(g11
S'\x8e^L\x9e\xd0\xc5\x01@'
p206
tp207
Rp208
aaa(lp209
(lp210
S'../Data/x264_6.csv'
p211
aa(lp212
g7
(g11
S'\x97&u\xa9ld\x01@'
p213
tp214
Rp215
aaas.