(dp0
S'sqlite'
p1
(lp2
(lp3
(lp4
S'../Data/sqlite_19.csv'
p5
aa(lp6
cnumpy.core.multiarray
scalar
p7
(cnumpy
dtype
p8
(S'f8'
p9
I0
I1
tp10
Rp11
(I3
S'<'
p12
NNNI-1
I-1
I0
tp13
bS'T\x93\xe0\x98/\xce\x00@'
p14
tp15
Rp16
aaa(lp17
(lp18
S'../Data/sqlite_18.csv'
p19
aa(lp20
g7
(g11
S'\xb1\xb7\x00\xb4n{2@'
p21
tp22
Rp23
aaa(lp24
(lp25
g5
aa(lp26
g7
(g11
S'T\x93\xe0\x98/\xce\x00@'
p27
tp28
Rp29
aaa(lp30
(lp31
S'../Data/sqlite_79.csv'
p32
aa(lp33
g7
(g11
S'TJ\x86\x1e\\\xf5\x16@'
p34
tp35
Rp36
aaa(lp37
(lp38
S'../Data/sqlite_11.csv'
p39
aa(lp40
g7
(g11
S'z/1,\xbc\xfd\x1a@'
p41
tp42
Rp43
aaasS'spear'
p44
(lp45
(lp46
(lp47
S'../Data/spear_1.csv'
p48
aa(lp49
g7
(g11
S'\xf4\x01\x8a/\x0bl\xb9?'
p50
tp51
Rp52
aaa(lp53
(lp54
S'../Data/spear_7.csv'
p55
aa(lp56
g7
(g11
S'\xf4\x01\x8a/\x0bl\xb9?'
p57
tp58
Rp59
aaa(lp60
(lp61
g55
aa(lp62
g7
(g11
S'\xf4\x01\x8a/\x0bl\xb9?'
p63
tp64
Rp65
aaa(lp66
(lp67
g48
aa(lp68
g7
(g11
S'\xf4\x01\x8a/\x0bl\xb9?'
p69
tp70
Rp71
aaa(lp72
(lp73
g48
aa(lp74
g7
(g11
S'\xf4\x01\x8a/\x0bl\xb9?'
p75
tp76
Rp77
aaasS'sac'
p78
(lp79
(lp80
(lp81
S'../Data/sac_4.csv'
p82
aa(lp83
g7
(g11
S'f\xfeA\x82\xddq\xe4?'
p84
tp85
Rp86
aaa(lp87
(lp88
S'../Data/sac_9.csv'
p89
aa(lp90
g7
(g11
S'\x8e\x08\x1a\x03\x9b\xca\x12@'
p91
tp92
Rp93
aaa(lp94
(lp95
g82
aa(lp96
g7
(g11
S'f\xfeA\x82\xddq\xe4?'
p97
tp98
Rp99
aaa(lp100
(lp101
g82
aa(lp102
g7
(g11
S'f\xfeA\x82\xddq\xe4?'
p103
tp104
Rp105
aaa(lp106
(lp107
g82
aa(lp108
g7
(g11
S'f\xfeA\x82\xddq\xe4?'
p109
tp110
Rp111
aaasS'storm-obj2'
p112
(lp113
(lp114
(lp115
S'../Data/storm-obj2_feature9.csv'
p116
aa(lp117
g7
(g11
S'\x00\x00\x00\x00\x00\x00\x00\x00'
p118
tp119
Rp120
aaa(lp121
(lp122
g116
aa(lp123
g7
(g11
S'\x00\x00\x00\x00\x00\x00\x00\x00'
p124
tp125
Rp126
aaa(lp127
(lp128
g116
aa(lp129
g7
(g11
S'\x00\x00\x00\x00\x00\x00\x00\x00'
p130
tp131
Rp132
aaa(lp133
(lp134
g116
aa(lp135
g7
(g11
S'\x00\x00\x00\x00\x00\x00\x00\x00'
p136
tp137
Rp138
aaa(lp139
(lp140
g116
aa(lp141
g7
(g11
S'\x00\x00\x00\x00\x00\x00\x00\x00'
p142
tp143
Rp144
aaasS'storm-obj1'
p145
(lp146
(lp147
(lp148
S'../Data/storm-obj1_feature8.csv'
p149
aa(lp150
g7
(g11
S'\xf0\x96\x98JL%\x02@'
p151
tp152
Rp153
aaa(lp154
(lp155
g149
aa(lp156
g7
(g11
S'\xf0\x96\x98JL%\x02@'
p157
tp158
Rp159
aaa(lp160
(lp161
g149
aa(lp162
g7
(g11
S'\xf0\x96\x98JL%\x02@'
p163
tp164
Rp165
aaa(lp166
(lp167
g149
aa(lp168
g7
(g11
S'\xf0\x96\x98JL%\x02@'
p169
tp170
Rp171
aaa(lp172
(lp173
S'../Data/storm-obj1_feature9.csv'
p174
aa(lp175
g7
(g11
S'\xad\x88\x03\xf1-qI@'
p176
tp177
Rp178
aaasS'x264'
p179
(lp180
(lp181
(lp182
S'../Data/x264_8.csv'
p183
aa(lp184
g7
(g11
S'\xea\x02\xd7\x92\xaa-\xf8?'
p185
tp186
Rp187
aaa(lp188
(lp189
S'../Data/x264_11.csv'
p190
aa(lp191
g7
(g11
S'\xea\x02\xd7\x92\xaa-\xf8?'
p192
tp193
Rp194
aaa(lp195
(lp196
S'../Data/x264_6.csv'
p197
aa(lp198
g7
(g11
S'\x97&u\xa9ld\x01@'
p199
tp200
Rp201
aaa(lp202
(lp203
S'../Data/x264_7.csv'
p204
aa(lp205
g7
(g11
S'\xaa\xee\xd0\x8a\xa3\x9c\xed?'
p206
tp207
Rp208
aaa(lp209
(lp210
g204
aa(lp211
g7
(g11
S'\xaa\xee\xd0\x8a\xa3\x9c\xed?'
p212
tp213
Rp214
aaas.