(dp0
S'sqlite'
p1
(lp2
(lp3
(lp4
S'../Data/sqlite_18.csv'
p5
aa(lp6
cnumpy.core.multiarray
scalar
p7
(cnumpy
dtype
p8
(S'f8'
p9
I0
I1
tp10
Rp11
(I3
S'<'
p12
NNNI-1
I-1
I0
tp13
bS'\xb1\xb7\x00\xb4n{2@'
p14
tp15
Rp16
aaa(lp17
(lp18
S'../Data/sqlite_59.csv'
p19
aa(lp20
g7
(g11
S'\xd4|\xf2\xde\xd5\xc5\x00@'
p21
tp22
Rp23
aaa(lp24
(lp25
g5
aa(lp26
g7
(g11
S'\xb1\xb7\x00\xb4n{2@'
p27
tp28
Rp29
aaa(lp30
(lp31
S'../Data/sqlite_45.csv'
p32
aa(lp33
g7
(g11
S'\xd4\xe32\x92r\xd3\x0b@'
p34
tp35
Rp36
aaa(lp37
(lp38
S'../Data/sqlite_16.csv'
p39
aa(lp40
g7
(g11
S'\x10\xb6\x16-R\x16\x0f@'
p41
tp42
Rp43
aaasS'spear'
p44
(lp45
(lp46
(lp47
S'../Data/spear_7.csv'
p48
aa(lp49
g7
(g11
S'\xf4\x01\x8a/\x0bl\xb9?'
p50
tp51
Rp52
aaa(lp53
(lp54
S'../Data/spear_1.csv'
p55
aa(lp56
g7
(g11
S'\xf4\x01\x8a/\x0bl\xb9?'
p57
tp58
Rp59
aaa(lp60
(lp61
g48
aa(lp62
g7
(g11
S'\xf4\x01\x8a/\x0bl\xb9?'
p63
tp64
Rp65
aaa(lp66
(lp67
S'../Data/spear_9.csv'
p68
aa(lp69
g7
(g11
S'\xf4\x01\x8a/\x0bl\xb9?'
p70
tp71
Rp72
aaa(lp73
(lp74
g48
aa(lp75
g7
(g11
S'\xf4\x01\x8a/\x0bl\xb9?'
p76
tp77
Rp78
aaasS'sac'
p79
(lp80
(lp81
(lp82
S'../Data/sac_2.csv'
p83
aa(lp84
g7
(g11
S'\x00\x00\x00\x00\x00\x00Y@'
p85
tp86
Rp87
aaa(lp88
(lp89
S'../Data/sac_8.csv'
p90
aa(lp91
g7
(g11
S'oZ\x1e\x8c\xd9\x85\xec?'
p92
tp93
Rp94
aaa(lp95
(lp96
g83
aa(lp97
g7
(g11
S'\x00\x00\x00\x00\x00\x00Y@'
p98
tp99
Rp100
aaa(lp101
(lp102
S'../Data/sac_4.csv'
p103
aa(lp104
g7
(g11
S'f\xfeA\x82\xddq\xe4?'
p105
tp106
Rp107
aaa(lp108
(lp109
S'../Data/sac_9.csv'
p110
aa(lp111
g7
(g11
S'\x8e\x08\x1a\x03\x9b\xca\x12@'
p112
tp113
Rp114
aaasS'storm-obj2'
p115
(lp116
(lp117
(lp118
S'../Data/storm-obj2_feature9.csv'
p119
aa(lp120
g7
(g11
S'\x00\x00\x00\x00\x00\x00\x00\x00'
p121
tp122
Rp123
aaa(lp124
(lp125
g119
aa(lp126
g7
(g11
S'\x00\x00\x00\x00\x00\x00\x00\x00'
p127
tp128
Rp129
aaa(lp130
(lp131
g119
aa(lp132
g7
(g11
S'\x00\x00\x00\x00\x00\x00\x00\x00'
p133
tp134
Rp135
aaa(lp136
(lp137
g119
aa(lp138
g7
(g11
S'\x00\x00\x00\x00\x00\x00\x00\x00'
p139
tp140
Rp141
aaa(lp142
(lp143
g119
aa(lp144
g7
(g11
S'\x00\x00\x00\x00\x00\x00\x00\x00'
p145
tp146
Rp147
aaasS'storm-obj1'
p148
(lp149
(lp150
(lp151
S'../Data/storm-obj1_feature8.csv'
p152
aa(lp153
g7
(g11
S'\xf0\x96\x98JL%\x02@'
p154
tp155
Rp156
aaa(lp157
(lp158
S'../Data/storm-obj1_feature9.csv'
p159
aa(lp160
g7
(g11
S'\xad\x88\x03\xf1-qI@'
p161
tp162
Rp163
aaa(lp164
(lp165
S'../Data/storm-obj1_feature7.csv'
p166
aa(lp167
g7
(g11
S'\xd7\xa5`\xf3\xcc@(@'
p168
tp169
Rp170
aaa(lp171
(lp172
g159
aa(lp173
g7
(g11
S'\xad\x88\x03\xf1-qI@'
p174
tp175
Rp176
aaa(lp177
(lp178
g152
aa(lp179
g7
(g11
S'\xf0\x96\x98JL%\x02@'
p180
tp181
Rp182
aaasS'x264'
p183
(lp184
(lp185
(lp186
S'../Data/x264_7.csv'
p187
aa(lp188
g7
(g11
S'\xaa\xee\xd0\x8a\xa3\x9c\xed?'
p189
tp190
Rp191
aaa(lp192
(lp193
g187
aa(lp194
g7
(g11
S'\xaa\xee\xd0\x8a\xa3\x9c\xed?'
p195
tp196
Rp197
aaa(lp198
(lp199
S'../Data/x264_9.csv'
p200
aa(lp201
g7
(g11
S'\x9c^\xf9)\xdba\xd2?'
p202
tp203
Rp204
aaa(lp205
(lp206
S'../Data/x264_11.csv'
p207
aa(lp208
g7
(g11
S'\xea\x02\xd7\x92\xaa-\xf8?'
p209
tp210
Rp211
aaa(lp212
(lp213
S'../Data/x264_10.csv'
p214
aa(lp215
g7
(g11
S'\xaa\xee\xd0\x8a\xa3\x9c\xed?'
p216
tp217
Rp218
aaas.