(dp0
S'sqlite'
p1
(lp2
(lp3
(lp4
S'../Data/sqlite_18.csv'
p5
aa(lp6
cnumpy.core.multiarray
scalar
p7
(cnumpy
dtype
p8
(S'f8'
p9
I0
I1
tp10
Rp11
(I3
S'<'
p12
NNNI-1
I-1
I0
tp13
bS'\xb1\xb7\x00\xb4n{2@'
p14
tp15
Rp16
aaa(lp17
(lp18
S'../Data/sqlite_45.csv'
p19
aa(lp20
g7
(g11
S'\xd4\xe32\x92r\xd3\x0b@'
p21
tp22
Rp23
aaa(lp24
(lp25
S'../Data/sqlite_44.csv'
p26
aa(lp27
g7
(g11
S'\xe0r:1|\xd6\x01@'
p28
tp29
Rp30
aaa(lp31
(lp32
g5
aa(lp33
g7
(g11
S'\xb1\xb7\x00\xb4n{2@'
p34
tp35
Rp36
aaa(lp37
(lp38
S'../Data/sqlite_79.csv'
p39
aa(lp40
g7
(g11
S'TJ\x86\x1e\\\xf5\x16@'
p41
tp42
Rp43
aaasS'spear'
p44
(lp45
(lp46
(lp47
S'../Data/spear_7.csv'
p48
aa(lp49
g7
(g11
S'\xf4\x01\x8a/\x0bl\xb9?'
p50
tp51
Rp52
aaa(lp53
(lp54
g48
aa(lp55
g7
(g11
S'\xf4\x01\x8a/\x0bl\xb9?'
p56
tp57
Rp58
aaa(lp59
(lp60
g48
aa(lp61
g7
(g11
S'\xf4\x01\x8a/\x0bl\xb9?'
p62
tp63
Rp64
aaa(lp65
(lp66
S'../Data/spear_9.csv'
p67
aa(lp68
g7
(g11
S'\xf4\x01\x8a/\x0bl\xb9?'
p69
tp70
Rp71
aaa(lp72
(lp73
g48
aa(lp74
g7
(g11
S'\xf4\x01\x8a/\x0bl\xb9?'
p75
tp76
Rp77
aaasS'sac'
p78
(lp79
(lp80
(lp81
S'../Data/sac_4.csv'
p82
aa(lp83
g7
(g11
S'f\xfeA\x82\xddq\xe4?'
p84
tp85
Rp86
aaa(lp87
(lp88
g82
aa(lp89
g7
(g11
S'f\xfeA\x82\xddq\xe4?'
p90
tp91
Rp92
aaa(lp93
(lp94
g82
aa(lp95
g7
(g11
S'f\xfeA\x82\xddq\xe4?'
p96
tp97
Rp98
aaa(lp99
(lp100
S'../Data/sac_8.csv'
p101
aa(lp102
g7
(g11
S'oZ\x1e\x8c\xd9\x85\xec?'
p103
tp104
Rp105
aaa(lp106
(lp107
g82
aa(lp108
g7
(g11
S'f\xfeA\x82\xddq\xe4?'
p109
tp110
Rp111
aaasS'storm-obj2'
p112
(lp113
(lp114
(lp115
S'../Data/storm-obj2_feature9.csv'
p116
aa(lp117
g7
(g11
S'\x00\x00\x00\x00\x00\x00\x00\x00'
p118
tp119
Rp120
aaa(lp121
(lp122
g116
aa(lp123
g7
(g11
S'\x00\x00\x00\x00\x00\x00\x00\x00'
p124
tp125
Rp126
aaa(lp127
(lp128
g116
aa(lp129
g7
(g11
S'\x00\x00\x00\x00\x00\x00\x00\x00'
p130
tp131
Rp132
aaa(lp133
(lp134
g116
aa(lp135
g7
(g11
S'\x00\x00\x00\x00\x00\x00\x00\x00'
p136
tp137
Rp138
aaa(lp139
(lp140
g116
aa(lp141
g7
(g11
S'\x00\x00\x00\x00\x00\x00\x00\x00'
p142
tp143
Rp144
aaasS'storm-obj1'
p145
(lp146
(lp147
(lp148
S'../Data/storm-obj1_feature9.csv'
p149
aa(lp150
g7
(g11
S'\xad\x88\x03\xf1-qI@'
p151
tp152
Rp153
aaa(lp154
(lp155
g149
aa(lp156
g7
(g11
S'\xad\x88\x03\xf1-qI@'
p157
tp158
Rp159
aaa(lp160
(lp161
S'../Data/storm-obj1_feature8.csv'
p162
aa(lp163
g7
(g11
S'\xf0\x96\x98JL%\x02@'
p164
tp165
Rp166
aaa(lp167
(lp168
g162
aa(lp169
g7
(g11
S'\xf0\x96\x98JL%\x02@'
p170
tp171
Rp172
aaa(lp173
(lp174
g149
aa(lp175
g7
(g11
S'\xad\x88\x03\xf1-qI@'
p176
tp177
Rp178
aaasS'x264'
p179
(lp180
(lp181
(lp182
S'../Data/x264_10.csv'
p183
aa(lp184
g7
(g11
S'\xaa\xee\xd0\x8a\xa3\x9c\xed?'
p185
tp186
Rp187
aaa(lp188
(lp189
S'../Data/x264_1.csv'
p190
aa(lp191
g7
(g11
S'\xea\x02\xd7\x92\xaa-\xf8?'
p192
tp193
Rp194
aaa(lp195
(lp196
g183
aa(lp197
g7
(g11
S'\xaa\xee\xd0\x8a\xa3\x9c\xed?'
p198
tp199
Rp200
aaa(lp201
(lp202
g183
aa(lp203
g7
(g11
S'\xaa\xee\xd0\x8a\xa3\x9c\xed?'
p204
tp205
Rp206
aaa(lp207
(lp208
S'../Data/x264_9.csv'
p209
aa(lp210
g7
(g11
S'\x9c^\xf9)\xdba\xd2?'
p211
tp212
Rp213
aaas.