(dp0
S'sqlite'
p1
(lp2
(lp3
(lp4
S'../Data/sqlite_94.csv'
p5
aa(lp6
cnumpy.core.multiarray
scalar
p7
(cnumpy
dtype
p8
(S'f8'
p9
I0
I1
tp10
Rp11
(I3
S'<'
p12
NNNI-1
I-1
I0
tp13
bS'.\x9b\x95\xb9\xcdA@@'
p14
tp15
Rp16
aaa(lp17
(lp18
S'../Data/sqlite_45.csv'
p19
aa(lp20
g7
(g11
S'\xd4\xe32\x92r\xd3\x0b@'
p21
tp22
Rp23
aaa(lp24
(lp25
S'../Data/sqlite_73.csv'
p26
aa(lp27
g7
(g11
S'\xd2\xb62\xbe\xeb\xbb\x07@'
p28
tp29
Rp30
aaa(lp31
(lp32
S'../Data/sqlite_79.csv'
p33
aa(lp34
g7
(g11
S'TJ\x86\x1e\\\xf5\x16@'
p35
tp36
Rp37
aaa(lp38
(lp39
S'../Data/sqlite_10.csv'
p40
aa(lp41
g7
(g11
S'\x15\xf2,\xa9U;\x13@'
p42
tp43
Rp44
aaasS'spear'
p45
(lp46
(lp47
(lp48
S'../Data/spear_9.csv'
p49
aa(lp50
g7
(g11
S'\xf4\x01\x8a/\x0bl\xb9?'
p51
tp52
Rp53
aaa(lp54
(lp55
S'../Data/spear_7.csv'
p56
aa(lp57
g7
(g11
S'\xf4\x01\x8a/\x0bl\xb9?'
p58
tp59
Rp60
aaa(lp61
(lp62
S'../Data/spear_1.csv'
p63
aa(lp64
g7
(g11
S'\xf4\x01\x8a/\x0bl\xb9?'
p65
tp66
Rp67
aaa(lp68
(lp69
g63
aa(lp70
g7
(g11
S'\xf4\x01\x8a/\x0bl\xb9?'
p71
tp72
Rp73
aaa(lp74
(lp75
g56
aa(lp76
g7
(g11
S'\xf4\x01\x8a/\x0bl\xb9?'
p77
tp78
Rp79
aaasS'sac'
p80
(lp81
(lp82
(lp83
S'../Data/sac_6.csv'
p84
aa(lp85
g7
(g11
S'\x1a\xd2\x82\xa7\x94\x0e\xd2?'
p86
tp87
Rp88
aaa(lp89
(lp90
S'../Data/sac_4.csv'
p91
aa(lp92
g7
(g11
S'f\xfeA\x82\xddq\xe4?'
p93
tp94
Rp95
aaa(lp96
(lp97
g91
aa(lp98
g7
(g11
S'f\xfeA\x82\xddq\xe4?'
p99
tp100
Rp101
aaa(lp102
(lp103
g91
aa(lp104
g7
(g11
S'f\xfeA\x82\xddq\xe4?'
p105
tp106
Rp107
aaa(lp108
(lp109
S'../Data/sac_9.csv'
p110
aa(lp111
g7
(g11
S'\x8e\x08\x1a\x03\x9b\xca\x12@'
p112
tp113
Rp114
aaasS'storm-obj2'
p115
(lp116
(lp117
(lp118
S'../Data/storm-obj2_feature9.csv'
p119
aa(lp120
g7
(g11
S'\x00\x00\x00\x00\x00\x00\x00\x00'
p121
tp122
Rp123
aaa(lp124
(lp125
g119
aa(lp126
g7
(g11
S'\x00\x00\x00\x00\x00\x00\x00\x00'
p127
tp128
Rp129
aaa(lp130
(lp131
g119
aa(lp132
g7
(g11
S'\x00\x00\x00\x00\x00\x00\x00\x00'
p133
tp134
Rp135
aaa(lp136
(lp137
g119
aa(lp138
g7
(g11
S'\x00\x00\x00\x00\x00\x00\x00\x00'
p139
tp140
Rp141
aaa(lp142
(lp143
g119
aa(lp144
g7
(g11
S'\x00\x00\x00\x00\x00\x00\x00\x00'
p145
tp146
Rp147
aaasS'storm-obj1'
p148
(lp149
(lp150
(lp151
S'../Data/storm-obj1_feature9.csv'
p152
aa(lp153
g7
(g11
S'\xad\x88\x03\xf1-qI@'
p154
tp155
Rp156
aaa(lp157
(lp158
g152
aa(lp159
g7
(g11
S'\xad\x88\x03\xf1-qI@'
p160
tp161
Rp162
aaa(lp163
(lp164
S'../Data/storm-obj1_feature8.csv'
p165
aa(lp166
g7
(g11
S'\xf0\x96\x98JL%\x02@'
p167
tp168
Rp169
aaa(lp170
(lp171
g152
aa(lp172
g7
(g11
S'\xad\x88\x03\xf1-qI@'
p173
tp174
Rp175
aaa(lp176
(lp177
g152
aa(lp178
g7
(g11
S'\xad\x88\x03\xf1-qI@'
p179
tp180
Rp181
aaasS'x264'
p182
(lp183
(lp184
(lp185
S'../Data/x264_9.csv'
p186
aa(lp187
g7
(g11
S'\x9c^\xf9)\xdba\xd2?'
p188
tp189
Rp190
aaa(lp191
(lp192
S'../Data/x264_8.csv'
p193
aa(lp194
g7
(g11
S'\xea\x02\xd7\x92\xaa-\xf8?'
p195
tp196
Rp197
aaa(lp198
(lp199
S'../Data/x264_19.csv'
p200
aa(lp201
g7
(g11
S'E\r\xb7\x94\x08\xd5\x16@'
p202
tp203
Rp204
aaa(lp205
(lp206
S'../Data/x264_5.csv'
p207
aa(lp208
g7
(g11
S'\x8e^L\x9e\xd0\xc5\x01@'
p209
tp210
Rp211
aaa(lp212
(lp213
S'../Data/x264_6.csv'
p214
aa(lp215
g7
(g11
S'\x97&u\xa9ld\x01@'
p216
tp217
Rp218
aaas.