(dp0
S'sqlite'
p1
(lp2
(lp3
(lp4
S'../Data/sqlite_10.csv'
p5
aa(lp6
cnumpy.core.multiarray
scalar
p7
(cnumpy
dtype
p8
(S'f8'
p9
I0
I1
tp10
Rp11
(I3
S'<'
p12
NNNI-1
I-1
I0
tp13
bS'\x15\xf2,\xa9U;\x13@'
p14
tp15
Rp16
aaa(lp17
(lp18
S'../Data/sqlite_19.csv'
p19
aa(lp20
g7
(g11
S'T\x93\xe0\x98/\xce\x00@'
p21
tp22
Rp23
aaa(lp24
(lp25
g5
aa(lp26
g7
(g11
S'\x15\xf2,\xa9U;\x13@'
p27
tp28
Rp29
aaa(lp30
(lp31
g5
aa(lp32
g7
(g11
S'\x15\xf2,\xa9U;\x13@'
p33
tp34
Rp35
aaa(lp36
(lp37
S'../Data/sqlite_11.csv'
p38
aa(lp39
g7
(g11
S'z/1,\xbc\xfd\x1a@'
p40
tp41
Rp42
aaasS'spear'
p43
(lp44
(lp45
(lp46
S'../Data/spear_7.csv'
p47
aa(lp48
g7
(g11
S'\xf4\x01\x8a/\x0bl\xb9?'
p49
tp50
Rp51
aaa(lp52
(lp53
g47
aa(lp54
g7
(g11
S'\xf4\x01\x8a/\x0bl\xb9?'
p55
tp56
Rp57
aaa(lp58
(lp59
g47
aa(lp60
g7
(g11
S'\xf4\x01\x8a/\x0bl\xb9?'
p61
tp62
Rp63
aaa(lp64
(lp65
S'../Data/spear_1.csv'
p66
aa(lp67
g7
(g11
S'\xf4\x01\x8a/\x0bl\xb9?'
p68
tp69
Rp70
aaa(lp71
(lp72
g66
aa(lp73
g7
(g11
S'\xf4\x01\x8a/\x0bl\xb9?'
p74
tp75
Rp76
aaasS'sac'
p77
(lp78
(lp79
(lp80
S'../Data/sac_2.csv'
p81
aa(lp82
g7
(g11
S'\x00\x00\x00\x00\x00\x00Y@'
p83
tp84
Rp85
aaa(lp86
(lp87
g81
aa(lp88
g7
(g11
S'\x00\x00\x00\x00\x00\x00Y@'
p89
tp90
Rp91
aaa(lp92
(lp93
S'../Data/sac_4.csv'
p94
aa(lp95
g7
(g11
S'f\xfeA\x82\xddq\xe4?'
p96
tp97
Rp98
aaa(lp99
(lp100
S'../Data/sac_9.csv'
p101
aa(lp102
g7
(g11
S'\x8e\x08\x1a\x03\x9b\xca\x12@'
p103
tp104
Rp105
aaa(lp106
(lp107
g94
aa(lp108
g7
(g11
S'f\xfeA\x82\xddq\xe4?'
p109
tp110
Rp111
aaasS'storm-obj2'
p112
(lp113
(lp114
(lp115
S'../Data/storm-obj2_feature9.csv'
p116
aa(lp117
g7
(g11
S'\x00\x00\x00\x00\x00\x00\x00\x00'
p118
tp119
Rp120
aaa(lp121
(lp122
g116
aa(lp123
g7
(g11
S'\x00\x00\x00\x00\x00\x00\x00\x00'
p124
tp125
Rp126
aaa(lp127
(lp128
g116
aa(lp129
g7
(g11
S'\x00\x00\x00\x00\x00\x00\x00\x00'
p130
tp131
Rp132
aaa(lp133
(lp134
g116
aa(lp135
g7
(g11
S'\x00\x00\x00\x00\x00\x00\x00\x00'
p136
tp137
Rp138
aaa(lp139
(lp140
g116
aa(lp141
g7
(g11
S'\x00\x00\x00\x00\x00\x00\x00\x00'
p142
tp143
Rp144
aaasS'storm-obj1'
p145
(lp146
(lp147
(lp148
S'../Data/storm-obj1_feature8.csv'
p149
aa(lp150
g7
(g11
S'\xf0\x96\x98JL%\x02@'
p151
tp152
Rp153
aaa(lp154
(lp155
g149
aa(lp156
g7
(g11
S'\xf0\x96\x98JL%\x02@'
p157
tp158
Rp159
aaa(lp160
(lp161
g149
aa(lp162
g7
(g11
S'\xf0\x96\x98JL%\x02@'
p163
tp164
Rp165
aaa(lp166
(lp167
g149
aa(lp168
g7
(g11
S'\xf0\x96\x98JL%\x02@'
p169
tp170
Rp171
aaa(lp172
(lp173
g149
aa(lp174
g7
(g11
S'\xf0\x96\x98JL%\x02@'
p175
tp176
Rp177
aaasS'x264'
p178
(lp179
(lp180
(lp181
S'../Data/x264_10.csv'
p182
aa(lp183
g7
(g11
S'\xaa\xee\xd0\x8a\xa3\x9c\xed?'
p184
tp185
Rp186
aaa(lp187
(lp188
S'../Data/x264_9.csv'
p189
aa(lp190
g7
(g11
S'\x9c^\xf9)\xdba\xd2?'
p191
tp192
Rp193
aaa(lp194
(lp195
S'../Data/x264_11.csv'
p196
aa(lp197
g7
(g11
S'\xea\x02\xd7\x92\xaa-\xf8?'
p198
tp199
Rp200
aaa(lp201
(lp202
S'../Data/x264_6.csv'
p203
aa(lp204
g7
(g11
S'\x97&u\xa9ld\x01@'
p205
tp206
Rp207
aaa(lp208
(lp209
g189
aa(lp210
g7
(g11
S'\x9c^\xf9)\xdba\xd2?'
p211
tp212
Rp213
aaas.