(dp0
S'sqlite'
p1
(lp2
(lp3
(lp4
S'../Data/sqlite_59.csv'
p5
aa(lp6
cnumpy.core.multiarray
scalar
p7
(cnumpy
dtype
p8
(S'f8'
p9
I0
I1
tp10
Rp11
(I3
S'<'
p12
NNNI-1
I-1
I0
tp13
bS'\xd4|\xf2\xde\xd5\xc5\x00@'
p14
tp15
Rp16
aaa(lp17
(lp18
S'../Data/sqlite_17.csv'
p19
aa(lp20
g7
(g11
S'\x98\x1f\xba\x04s\xc1\xeb?'
p21
tp22
Rp23
aaa(lp24
(lp25
S'../Data/sqlite_18.csv'
p26
aa(lp27
g7
(g11
S'\xb1\xb7\x00\xb4n{2@'
p28
tp29
Rp30
aaa(lp31
(lp32
S'../Data/sqlite_16.csv'
p33
aa(lp34
g7
(g11
S'\x10\xb6\x16-R\x16\x0f@'
p35
tp36
Rp37
aaa(lp38
(lp39
S'../Data/sqlite_45.csv'
p40
aa(lp41
g7
(g11
S'\xd4\xe32\x92r\xd3\x0b@'
p42
tp43
Rp44
aaasS'spear'
p45
(lp46
(lp47
(lp48
S'../Data/spear_1.csv'
p49
aa(lp50
g7
(g11
S'\xf4\x01\x8a/\x0bl\xb9?'
p51
tp52
Rp53
aaa(lp54
(lp55
S'../Data/spear_9.csv'
p56
aa(lp57
g7
(g11
S'\xf4\x01\x8a/\x0bl\xb9?'
p58
tp59
Rp60
aaa(lp61
(lp62
g56
aa(lp63
g7
(g11
S'\xf4\x01\x8a/\x0bl\xb9?'
p64
tp65
Rp66
aaa(lp67
(lp68
g49
aa(lp69
g7
(g11
S'\xf4\x01\x8a/\x0bl\xb9?'
p70
tp71
Rp72
aaa(lp73
(lp74
S'../Data/spear_7.csv'
p75
aa(lp76
g7
(g11
S'\xf4\x01\x8a/\x0bl\xb9?'
p77
tp78
Rp79
aaasS'sac'
p80
(lp81
(lp82
(lp83
S'../Data/sac_2.csv'
p84
aa(lp85
g7
(g11
S'\x00\x00\x00\x00\x00\x00Y@'
p86
tp87
Rp88
aaa(lp89
(lp90
S'../Data/sac_9.csv'
p91
aa(lp92
g7
(g11
S'\x8e\x08\x1a\x03\x9b\xca\x12@'
p93
tp94
Rp95
aaa(lp96
(lp97
S'../Data/sac_4.csv'
p98
aa(lp99
g7
(g11
S'f\xfeA\x82\xddq\xe4?'
p100
tp101
Rp102
aaa(lp103
(lp104
g84
aa(lp105
g7
(g11
S'\x00\x00\x00\x00\x00\x00Y@'
p106
tp107
Rp108
aaa(lp109
(lp110
g98
aa(lp111
g7
(g11
S'f\xfeA\x82\xddq\xe4?'
p112
tp113
Rp114
aaasS'storm-obj2'
p115
(lp116
(lp117
(lp118
S'../Data/storm-obj2_feature9.csv'
p119
aa(lp120
g7
(g11
S'\x00\x00\x00\x00\x00\x00\x00\x00'
p121
tp122
Rp123
aaa(lp124
(lp125
g119
aa(lp126
g7
(g11
S'\x00\x00\x00\x00\x00\x00\x00\x00'
p127
tp128
Rp129
aaa(lp130
(lp131
g119
aa(lp132
g7
(g11
S'\x00\x00\x00\x00\x00\x00\x00\x00'
p133
tp134
Rp135
aaa(lp136
(lp137
g119
aa(lp138
g7
(g11
S'\x00\x00\x00\x00\x00\x00\x00\x00'
p139
tp140
Rp141
aaa(lp142
(lp143
g119
aa(lp144
g7
(g11
S'\x00\x00\x00\x00\x00\x00\x00\x00'
p145
tp146
Rp147
aaasS'storm-obj1'
p148
(lp149
(lp150
(lp151
S'../Data/storm-obj1_feature8.csv'
p152
aa(lp153
g7
(g11
S'\xf0\x96\x98JL%\x02@'
p154
tp155
Rp156
aaa(lp157
(lp158
S'../Data/storm-obj1_feature9.csv'
p159
aa(lp160
g7
(g11
S'\xad\x88\x03\xf1-qI@'
p161
tp162
Rp163
aaa(lp164
(lp165
g159
aa(lp166
g7
(g11
S'\xad\x88\x03\xf1-qI@'
p167
tp168
Rp169
aaa(lp170
(lp171
g159
aa(lp172
g7
(g11
S'\xad\x88\x03\xf1-qI@'
p173
tp174
Rp175
aaa(lp176
(lp177
g152
aa(lp178
g7
(g11
S'\xf0\x96\x98JL%\x02@'
p179
tp180
Rp181
aaasS'x264'
p182
(lp183
(lp184
(lp185
S'../Data/x264_11.csv'
p186
aa(lp187
g7
(g11
S'\xea\x02\xd7\x92\xaa-\xf8?'
p188
tp189
Rp190
aaa(lp191
(lp192
S'../Data/x264_15.csv'
p193
aa(lp194
g7
(g11
S'\x0b\x84\x1eX\x84Q*@'
p195
tp196
Rp197
aaa(lp198
(lp199
S'../Data/x264_9.csv'
p200
aa(lp201
g7
(g11
S'\x9c^\xf9)\xdba\xd2?'
p202
tp203
Rp204
aaa(lp205
(lp206
S'../Data/x264_8.csv'
p207
aa(lp208
g7
(g11
S'\xea\x02\xd7\x92\xaa-\xf8?'
p209
tp210
Rp211
aaa(lp212
(lp213
g207
aa(lp214
g7
(g11
S'\xea\x02\xd7\x92\xaa-\xf8?'
p215
tp216
Rp217
aaas.