(dp0
S'sqlite'
p1
(lp2
(lp3
(lp4
S'../Data/sqlite_19.csv'
p5
aa(lp6
cnumpy.core.multiarray
scalar
p7
(cnumpy
dtype
p8
(S'f8'
p9
I0
I1
tp10
Rp11
(I3
S'<'
p12
NNNI-1
I-1
I0
tp13
bS'T\x93\xe0\x98/\xce\x00@'
p14
tp15
Rp16
aaa(lp17
(lp18
S'../Data/sqlite_44.csv'
p19
aa(lp20
g7
(g11
S'\xe0r:1|\xd6\x01@'
p21
tp22
Rp23
aaa(lp24
(lp25
S'../Data/sqlite_17.csv'
p26
aa(lp27
g7
(g11
S'\x98\x1f\xba\x04s\xc1\xeb?'
p28
tp29
Rp30
aaa(lp31
(lp32
S'../Data/sqlite_16.csv'
p33
aa(lp34
g7
(g11
S'\x10\xb6\x16-R\x16\x0f@'
p35
tp36
Rp37
aaa(lp38
(lp39
S'../Data/sqlite_52.csv'
p40
aa(lp41
g7
(g11
S'd~p=\x9b\xef\x1d@'
p42
tp43
Rp44
aaasS'spear'
p45
(lp46
(lp47
(lp48
S'../Data/spear_7.csv'
p49
aa(lp50
g7
(g11
S'\xf4\x01\x8a/\x0bl\xb9?'
p51
tp52
Rp53
aaa(lp54
(lp55
g49
aa(lp56
g7
(g11
S'\xf4\x01\x8a/\x0bl\xb9?'
p57
tp58
Rp59
aaa(lp60
(lp61
g49
aa(lp62
g7
(g11
S'\xf4\x01\x8a/\x0bl\xb9?'
p63
tp64
Rp65
aaa(lp66
(lp67
S'../Data/spear_1.csv'
p68
aa(lp69
g7
(g11
S'\xf4\x01\x8a/\x0bl\xb9?'
p70
tp71
Rp72
aaa(lp73
(lp74
g49
aa(lp75
g7
(g11
S'\xf4\x01\x8a/\x0bl\xb9?'
p76
tp77
Rp78
aaasS'sac'
p79
(lp80
(lp81
(lp82
S'../Data/sac_2.csv'
p83
aa(lp84
g7
(g11
S'\x00\x00\x00\x00\x00\x00Y@'
p85
tp86
Rp87
aaa(lp88
(lp89
S'../Data/sac_9.csv'
p90
aa(lp91
g7
(g11
S'\x8e\x08\x1a\x03\x9b\xca\x12@'
p92
tp93
Rp94
aaa(lp95
(lp96
S'../Data/sac_7.csv'
p97
aa(lp98
g7
(g11
S'\xdac:\r\xea\xfd\xf1?'
p99
tp100
Rp101
aaa(lp102
(lp103
g83
aa(lp104
g7
(g11
S'\x00\x00\x00\x00\x00\x00Y@'
p105
tp106
Rp107
aaa(lp108
(lp109
S'../Data/sac_4.csv'
p110
aa(lp111
g7
(g11
S'f\xfeA\x82\xddq\xe4?'
p112
tp113
Rp114
aaasS'storm-obj2'
p115
(lp116
(lp117
(lp118
S'../Data/storm-obj2_feature9.csv'
p119
aa(lp120
g7
(g11
S'\x00\x00\x00\x00\x00\x00\x00\x00'
p121
tp122
Rp123
aaa(lp124
(lp125
g119
aa(lp126
g7
(g11
S'\x00\x00\x00\x00\x00\x00\x00\x00'
p127
tp128
Rp129
aaa(lp130
(lp131
g119
aa(lp132
g7
(g11
S'\x00\x00\x00\x00\x00\x00\x00\x00'
p133
tp134
Rp135
aaa(lp136
(lp137
g119
aa(lp138
g7
(g11
S'\x00\x00\x00\x00\x00\x00\x00\x00'
p139
tp140
Rp141
aaa(lp142
(lp143
g119
aa(lp144
g7
(g11
S'\x00\x00\x00\x00\x00\x00\x00\x00'
p145
tp146
Rp147
aaasS'storm-obj1'
p148
(lp149
(lp150
(lp151
S'../Data/storm-obj1_feature9.csv'
p152
aa(lp153
g7
(g11
S'\xad\x88\x03\xf1-qI@'
p154
tp155
Rp156
aaa(lp157
(lp158
g152
aa(lp159
g7
(g11
S'\xad\x88\x03\xf1-qI@'
p160
tp161
Rp162
aaa(lp163
(lp164
g152
aa(lp165
g7
(g11
S'\xad\x88\x03\xf1-qI@'
p166
tp167
Rp168
aaa(lp169
(lp170
S'../Data/storm-obj1_feature8.csv'
p171
aa(lp172
g7
(g11
S'\xf0\x96\x98JL%\x02@'
p173
tp174
Rp175
aaa(lp176
(lp177
g152
aa(lp178
g7
(g11
S'\xad\x88\x03\xf1-qI@'
p179
tp180
Rp181
aaasS'x264'
p182
(lp183
(lp184
(lp185
S'../Data/x264_6.csv'
p186
aa(lp187
g7
(g11
S'\x97&u\xa9ld\x01@'
p188
tp189
Rp190
aaa(lp191
(lp192
g186
aa(lp193
g7
(g11
S'\x97&u\xa9ld\x01@'
p194
tp195
Rp196
aaa(lp197
(lp198
S'../Data/x264_17.csv'
p199
aa(lp200
g7
(g11
S'>\x98\x82\x97S\xf0*@'
p201
tp202
Rp203
aaa(lp204
(lp205
S'../Data/x264_11.csv'
p206
aa(lp207
g7
(g11
S'\xea\x02\xd7\x92\xaa-\xf8?'
p208
tp209
Rp210
aaa(lp211
(lp212
S'../Data/x264_10.csv'
p213
aa(lp214
g7
(g11
S'\xaa\xee\xd0\x8a\xa3\x9c\xed?'
p215
tp216
Rp217
aaas.