(dp0
S'sqlite'
p1
(lp2
(lp3
(lp4
S'../Data/sqlite_19.csv'
p5
aa(lp6
cnumpy.core.multiarray
scalar
p7
(cnumpy
dtype
p8
(S'f8'
p9
I0
I1
tp10
Rp11
(I3
S'<'
p12
NNNI-1
I-1
I0
tp13
bS'T\x93\xe0\x98/\xce\x00@'
p14
tp15
Rp16
aaa(lp17
(lp18
S'../Data/sqlite_59.csv'
p19
aa(lp20
g7
(g11
S'\xd4|\xf2\xde\xd5\xc5\x00@'
p21
tp22
Rp23
aaa(lp24
(lp25
S'../Data/sqlite_16.csv'
p26
aa(lp27
g7
(g11
S'\x10\xb6\x16-R\x16\x0f@'
p28
tp29
Rp30
aaa(lp31
(lp32
g26
aa(lp33
g7
(g11
S'\x10\xb6\x16-R\x16\x0f@'
p34
tp35
Rp36
aaa(lp37
(lp38
S'../Data/sqlite_44.csv'
p39
aa(lp40
g7
(g11
S'\xe0r:1|\xd6\x01@'
p41
tp42
Rp43
aaasS'spear'
p44
(lp45
(lp46
(lp47
S'../Data/spear_1.csv'
p48
aa(lp49
g7
(g11
S'\xf4\x01\x8a/\x0bl\xb9?'
p50
tp51
Rp52
aaa(lp53
(lp54
g48
aa(lp55
g7
(g11
S'\xf4\x01\x8a/\x0bl\xb9?'
p56
tp57
Rp58
aaa(lp59
(lp60
S'../Data/spear_7.csv'
p61
aa(lp62
g7
(g11
S'\xf4\x01\x8a/\x0bl\xb9?'
p63
tp64
Rp65
aaa(lp66
(lp67
g48
aa(lp68
g7
(g11
S'\xf4\x01\x8a/\x0bl\xb9?'
p69
tp70
Rp71
aaa(lp72
(lp73
g61
aa(lp74
g7
(g11
S'\xf4\x01\x8a/\x0bl\xb9?'
p75
tp76
Rp77
aaasS'sac'
p78
(lp79
(lp80
(lp81
S'../Data/sac_2.csv'
p82
aa(lp83
g7
(g11
S'\x00\x00\x00\x00\x00\x00Y@'
p84
tp85
Rp86
aaa(lp87
(lp88
S'../Data/sac_4.csv'
p89
aa(lp90
g7
(g11
S'f\xfeA\x82\xddq\xe4?'
p91
tp92
Rp93
aaa(lp94
(lp95
g82
aa(lp96
g7
(g11
S'\x00\x00\x00\x00\x00\x00Y@'
p97
tp98
Rp99
aaa(lp100
(lp101
g82
aa(lp102
g7
(g11
S'\x00\x00\x00\x00\x00\x00Y@'
p103
tp104
Rp105
aaa(lp106
(lp107
g89
aa(lp108
g7
(g11
S'f\xfeA\x82\xddq\xe4?'
p109
tp110
Rp111
aaasS'storm-obj2'
p112
(lp113
(lp114
(lp115
S'../Data/storm-obj2_feature9.csv'
p116
aa(lp117
g7
(g11
S'\x00\x00\x00\x00\x00\x00\x00\x00'
p118
tp119
Rp120
aaa(lp121
(lp122
g116
aa(lp123
g7
(g11
S'\x00\x00\x00\x00\x00\x00\x00\x00'
p124
tp125
Rp126
aaa(lp127
(lp128
g116
aa(lp129
g7
(g11
S'\x00\x00\x00\x00\x00\x00\x00\x00'
p130
tp131
Rp132
aaa(lp133
(lp134
g116
aa(lp135
g7
(g11
S'\x00\x00\x00\x00\x00\x00\x00\x00'
p136
tp137
Rp138
aaa(lp139
(lp140
g116
aa(lp141
g7
(g11
S'\x00\x00\x00\x00\x00\x00\x00\x00'
p142
tp143
Rp144
aaasS'storm-obj1'
p145
(lp146
(lp147
(lp148
S'../Data/storm-obj1_feature7.csv'
p149
aa(lp150
g7
(g11
S'\xd7\xa5`\xf3\xcc@(@'
p151
tp152
Rp153
aaa(lp154
(lp155
S'../Data/storm-obj1_feature9.csv'
p156
aa(lp157
g7
(g11
S'\xad\x88\x03\xf1-qI@'
p158
tp159
Rp160
aaa(lp161
(lp162
S'../Data/storm-obj1_feature8.csv'
p163
aa(lp164
g7
(g11
S'\xf0\x96\x98JL%\x02@'
p165
tp166
Rp167
aaa(lp168
(lp169
S'../Data/storm-obj1_feature6.csv'
p170
aa(lp171
g7
(g11
S'$*\xe4+\xb9\x070@'
p172
tp173
Rp174
aaa(lp175
(lp176
g156
aa(lp177
g7
(g11
S'\xad\x88\x03\xf1-qI@'
p178
tp179
Rp180
aaasS'x264'
p181
(lp182
(lp183
(lp184
S'../Data/x264_17.csv'
p185
aa(lp186
g7
(g11
S'>\x98\x82\x97S\xf0*@'
p187
tp188
Rp189
aaa(lp190
(lp191
S'../Data/x264_0.csv'
p192
aa(lp193
g7
(g11
S'\x97\xbf\xd5\x92\xfbo<@'
p194
tp195
Rp196
aaa(lp197
(lp198
S'../Data/x264_3.csv'
p199
aa(lp200
g7
(g11
S'\xf5\xde\xdf\xd3\x8f\x9d\x1e@'
p201
tp202
Rp203
aaa(lp204
(lp205
S'../Data/x264_11.csv'
p206
aa(lp207
g7
(g11
S'\xea\x02\xd7\x92\xaa-\xf8?'
p208
tp209
Rp210
aaa(lp211
(lp212
S'../Data/x264_8.csv'
p213
aa(lp214
g7
(g11
S'\xea\x02\xd7\x92\xaa-\xf8?'
p215
tp216
Rp217
aaas.