(dp0
S'sqlite'
p1
(lp2
(lp3
(lp4
S'../Data/sqlite_97.csv'
p5
aa(lp6
cnumpy.core.multiarray
scalar
p7
(cnumpy
dtype
p8
(S'f8'
p9
I0
I1
tp10
Rp11
(I3
S'<'
p12
NNNI-1
I-1
I0
tp13
bS'\x81\xb2\x89\xb3Wf\x1f@'
p14
tp15
Rp16
aaa(lp17
(lp18
S'../Data/sqlite_18.csv'
p19
aa(lp20
g7
(g11
S'\xb1\xb7\x00\xb4n{2@'
p21
tp22
Rp23
aaa(lp24
(lp25
S'../Data/sqlite_45.csv'
p26
aa(lp27
g7
(g11
S'\xd4\xe32\x92r\xd3\x0b@'
p28
tp29
Rp30
aaa(lp31
(lp32
S'../Data/sqlite_59.csv'
p33
aa(lp34
g7
(g11
S'\xd4|\xf2\xde\xd5\xc5\x00@'
p35
tp36
Rp37
aaa(lp38
(lp39
S'../Data/sqlite_19.csv'
p40
aa(lp41
g7
(g11
S'T\x93\xe0\x98/\xce\x00@'
p42
tp43
Rp44
aaasS'spear'
p45
(lp46
(lp47
(lp48
S'../Data/spear_7.csv'
p49
aa(lp50
g7
(g11
S'\xf4\x01\x8a/\x0bl\xb9?'
p51
tp52
Rp53
aaa(lp54
(lp55
S'../Data/spear_9.csv'
p56
aa(lp57
g7
(g11
S'\xf4\x01\x8a/\x0bl\xb9?'
p58
tp59
Rp60
aaa(lp61
(lp62
g49
aa(lp63
g7
(g11
S'\xf4\x01\x8a/\x0bl\xb9?'
p64
tp65
Rp66
aaa(lp67
(lp68
g49
aa(lp69
g7
(g11
S'\xf4\x01\x8a/\x0bl\xb9?'
p70
tp71
Rp72
aaa(lp73
(lp74
S'../Data/spear_1.csv'
p75
aa(lp76
g7
(g11
S'\xf4\x01\x8a/\x0bl\xb9?'
p77
tp78
Rp79
aaasS'sac'
p80
(lp81
(lp82
(lp83
S'../Data/sac_4.csv'
p84
aa(lp85
g7
(g11
S'f\xfeA\x82\xddq\xe4?'
p86
tp87
Rp88
aaa(lp89
(lp90
S'../Data/sac_6.csv'
p91
aa(lp92
g7
(g11
S'@%4\xe3y@\xd2?'
p93
tp94
Rp95
aaa(lp96
(lp97
g84
aa(lp98
g7
(g11
S'f\xfeA\x82\xddq\xe4?'
p99
tp100
Rp101
aaa(lp102
(lp103
S'../Data/sac_2.csv'
p104
aa(lp105
g7
(g11
S'\x00\x00\x00\x00\x00\x00Y@'
p106
tp107
Rp108
aaa(lp109
(lp110
S'../Data/sac_9.csv'
p111
aa(lp112
g7
(g11
S'\x8e\x08\x1a\x03\x9b\xca\x12@'
p113
tp114
Rp115
aaasS'storm-obj2'
p116
(lp117
(lp118
(lp119
S'../Data/storm-obj2_feature9.csv'
p120
aa(lp121
g7
(g11
S'\x00\x00\x00\x00\x00\x00\x00\x00'
p122
tp123
Rp124
aaa(lp125
(lp126
g120
aa(lp127
g7
(g11
S'\x00\x00\x00\x00\x00\x00\x00\x00'
p128
tp129
Rp130
aaa(lp131
(lp132
g120
aa(lp133
g7
(g11
S'\x00\x00\x00\x00\x00\x00\x00\x00'
p134
tp135
Rp136
aaa(lp137
(lp138
g120
aa(lp139
g7
(g11
S'\x00\x00\x00\x00\x00\x00\x00\x00'
p140
tp141
Rp142
aaa(lp143
(lp144
g120
aa(lp145
g7
(g11
S'\x00\x00\x00\x00\x00\x00\x00\x00'
p146
tp147
Rp148
aaasS'storm-obj1'
p149
(lp150
(lp151
(lp152
S'../Data/storm-obj1_feature8.csv'
p153
aa(lp154
g7
(g11
S'\xf0\x96\x98JL%\x02@'
p155
tp156
Rp157
aaa(lp158
(lp159
S'../Data/storm-obj1_feature7.csv'
p160
aa(lp161
g7
(g11
S'\xd7\xa5`\xf3\xcc@(@'
p162
tp163
Rp164
aaa(lp165
(lp166
g153
aa(lp167
g7
(g11
S'\xf0\x96\x98JL%\x02@'
p168
tp169
Rp170
aaa(lp171
(lp172
g153
aa(lp173
g7
(g11
S'\xf0\x96\x98JL%\x02@'
p174
tp175
Rp176
aaa(lp177
(lp178
g153
aa(lp179
g7
(g11
S'\xf0\x96\x98JL%\x02@'
p180
tp181
Rp182
aaasS'x264'
p183
(lp184
(lp185
(lp186
S'../Data/x264_7.csv'
p187
aa(lp188
g7
(g11
S'\xaa\xee\xd0\x8a\xa3\x9c\xed?'
p189
tp190
Rp191
aaa(lp192
(lp193
S'../Data/x264_18.csv'
p194
aa(lp195
g7
(g11
S'\x9c^\xf9)\xdba\xd2?'
p196
tp197
Rp198
aaa(lp199
(lp200
S'../Data/x264_11.csv'
p201
aa(lp202
g7
(g11
S'\xea\x02\xd7\x92\xaa-\xf8?'
p203
tp204
Rp205
aaa(lp206
(lp207
S'../Data/x264_8.csv'
p208
aa(lp209
g7
(g11
S'\xea\x02\xd7\x92\xaa-\xf8?'
p210
tp211
Rp212
aaa(lp213
(lp214
g201
aa(lp215
g7
(g11
S'\xea\x02\xd7\x92\xaa-\xf8?'
p216
tp217
Rp218
aaas.