(dp0
S'sqlite'
p1
(lp2
(lp3
(lp4
S'../Data/sqlite_44.csv'
p5
aa(lp6
cnumpy.core.multiarray
scalar
p7
(cnumpy
dtype
p8
(S'f8'
p9
I0
I1
tp10
Rp11
(I3
S'<'
p12
NNNI-1
I-1
I0
tp13
bS'\xe0r:1|\xd6\x01@'
p14
tp15
Rp16
aaa(lp17
(lp18
S'../Data/sqlite_16.csv'
p19
aa(lp20
g7
(g11
S'\x10\xb6\x16-R\x16\x0f@'
p21
tp22
Rp23
aaa(lp24
(lp25
S'../Data/sqlite_10.csv'
p26
aa(lp27
g7
(g11
S'\x15\xf2,\xa9U;\x13@'
p28
tp29
Rp30
aaa(lp31
(lp32
S'../Data/sqlite_19.csv'
p33
aa(lp34
g7
(g11
S'T\x93\xe0\x98/\xce\x00@'
p35
tp36
Rp37
aaa(lp38
(lp39
S'../Data/sqlite_45.csv'
p40
aa(lp41
g7
(g11
S'\xd4\xe32\x92r\xd3\x0b@'
p42
tp43
Rp44
aaasS'spear'
p45
(lp46
(lp47
(lp48
S'../Data/spear_1.csv'
p49
aa(lp50
g7
(g11
S'\xf4\x01\x8a/\x0bl\xb9?'
p51
tp52
Rp53
aaa(lp54
(lp55
S'../Data/spear_7.csv'
p56
aa(lp57
g7
(g11
S'\xf4\x01\x8a/\x0bl\xb9?'
p58
tp59
Rp60
aaa(lp61
(lp62
g49
aa(lp63
g7
(g11
S'\xf4\x01\x8a/\x0bl\xb9?'
p64
tp65
Rp66
aaa(lp67
(lp68
g56
aa(lp69
g7
(g11
S'\xf4\x01\x8a/\x0bl\xb9?'
p70
tp71
Rp72
aaa(lp73
(lp74
g49
aa(lp75
g7
(g11
S'\xf4\x01\x8a/\x0bl\xb9?'
p76
tp77
Rp78
aaasS'sac'
p79
(lp80
(lp81
(lp82
S'../Data/sac_4.csv'
p83
aa(lp84
g7
(g11
S'f\xfeA\x82\xddq\xe4?'
p85
tp86
Rp87
aaa(lp88
(lp89
S'../Data/sac_2.csv'
p90
aa(lp91
g7
(g11
S'\x00\x00\x00\x00\x00\x00Y@'
p92
tp93
Rp94
aaa(lp95
(lp96
g83
aa(lp97
g7
(g11
S'f\xfeA\x82\xddq\xe4?'
p98
tp99
Rp100
aaa(lp101
(lp102
g90
aa(lp103
g7
(g11
S'\x00\x00\x00\x00\x00\x00Y@'
p104
tp105
Rp106
aaa(lp107
(lp108
g90
aa(lp109
g7
(g11
S'\x00\x00\x00\x00\x00\x00Y@'
p110
tp111
Rp112
aaasS'storm-obj2'
p113
(lp114
(lp115
(lp116
S'../Data/storm-obj2_feature9.csv'
p117
aa(lp118
g7
(g11
S'\x00\x00\x00\x00\x00\x00\x00\x00'
p119
tp120
Rp121
aaa(lp122
(lp123
g117
aa(lp124
g7
(g11
S'\x00\x00\x00\x00\x00\x00\x00\x00'
p125
tp126
Rp127
aaa(lp128
(lp129
g117
aa(lp130
g7
(g11
S'\x00\x00\x00\x00\x00\x00\x00\x00'
p131
tp132
Rp133
aaa(lp134
(lp135
g117
aa(lp136
g7
(g11
S'\x00\x00\x00\x00\x00\x00\x00\x00'
p137
tp138
Rp139
aaa(lp140
(lp141
g117
aa(lp142
g7
(g11
S'\x00\x00\x00\x00\x00\x00\x00\x00'
p143
tp144
Rp145
aaasS'storm-obj1'
p146
(lp147
(lp148
(lp149
S'../Data/storm-obj1_feature8.csv'
p150
aa(lp151
g7
(g11
S'\xf0\x96\x98JL%\x02@'
p152
tp153
Rp154
aaa(lp155
(lp156
g150
aa(lp157
g7
(g11
S'\xf0\x96\x98JL%\x02@'
p158
tp159
Rp160
aaa(lp161
(lp162
S'../Data/storm-obj1_feature9.csv'
p163
aa(lp164
g7
(g11
S'\xad\x88\x03\xf1-qI@'
p165
tp166
Rp167
aaa(lp168
(lp169
g163
aa(lp170
g7
(g11
S'\xad\x88\x03\xf1-qI@'
p171
tp172
Rp173
aaa(lp174
(lp175
g150
aa(lp176
g7
(g11
S'\xf0\x96\x98JL%\x02@'
p177
tp178
Rp179
aaasS'x264'
p180
(lp181
(lp182
(lp183
S'../Data/x264_11.csv'
p184
aa(lp185
g7
(g11
S'\xea\x02\xd7\x92\xaa-\xf8?'
p186
tp187
Rp188
aaa(lp189
(lp190
S'../Data/x264_14.csv'
p191
aa(lp192
g7
(g11
S'\x1f\xc46\xafo\xcf:@'
p193
tp194
Rp195
aaa(lp196
(lp197
S'../Data/x264_3.csv'
p198
aa(lp199
g7
(g11
S'\xf5\xde\xdf\xd3\x8f\x9d\x1e@'
p200
tp201
Rp202
aaa(lp203
(lp204
S'../Data/x264_9.csv'
p205
aa(lp206
g7
(g11
S'\x9c^\xf9)\xdba\xd2?'
p207
tp208
Rp209
aaa(lp210
(lp211
S'../Data/x264_16.csv'
p212
aa(lp213
g7
(g11
S'\x8e^L\x9e\xd0\xc5\x01@'
p214
tp215
Rp216
aaas.