(dp0
S'sqlite'
p1
(lp2
(lp3
(lp4
S'../Data/sqlite_45.csv'
p5
aa(lp6
cnumpy.core.multiarray
scalar
p7
(cnumpy
dtype
p8
(S'f8'
p9
I0
I1
tp10
Rp11
(I3
S'<'
p12
NNNI-1
I-1
I0
tp13
bS'\xd4\xe32\x92r\xd3\x0b@'
p14
tp15
Rp16
aaa(lp17
(lp18
S'../Data/sqlite_19.csv'
p19
aa(lp20
g7
(g11
S'T\x93\xe0\x98/\xce\x00@'
p21
tp22
Rp23
aaa(lp24
(lp25
g5
aa(lp26
g7
(g11
S'\xd4\xe32\x92r\xd3\x0b@'
p27
tp28
Rp29
aaa(lp30
(lp31
S'../Data/sqlite_18.csv'
p32
aa(lp33
g7
(g11
S'\xb1\xb7\x00\xb4n{2@'
p34
tp35
Rp36
aaa(lp37
(lp38
g5
aa(lp39
g7
(g11
S'\xd4\xe32\x92r\xd3\x0b@'
p40
tp41
Rp42
aaasS'spear'
p43
(lp44
(lp45
(lp46
S'../Data/spear_7.csv'
p47
aa(lp48
g7
(g11
S'\xf4\x01\x8a/\x0bl\xb9?'
p49
tp50
Rp51
aaa(lp52
(lp53
g47
aa(lp54
g7
(g11
S'\xf4\x01\x8a/\x0bl\xb9?'
p55
tp56
Rp57
aaa(lp58
(lp59
S'../Data/spear_1.csv'
p60
aa(lp61
g7
(g11
S'\xf4\x01\x8a/\x0bl\xb9?'
p62
tp63
Rp64
aaa(lp65
(lp66
g47
aa(lp67
g7
(g11
S'\xf4\x01\x8a/\x0bl\xb9?'
p68
tp69
Rp70
aaa(lp71
(lp72
g60
aa(lp73
g7
(g11
S'\xf4\x01\x8a/\x0bl\xb9?'
p74
tp75
Rp76
aaasS'sac'
p77
(lp78
(lp79
(lp80
S'../Data/sac_4.csv'
p81
aa(lp82
g7
(g11
S'f\xfeA\x82\xddq\xe4?'
p83
tp84
Rp85
aaa(lp86
(lp87
S'../Data/sac_6.csv'
p88
aa(lp89
g7
(g11
S'\x1a\xd2\x82\xa7\x94\x0e\xd2?'
p90
tp91
Rp92
aaa(lp93
(lp94
g81
aa(lp95
g7
(g11
S'f\xfeA\x82\xddq\xe4?'
p96
tp97
Rp98
aaa(lp99
(lp100
S'../Data/sac_9.csv'
p101
aa(lp102
g7
(g11
S'\x8e\x08\x1a\x03\x9b\xca\x12@'
p103
tp104
Rp105
aaa(lp106
(lp107
S'../Data/sac_2.csv'
p108
aa(lp109
g7
(g11
S'\x00\x00\x00\x00\x00\x00Y@'
p110
tp111
Rp112
aaasS'storm-obj2'
p113
(lp114
(lp115
(lp116
S'../Data/storm-obj2_feature9.csv'
p117
aa(lp118
g7
(g11
S'\x00\x00\x00\x00\x00\x00\x00\x00'
p119
tp120
Rp121
aaa(lp122
(lp123
g117
aa(lp124
g7
(g11
S'\x00\x00\x00\x00\x00\x00\x00\x00'
p125
tp126
Rp127
aaa(lp128
(lp129
g117
aa(lp130
g7
(g11
S'\x00\x00\x00\x00\x00\x00\x00\x00'
p131
tp132
Rp133
aaa(lp134
(lp135
g117
aa(lp136
g7
(g11
S'\x00\x00\x00\x00\x00\x00\x00\x00'
p137
tp138
Rp139
aaa(lp140
(lp141
g117
aa(lp142
g7
(g11
S'\x00\x00\x00\x00\x00\x00\x00\x00'
p143
tp144
Rp145
aaasS'storm-obj1'
p146
(lp147
(lp148
(lp149
S'../Data/storm-obj1_feature8.csv'
p150
aa(lp151
g7
(g11
S'\xf0\x96\x98JL%\x02@'
p152
tp153
Rp154
aaa(lp155
(lp156
g150
aa(lp157
g7
(g11
S'\xf0\x96\x98JL%\x02@'
p158
tp159
Rp160
aaa(lp161
(lp162
S'../Data/storm-obj1_feature9.csv'
p163
aa(lp164
g7
(g11
S'\xad\x88\x03\xf1-qI@'
p165
tp166
Rp167
aaa(lp168
(lp169
g150
aa(lp170
g7
(g11
S'\xf0\x96\x98JL%\x02@'
p171
tp172
Rp173
aaa(lp174
(lp175
g163
aa(lp176
g7
(g11
S'\xad\x88\x03\xf1-qI@'
p177
tp178
Rp179
aaasS'x264'
p180
(lp181
(lp182
(lp183
S'../Data/x264_18.csv'
p184
aa(lp185
g7
(g11
S'\x9c^\xf9)\xdba\xd2?'
p186
tp187
Rp188
aaa(lp189
(lp190
S'../Data/x264_11.csv'
p191
aa(lp192
g7
(g11
S'\xea\x02\xd7\x92\xaa-\xf8?'
p193
tp194
Rp195
aaa(lp196
(lp197
g191
aa(lp198
g7
(g11
S'\xea\x02\xd7\x92\xaa-\xf8?'
p199
tp200
Rp201
aaa(lp202
(lp203
S'../Data/x264_7.csv'
p204
aa(lp205
g7
(g11
S'\xaa\xee\xd0\x8a\xa3\x9c\xed?'
p206
tp207
Rp208
aaa(lp209
(lp210
S'../Data/x264_17.csv'
p211
aa(lp212
g7
(g11
S'>\x98\x82\x97S\xf0*@'
p213
tp214
Rp215
aaas.