(dp0
S'sqlite'
p1
(lp2
(lp3
(lp4
S'../Data/sqlite_19.csv'
p5
aa(lp6
cnumpy.core.multiarray
scalar
p7
(cnumpy
dtype
p8
(S'f8'
p9
I0
I1
tp10
Rp11
(I3
S'<'
p12
NNNI-1
I-1
I0
tp13
bS'T\x93\xe0\x98/\xce\x00@'
p14
tp15
Rp16
aaa(lp17
(lp18
S'../Data/sqlite_10.csv'
p19
aa(lp20
g7
(g11
S'\x15\xf2,\xa9U;\x13@'
p21
tp22
Rp23
aaa(lp24
(lp25
S'../Data/sqlite_17.csv'
p26
aa(lp27
g7
(g11
S'\x98\x1f\xba\x04s\xc1\xeb?'
p28
tp29
Rp30
aaa(lp31
(lp32
g5
aa(lp33
g7
(g11
S'T\x93\xe0\x98/\xce\x00@'
p34
tp35
Rp36
aaa(lp37
(lp38
S'../Data/sqlite_18.csv'
p39
aa(lp40
g7
(g11
S'\xb1\xb7\x00\xb4n{2@'
p41
tp42
Rp43
aaasS'spear'
p44
(lp45
(lp46
(lp47
S'../Data/spear_7.csv'
p48
aa(lp49
g7
(g11
S'\xf4\x01\x8a/\x0bl\xb9?'
p50
tp51
Rp52
aaa(lp53
(lp54
g48
aa(lp55
g7
(g11
S'\xf4\x01\x8a/\x0bl\xb9?'
p56
tp57
Rp58
aaa(lp59
(lp60
g48
aa(lp61
g7
(g11
S'\xf4\x01\x8a/\x0bl\xb9?'
p62
tp63
Rp64
aaa(lp65
(lp66
g48
aa(lp67
g7
(g11
S'\xf4\x01\x8a/\x0bl\xb9?'
p68
tp69
Rp70
aaa(lp71
(lp72
g48
aa(lp73
g7
(g11
S'\xf4\x01\x8a/\x0bl\xb9?'
p74
tp75
Rp76
aaasS'sac'
p77
(lp78
(lp79
(lp80
S'../Data/sac_6.csv'
p81
aa(lp82
g7
(g11
S'@%4\xe3y@\xd2?'
p83
tp84
Rp85
aaa(lp86
(lp87
S'../Data/sac_4.csv'
p88
aa(lp89
g7
(g11
S'f\xfeA\x82\xddq\xe4?'
p90
tp91
Rp92
aaa(lp93
(lp94
g88
aa(lp95
g7
(g11
S'f\xfeA\x82\xddq\xe4?'
p96
tp97
Rp98
aaa(lp99
(lp100
g88
aa(lp101
g7
(g11
S'f\xfeA\x82\xddq\xe4?'
p102
tp103
Rp104
aaa(lp105
(lp106
g88
aa(lp107
g7
(g11
S'f\xfeA\x82\xddq\xe4?'
p108
tp109
Rp110
aaasS'storm-obj2'
p111
(lp112
(lp113
(lp114
S'../Data/storm-obj2_feature9.csv'
p115
aa(lp116
g7
(g11
S'\x00\x00\x00\x00\x00\x00\x00\x00'
p117
tp118
Rp119
aaa(lp120
(lp121
g115
aa(lp122
g7
(g11
S'\x00\x00\x00\x00\x00\x00\x00\x00'
p123
tp124
Rp125
aaa(lp126
(lp127
g115
aa(lp128
g7
(g11
S'\x00\x00\x00\x00\x00\x00\x00\x00'
p129
tp130
Rp131
aaa(lp132
(lp133
g115
aa(lp134
g7
(g11
S'\x00\x00\x00\x00\x00\x00\x00\x00'
p135
tp136
Rp137
aaa(lp138
(lp139
g115
aa(lp140
g7
(g11
S'\x00\x00\x00\x00\x00\x00\x00\x00'
p141
tp142
Rp143
aaasS'storm-obj1'
p144
(lp145
(lp146
(lp147
S'../Data/storm-obj1_feature8.csv'
p148
aa(lp149
g7
(g11
S'\xf0\x96\x98JL%\x02@'
p150
tp151
Rp152
aaa(lp153
(lp154
g148
aa(lp155
g7
(g11
S'\xf0\x96\x98JL%\x02@'
p156
tp157
Rp158
aaa(lp159
(lp160
g148
aa(lp161
g7
(g11
S'\xf0\x96\x98JL%\x02@'
p162
tp163
Rp164
aaa(lp165
(lp166
g148
aa(lp167
g7
(g11
S'\xf0\x96\x98JL%\x02@'
p168
tp169
Rp170
aaa(lp171
(lp172
g148
aa(lp173
g7
(g11
S'\xf0\x96\x98JL%\x02@'
p174
tp175
Rp176
aaasS'x264'
p177
(lp178
(lp179
(lp180
S'../Data/x264_6.csv'
p181
aa(lp182
g7
(g11
S'\x97&u\xa9ld\x01@'
p183
tp184
Rp185
aaa(lp186
(lp187
S'../Data/x264_14.csv'
p188
aa(lp189
g7
(g11
S'\x1f\xc46\xafo\xcf:@'
p190
tp191
Rp192
aaa(lp193
(lp194
S'../Data/x264_11.csv'
p195
aa(lp196
g7
(g11
S'\xea\x02\xd7\x92\xaa-\xf8?'
p197
tp198
Rp199
aaa(lp200
(lp201
S'../Data/x264_8.csv'
p202
aa(lp203
g7
(g11
S'\xea\x02\xd7\x92\xaa-\xf8?'
p204
tp205
Rp206
aaa(lp207
(lp208
S'../Data/x264_2.csv'
p209
aa(lp210
g7
(g11
S'\x8e^L\x9e\xd0\xc5\x01@'
p211
tp212
Rp213
aaas.