(dp0
S'sqlite'
p1
(lp2
(lp3
(lp4
S'../Data/sqlite_10.csv'
p5
aa(lp6
cnumpy.core.multiarray
scalar
p7
(cnumpy
dtype
p8
(S'f8'
p9
I0
I1
tp10
Rp11
(I3
S'<'
p12
NNNI-1
I-1
I0
tp13
bS'\x15\xf2,\xa9U;\x13@'
p14
tp15
Rp16
aaa(lp17
(lp18
S'../Data/sqlite_17.csv'
p19
aa(lp20
g7
(g11
S'\x98\x1f\xba\x04s\xc1\xeb?'
p21
tp22
Rp23
aaa(lp24
(lp25
S'../Data/sqlite_59.csv'
p26
aa(lp27
g7
(g11
S'\xd4|\xf2\xde\xd5\xc5\x00@'
p28
tp29
Rp30
aaa(lp31
(lp32
g19
aa(lp33
g7
(g11
S'\x98\x1f\xba\x04s\xc1\xeb?'
p34
tp35
Rp36
aaa(lp37
(lp38
g26
aa(lp39
g7
(g11
S'\xd4|\xf2\xde\xd5\xc5\x00@'
p40
tp41
Rp42
aaasS'spear'
p43
(lp44
(lp45
(lp46
S'../Data/spear_7.csv'
p47
aa(lp48
g7
(g11
S'\xf4\x01\x8a/\x0bl\xb9?'
p49
tp50
Rp51
aaa(lp52
(lp53
g47
aa(lp54
g7
(g11
S'\xf4\x01\x8a/\x0bl\xb9?'
p55
tp56
Rp57
aaa(lp58
(lp59
g47
aa(lp60
g7
(g11
S'\xf4\x01\x8a/\x0bl\xb9?'
p61
tp62
Rp63
aaa(lp64
(lp65
g47
aa(lp66
g7
(g11
S'\xf4\x01\x8a/\x0bl\xb9?'
p67
tp68
Rp69
aaa(lp70
(lp71
g47
aa(lp72
g7
(g11
S'\xf4\x01\x8a/\x0bl\xb9?'
p73
tp74
Rp75
aaasS'sac'
p76
(lp77
(lp78
(lp79
S'../Data/sac_4.csv'
p80
aa(lp81
g7
(g11
S'f\xfeA\x82\xddq\xe4?'
p82
tp83
Rp84
aaa(lp85
(lp86
S'../Data/sac_2.csv'
p87
aa(lp88
g7
(g11
S'\x00\x00\x00\x00\x00\x00Y@'
p89
tp90
Rp91
aaa(lp92
(lp93
g87
aa(lp94
g7
(g11
S'\x00\x00\x00\x00\x00\x00Y@'
p95
tp96
Rp97
aaa(lp98
(lp99
g80
aa(lp100
g7
(g11
S'f\xfeA\x82\xddq\xe4?'
p101
tp102
Rp103
aaa(lp104
(lp105
g80
aa(lp106
g7
(g11
S'f\xfeA\x82\xddq\xe4?'
p107
tp108
Rp109
aaasS'storm-obj2'
p110
(lp111
(lp112
(lp113
S'../Data/storm-obj2_feature9.csv'
p114
aa(lp115
g7
(g11
S'\x00\x00\x00\x00\x00\x00\x00\x00'
p116
tp117
Rp118
aaa(lp119
(lp120
g114
aa(lp121
g7
(g11
S'\x00\x00\x00\x00\x00\x00\x00\x00'
p122
tp123
Rp124
aaa(lp125
(lp126
g114
aa(lp127
g7
(g11
S'\x00\x00\x00\x00\x00\x00\x00\x00'
p128
tp129
Rp130
aaa(lp131
(lp132
g114
aa(lp133
g7
(g11
S'\x00\x00\x00\x00\x00\x00\x00\x00'
p134
tp135
Rp136
aaa(lp137
(lp138
g114
aa(lp139
g7
(g11
S'\x00\x00\x00\x00\x00\x00\x00\x00'
p140
tp141
Rp142
aaasS'storm-obj1'
p143
(lp144
(lp145
(lp146
S'../Data/storm-obj1_feature9.csv'
p147
aa(lp148
g7
(g11
S'\xad\x88\x03\xf1-qI@'
p149
tp150
Rp151
aaa(lp152
(lp153
S'../Data/storm-obj1_feature8.csv'
p154
aa(lp155
g7
(g11
S'\xf0\x96\x98JL%\x02@'
p156
tp157
Rp158
aaa(lp159
(lp160
g154
aa(lp161
g7
(g11
S'\xf0\x96\x98JL%\x02@'
p162
tp163
Rp164
aaa(lp165
(lp166
g154
aa(lp167
g7
(g11
S'\xf0\x96\x98JL%\x02@'
p168
tp169
Rp170
aaa(lp171
(lp172
g154
aa(lp173
g7
(g11
S'\xf0\x96\x98JL%\x02@'
p174
tp175
Rp176
aaasS'x264'
p177
(lp178
(lp179
(lp180
S'../Data/x264_8.csv'
p181
aa(lp182
g7
(g11
S'\xea\x02\xd7\x92\xaa-\xf8?'
p183
tp184
Rp185
aaa(lp186
(lp187
S'../Data/x264_0.csv'
p188
aa(lp189
g7
(g11
S'\x97\xbf\xd5\x92\xfbo<@'
p190
tp191
Rp192
aaa(lp193
(lp194
S'../Data/x264_6.csv'
p195
aa(lp196
g7
(g11
S'\x97&u\xa9ld\x01@'
p197
tp198
Rp199
aaa(lp200
(lp201
g181
aa(lp202
g7
(g11
S'\xea\x02\xd7\x92\xaa-\xf8?'
p203
tp204
Rp205
aaa(lp206
(lp207
S'../Data/x264_4.csv'
p208
aa(lp209
g7
(g11
S'\x8e^L\x9e\xd0\xc5\x01@'
p210
tp211
Rp212
aaas.