(dp0
S'sqlite'
p1
(lp2
(lp3
(lp4
S'../Data/sqlite_44.csv'
p5
aa(lp6
cnumpy.core.multiarray
scalar
p7
(cnumpy
dtype
p8
(S'f8'
p9
I0
I1
tp10
Rp11
(I3
S'<'
p12
NNNI-1
I-1
I0
tp13
bS'\xe0r:1|\xd6\x01@'
p14
tp15
Rp16
aaa(lp17
(lp18
S'../Data/sqlite_19.csv'
p19
aa(lp20
g7
(g11
S'T\x93\xe0\x98/\xce\x00@'
p21
tp22
Rp23
aaa(lp24
(lp25
S'../Data/sqlite_16.csv'
p26
aa(lp27
g7
(g11
S'\x10\xb6\x16-R\x16\x0f@'
p28
tp29
Rp30
aaa(lp31
(lp32
S'../Data/sqlite_45.csv'
p33
aa(lp34
g7
(g11
S'\xd4\xe32\x92r\xd3\x0b@'
p35
tp36
Rp37
aaa(lp38
(lp39
S'../Data/sqlite_10.csv'
p40
aa(lp41
g7
(g11
S'\x15\xf2,\xa9U;\x13@'
p42
tp43
Rp44
aaasS'spear'
p45
(lp46
(lp47
(lp48
S'../Data/spear_1.csv'
p49
aa(lp50
g7
(g11
S'\xf4\x01\x8a/\x0bl\xb9?'
p51
tp52
Rp53
aaa(lp54
(lp55
S'../Data/spear_7.csv'
p56
aa(lp57
g7
(g11
S'\xf4\x01\x8a/\x0bl\xb9?'
p58
tp59
Rp60
aaa(lp61
(lp62
g56
aa(lp63
g7
(g11
S'\xf4\x01\x8a/\x0bl\xb9?'
p64
tp65
Rp66
aaa(lp67
(lp68
g49
aa(lp69
g7
(g11
S'\xf4\x01\x8a/\x0bl\xb9?'
p70
tp71
Rp72
aaa(lp73
(lp74
g56
aa(lp75
g7
(g11
S'\xf4\x01\x8a/\x0bl\xb9?'
p76
tp77
Rp78
aaasS'sac'
p79
(lp80
(lp81
(lp82
S'../Data/sac_4.csv'
p83
aa(lp84
g7
(g11
S'f\xfeA\x82\xddq\xe4?'
p85
tp86
Rp87
aaa(lp88
(lp89
S'../Data/sac_9.csv'
p90
aa(lp91
g7
(g11
S'\x8e\x08\x1a\x03\x9b\xca\x12@'
p92
tp93
Rp94
aaa(lp95
(lp96
g83
aa(lp97
g7
(g11
S'f\xfeA\x82\xddq\xe4?'
p98
tp99
Rp100
aaa(lp101
(lp102
g83
aa(lp103
g7
(g11
S'f\xfeA\x82\xddq\xe4?'
p104
tp105
Rp106
aaa(lp107
(lp108
S'../Data/sac_6.csv'
p109
aa(lp110
g7
(g11
S'\x1a\xd2\x82\xa7\x94\x0e\xd2?'
p111
tp112
Rp113
aaasS'storm-obj2'
p114
(lp115
(lp116
(lp117
S'../Data/storm-obj2_feature9.csv'
p118
aa(lp119
g7
(g11
S'\x00\x00\x00\x00\x00\x00\x00\x00'
p120
tp121
Rp122
aaa(lp123
(lp124
g118
aa(lp125
g7
(g11
S'\x00\x00\x00\x00\x00\x00\x00\x00'
p126
tp127
Rp128
aaa(lp129
(lp130
g118
aa(lp131
g7
(g11
S'\x00\x00\x00\x00\x00\x00\x00\x00'
p132
tp133
Rp134
aaa(lp135
(lp136
g118
aa(lp137
g7
(g11
S'\x00\x00\x00\x00\x00\x00\x00\x00'
p138
tp139
Rp140
aaa(lp141
(lp142
g118
aa(lp143
g7
(g11
S'\x00\x00\x00\x00\x00\x00\x00\x00'
p144
tp145
Rp146
aaasS'storm-obj1'
p147
(lp148
(lp149
(lp150
S'../Data/storm-obj1_feature8.csv'
p151
aa(lp152
g7
(g11
S'\xf0\x96\x98JL%\x02@'
p153
tp154
Rp155
aaa(lp156
(lp157
g151
aa(lp158
g7
(g11
S'\xf0\x96\x98JL%\x02@'
p159
tp160
Rp161
aaa(lp162
(lp163
S'../Data/storm-obj1_feature9.csv'
p164
aa(lp165
g7
(g11
S'\xad\x88\x03\xf1-qI@'
p166
tp167
Rp168
aaa(lp169
(lp170
g164
aa(lp171
g7
(g11
S'\xad\x88\x03\xf1-qI@'
p172
tp173
Rp174
aaa(lp175
(lp176
g151
aa(lp177
g7
(g11
S'\xf0\x96\x98JL%\x02@'
p178
tp179
Rp180
aaasS'x264'
p181
(lp182
(lp183
(lp184
S'../Data/x264_6.csv'
p185
aa(lp186
g7
(g11
S'\x97&u\xa9ld\x01@'
p187
tp188
Rp189
aaa(lp190
(lp191
g185
aa(lp192
g7
(g11
S'\x97&u\xa9ld\x01@'
p193
tp194
Rp195
aaa(lp196
(lp197
S'../Data/x264_9.csv'
p198
aa(lp199
g7
(g11
S'\x9c^\xf9)\xdba\xd2?'
p200
tp201
Rp202
aaa(lp203
(lp204
S'../Data/x264_11.csv'
p205
aa(lp206
g7
(g11
S'\xea\x02\xd7\x92\xaa-\xf8?'
p207
tp208
Rp209
aaa(lp210
(lp211
S'../Data/x264_7.csv'
p212
aa(lp213
g7
(g11
S'\xaa\xee\xd0\x8a\xa3\x9c\xed?'
p214
tp215
Rp216
aaas.