(dp0
S'sqlite'
p1
(lp2
(lp3
(lp4
S'../Data/sqlite_17.csv'
p5
aa(lp6
cnumpy.core.multiarray
scalar
p7
(cnumpy
dtype
p8
(S'f8'
p9
I0
I1
tp10
Rp11
(I3
S'<'
p12
NNNI-1
I-1
I0
tp13
bS'\x98\x1f\xba\x04s\xc1\xeb?'
p14
tp15
Rp16
aaa(lp17
(lp18
S'../Data/sqlite_59.csv'
p19
aa(lp20
g7
(g11
S'\xd4|\xf2\xde\xd5\xc5\x00@'
p21
tp22
Rp23
aaa(lp24
(lp25
g19
aa(lp26
g7
(g11
S'\xd4|\xf2\xde\xd5\xc5\x00@'
p27
tp28
Rp29
aaa(lp30
(lp31
S'../Data/sqlite_19.csv'
p32
aa(lp33
g7
(g11
S'T\x93\xe0\x98/\xce\x00@'
p34
tp35
Rp36
aaa(lp37
(lp38
S'../Data/sqlite_16.csv'
p39
aa(lp40
g7
(g11
S'\x10\xb6\x16-R\x16\x0f@'
p41
tp42
Rp43
aaasS'spear'
p44
(lp45
(lp46
(lp47
S'../Data/spear_7.csv'
p48
aa(lp49
g7
(g11
S'\xf4\x01\x8a/\x0bl\xb9?'
p50
tp51
Rp52
aaa(lp53
(lp54
g48
aa(lp55
g7
(g11
S'\xf4\x01\x8a/\x0bl\xb9?'
p56
tp57
Rp58
aaa(lp59
(lp60
g48
aa(lp61
g7
(g11
S'\xf4\x01\x8a/\x0bl\xb9?'
p62
tp63
Rp64
aaa(lp65
(lp66
S'../Data/spear_1.csv'
p67
aa(lp68
g7
(g11
S'\xf4\x01\x8a/\x0bl\xb9?'
p69
tp70
Rp71
aaa(lp72
(lp73
g67
aa(lp74
g7
(g11
S'\xf4\x01\x8a/\x0bl\xb9?'
p75
tp76
Rp77
aaasS'sac'
p78
(lp79
(lp80
(lp81
S'../Data/sac_4.csv'
p82
aa(lp83
g7
(g11
S'f\xfeA\x82\xddq\xe4?'
p84
tp85
Rp86
aaa(lp87
(lp88
S'../Data/sac_2.csv'
p89
aa(lp90
g7
(g11
S'\x00\x00\x00\x00\x00\x00Y@'
p91
tp92
Rp93
aaa(lp94
(lp95
g89
aa(lp96
g7
(g11
S'\x00\x00\x00\x00\x00\x00Y@'
p97
tp98
Rp99
aaa(lp100
(lp101
S'../Data/sac_9.csv'
p102
aa(lp103
g7
(g11
S'\x8e\x08\x1a\x03\x9b\xca\x12@'
p104
tp105
Rp106
aaa(lp107
(lp108
g102
aa(lp109
g7
(g11
S'\x8e\x08\x1a\x03\x9b\xca\x12@'
p110
tp111
Rp112
aaasS'storm-obj2'
p113
(lp114
(lp115
(lp116
S'../Data/storm-obj2_feature9.csv'
p117
aa(lp118
g7
(g11
S'\x00\x00\x00\x00\x00\x00\x00\x00'
p119
tp120
Rp121
aaa(lp122
(lp123
g117
aa(lp124
g7
(g11
S'\x00\x00\x00\x00\x00\x00\x00\x00'
p125
tp126
Rp127
aaa(lp128
(lp129
g117
aa(lp130
g7
(g11
S'\x00\x00\x00\x00\x00\x00\x00\x00'
p131
tp132
Rp133
aaa(lp134
(lp135
g117
aa(lp136
g7
(g11
S'\x00\x00\x00\x00\x00\x00\x00\x00'
p137
tp138
Rp139
aaa(lp140
(lp141
g117
aa(lp142
g7
(g11
S'\x00\x00\x00\x00\x00\x00\x00\x00'
p143
tp144
Rp145
aaasS'storm-obj1'
p146
(lp147
(lp148
(lp149
S'../Data/storm-obj1_feature9.csv'
p150
aa(lp151
g7
(g11
S'\xad\x88\x03\xf1-qI@'
p152
tp153
Rp154
aaa(lp155
(lp156
g150
aa(lp157
g7
(g11
S'\xad\x88\x03\xf1-qI@'
p158
tp159
Rp160
aaa(lp161
(lp162
S'../Data/storm-obj1_feature8.csv'
p163
aa(lp164
g7
(g11
S'\xf0\x96\x98JL%\x02@'
p165
tp166
Rp167
aaa(lp168
(lp169
g163
aa(lp170
g7
(g11
S'\xf0\x96\x98JL%\x02@'
p171
tp172
Rp173
aaa(lp174
(lp175
g150
aa(lp176
g7
(g11
S'\xad\x88\x03\xf1-qI@'
p177
tp178
Rp179
aaasS'x264'
p180
(lp181
(lp182
(lp183
S'../Data/x264_10.csv'
p184
aa(lp185
g7
(g11
S'\xaa\xee\xd0\x8a\xa3\x9c\xed?'
p186
tp187
Rp188
aaa(lp189
(lp190
g184
aa(lp191
g7
(g11
S'\xaa\xee\xd0\x8a\xa3\x9c\xed?'
p192
tp193
Rp194
aaa(lp195
(lp196
S'../Data/x264_4.csv'
p197
aa(lp198
g7
(g11
S'\x8e^L\x9e\xd0\xc5\x01@'
p199
tp200
Rp201
aaa(lp202
(lp203
S'../Data/x264_11.csv'
p204
aa(lp205
g7
(g11
S'\xea\x02\xd7\x92\xaa-\xf8?'
p206
tp207
Rp208
aaa(lp209
(lp210
g184
aa(lp211
g7
(g11
S'\xaa\xee\xd0\x8a\xa3\x9c\xed?'
p212
tp213
Rp214
aaas.