(dp0
S'sqlite'
p1
(lp2
(lp3
(lp4
S'../Data/sqlite_45.csv'
p5
aa(lp6
cnumpy.core.multiarray
scalar
p7
(cnumpy
dtype
p8
(S'f8'
p9
I0
I1
tp10
Rp11
(I3
S'<'
p12
NNNI-1
I-1
I0
tp13
bS'\xd4\xe32\x92r\xd3\x0b@'
p14
tp15
Rp16
aaa(lp17
(lp18
S'../Data/sqlite_59.csv'
p19
aa(lp20
g7
(g11
S'\xd4|\xf2\xde\xd5\xc5\x00@'
p21
tp22
Rp23
aaa(lp24
(lp25
S'../Data/sqlite_44.csv'
p26
aa(lp27
g7
(g11
S'\xe0r:1|\xd6\x01@'
p28
tp29
Rp30
aaa(lp31
(lp32
S'../Data/sqlite_17.csv'
p33
aa(lp34
g7
(g11
S'\x98\x1f\xba\x04s\xc1\xeb?'
p35
tp36
Rp37
aaa(lp38
(lp39
S'../Data/sqlite_10.csv'
p40
aa(lp41
g7
(g11
S'\x15\xf2,\xa9U;\x13@'
p42
tp43
Rp44
aaasS'spear'
p45
(lp46
(lp47
(lp48
S'../Data/spear_7.csv'
p49
aa(lp50
g7
(g11
S'\xf4\x01\x8a/\x0bl\xb9?'
p51
tp52
Rp53
aaa(lp54
(lp55
S'../Data/spear_0.csv'
p56
aa(lp57
g7
(g11
S'\x95F\xf3\xb9\xfex\xb9?'
p58
tp59
Rp60
aaa(lp61
(lp62
g49
aa(lp63
g7
(g11
S'\xf4\x01\x8a/\x0bl\xb9?'
p64
tp65
Rp66
aaa(lp67
(lp68
g49
aa(lp69
g7
(g11
S'\xf4\x01\x8a/\x0bl\xb9?'
p70
tp71
Rp72
aaa(lp73
(lp74
S'../Data/spear_9.csv'
p75
aa(lp76
g7
(g11
S'\xf4\x01\x8a/\x0bl\xb9?'
p77
tp78
Rp79
aaasS'sac'
p80
(lp81
(lp82
(lp83
S'../Data/sac_4.csv'
p84
aa(lp85
g7
(g11
S'f\xfeA\x82\xddq\xe4?'
p86
tp87
Rp88
aaa(lp89
(lp90
S'../Data/sac_2.csv'
p91
aa(lp92
g7
(g11
S'\x00\x00\x00\x00\x00\x00Y@'
p93
tp94
Rp95
aaa(lp96
(lp97
S'../Data/sac_9.csv'
p98
aa(lp99
g7
(g11
S'\x8e\x08\x1a\x03\x9b\xca\x12@'
p100
tp101
Rp102
aaa(lp103
(lp104
S'../Data/sac_6.csv'
p105
aa(lp106
g7
(g11
S'@%4\xe3y@\xd2?'
p107
tp108
Rp109
aaa(lp110
(lp111
g84
aa(lp112
g7
(g11
S'f\xfeA\x82\xddq\xe4?'
p113
tp114
Rp115
aaasS'storm-obj2'
p116
(lp117
(lp118
(lp119
S'../Data/storm-obj2_feature9.csv'
p120
aa(lp121
g7
(g11
S'\x00\x00\x00\x00\x00\x00\x00\x00'
p122
tp123
Rp124
aaa(lp125
(lp126
g120
aa(lp127
g7
(g11
S'\x00\x00\x00\x00\x00\x00\x00\x00'
p128
tp129
Rp130
aaa(lp131
(lp132
g120
aa(lp133
g7
(g11
S'\x00\x00\x00\x00\x00\x00\x00\x00'
p134
tp135
Rp136
aaa(lp137
(lp138
g120
aa(lp139
g7
(g11
S'\x00\x00\x00\x00\x00\x00\x00\x00'
p140
tp141
Rp142
aaa(lp143
(lp144
g120
aa(lp145
g7
(g11
S'\x00\x00\x00\x00\x00\x00\x00\x00'
p146
tp147
Rp148
aaasS'storm-obj1'
p149
(lp150
(lp151
(lp152
S'../Data/storm-obj1_feature8.csv'
p153
aa(lp154
g7
(g11
S'\xf0\x96\x98JL%\x02@'
p155
tp156
Rp157
aaa(lp158
(lp159
g153
aa(lp160
g7
(g11
S'\xf0\x96\x98JL%\x02@'
p161
tp162
Rp163
aaa(lp164
(lp165
g153
aa(lp166
g7
(g11
S'\xf0\x96\x98JL%\x02@'
p167
tp168
Rp169
aaa(lp170
(lp171
g153
aa(lp172
g7
(g11
S'\xf0\x96\x98JL%\x02@'
p173
tp174
Rp175
aaa(lp176
(lp177
g153
aa(lp178
g7
(g11
S'\xf0\x96\x98JL%\x02@'
p179
tp180
Rp181
aaasS'x264'
p182
(lp183
(lp184
(lp185
S'../Data/x264_6.csv'
p186
aa(lp187
g7
(g11
S'\x97&u\xa9ld\x01@'
p188
tp189
Rp190
aaa(lp191
(lp192
S'../Data/x264_14.csv'
p193
aa(lp194
g7
(g11
S'\x1f\xc46\xafo\xcf:@'
p195
tp196
Rp197
aaa(lp198
(lp199
S'../Data/x264_7.csv'
p200
aa(lp201
g7
(g11
S'\xaa\xee\xd0\x8a\xa3\x9c\xed?'
p202
tp203
Rp204
aaa(lp205
(lp206
g193
aa(lp207
g7
(g11
S'\x1f\xc46\xafo\xcf:@'
p208
tp209
Rp210
aaa(lp211
(lp212
S'../Data/x264_10.csv'
p213
aa(lp214
g7
(g11
S'\xaa\xee\xd0\x8a\xa3\x9c\xed?'
p215
tp216
Rp217
aaas.