(dp0
S'sqlite'
p1
(lp2
(lp3
(lp4
S'../Data/sqlite_44.csv'
p5
aa(lp6
cnumpy.core.multiarray
scalar
p7
(cnumpy
dtype
p8
(S'f8'
p9
I0
I1
tp10
Rp11
(I3
S'<'
p12
NNNI-1
I-1
I0
tp13
bS'\xe0r:1|\xd6\x01@'
p14
tp15
Rp16
aaa(lp17
(lp18
S'../Data/sqlite_11.csv'
p19
aa(lp20
g7
(g11
S'z/1,\xbc\xfd\x1a@'
p21
tp22
Rp23
aaa(lp24
(lp25
g5
aa(lp26
g7
(g11
S'\xe0r:1|\xd6\x01@'
p27
tp28
Rp29
aaa(lp30
(lp31
S'../Data/sqlite_73.csv'
p32
aa(lp33
g7
(g11
S'\xd2\xb62\xbe\xeb\xbb\x07@'
p34
tp35
Rp36
aaa(lp37
(lp38
g19
aa(lp39
g7
(g11
S'z/1,\xbc\xfd\x1a@'
p40
tp41
Rp42
aaasS'spear'
p43
(lp44
(lp45
(lp46
S'../Data/spear_7.csv'
p47
aa(lp48
g7
(g11
S'\xf4\x01\x8a/\x0bl\xb9?'
p49
tp50
Rp51
aaa(lp52
(lp53
g47
aa(lp54
g7
(g11
S'\xf4\x01\x8a/\x0bl\xb9?'
p55
tp56
Rp57
aaa(lp58
(lp59
g47
aa(lp60
g7
(g11
S'\xf4\x01\x8a/\x0bl\xb9?'
p61
tp62
Rp63
aaa(lp64
(lp65
g47
aa(lp66
g7
(g11
S'\xf4\x01\x8a/\x0bl\xb9?'
p67
tp68
Rp69
aaa(lp70
(lp71
g47
aa(lp72
g7
(g11
S'\xf4\x01\x8a/\x0bl\xb9?'
p73
tp74
Rp75
aaasS'sac'
p76
(lp77
(lp78
(lp79
S'../Data/sac_4.csv'
p80
aa(lp81
g7
(g11
S'f\xfeA\x82\xddq\xe4?'
p82
tp83
Rp84
aaa(lp85
(lp86
g80
aa(lp87
g7
(g11
S'f\xfeA\x82\xddq\xe4?'
p88
tp89
Rp90
aaa(lp91
(lp92
S'../Data/sac_2.csv'
p93
aa(lp94
g7
(g11
S'\x00\x00\x00\x00\x00\x00Y@'
p95
tp96
Rp97
aaa(lp98
(lp99
g93
aa(lp100
g7
(g11
S'\x00\x00\x00\x00\x00\x00Y@'
p101
tp102
Rp103
aaa(lp104
(lp105
g93
aa(lp106
g7
(g11
S'\x00\x00\x00\x00\x00\x00Y@'
p107
tp108
Rp109
aaasS'storm-obj2'
p110
(lp111
(lp112
(lp113
S'../Data/storm-obj2_feature9.csv'
p114
aa(lp115
g7
(g11
S'\x00\x00\x00\x00\x00\x00\x00\x00'
p116
tp117
Rp118
aaa(lp119
(lp120
g114
aa(lp121
g7
(g11
S'\x00\x00\x00\x00\x00\x00\x00\x00'
p122
tp123
Rp124
aaa(lp125
(lp126
g114
aa(lp127
g7
(g11
S'\x00\x00\x00\x00\x00\x00\x00\x00'
p128
tp129
Rp130
aaa(lp131
(lp132
g114
aa(lp133
g7
(g11
S'\x00\x00\x00\x00\x00\x00\x00\x00'
p134
tp135
Rp136
aaa(lp137
(lp138
g114
aa(lp139
g7
(g11
S'\x00\x00\x00\x00\x00\x00\x00\x00'
p140
tp141
Rp142
aaasS'storm-obj1'
p143
(lp144
(lp145
(lp146
S'../Data/storm-obj1_feature8.csv'
p147
aa(lp148
g7
(g11
S'\xf0\x96\x98JL%\x02@'
p149
tp150
Rp151
aaa(lp152
(lp153
g147
aa(lp154
g7
(g11
S'\xf0\x96\x98JL%\x02@'
p155
tp156
Rp157
aaa(lp158
(lp159
g147
aa(lp160
g7
(g11
S'\xf0\x96\x98JL%\x02@'
p161
tp162
Rp163
aaa(lp164
(lp165
g147
aa(lp166
g7
(g11
S'\xf0\x96\x98JL%\x02@'
p167
tp168
Rp169
aaa(lp170
(lp171
g147
aa(lp172
g7
(g11
S'\xf0\x96\x98JL%\x02@'
p173
tp174
Rp175
aaasS'x264'
p176
(lp177
(lp178
(lp179
S'../Data/x264_13.csv'
p180
aa(lp181
g7
(g11
S'd\x85\x0e\xcd\xae\xc0(@'
p182
tp183
Rp184
aaa(lp185
(lp186
S'../Data/x264_11.csv'
p187
aa(lp188
g7
(g11
S'\xea\x02\xd7\x92\xaa-\xf8?'
p189
tp190
Rp191
aaa(lp192
(lp193
S'../Data/x264_18.csv'
p194
aa(lp195
g7
(g11
S'\x9c^\xf9)\xdba\xd2?'
p196
tp197
Rp198
aaa(lp199
(lp200
g180
aa(lp201
g7
(g11
S'd\x85\x0e\xcd\xae\xc0(@'
p202
tp203
Rp204
aaa(lp205
(lp206
S'../Data/x264_14.csv'
p207
aa(lp208
g7
(g11
S'\x1f\xc46\xafo\xcf:@'
p209
tp210
Rp211
aaas.