(dp0
S'sqlite'
p1
(lp2
(lp3
(lp4
S'../Data/sqlite_10.csv'
p5
aa(lp6
cnumpy.core.multiarray
scalar
p7
(cnumpy
dtype
p8
(S'f8'
p9
I0
I1
tp10
Rp11
(I3
S'<'
p12
NNNI-1
I-1
I0
tp13
bS'\x15\xf2,\xa9U;\x13@'
p14
tp15
Rp16
aaa(lp17
(lp18
S'../Data/sqlite_11.csv'
p19
aa(lp20
g7
(g11
S'z/1,\xbc\xfd\x1a@'
p21
tp22
Rp23
aaa(lp24
(lp25
S'../Data/sqlite_59.csv'
p26
aa(lp27
g7
(g11
S'\xd4|\xf2\xde\xd5\xc5\x00@'
p28
tp29
Rp30
aaa(lp31
(lp32
S'../Data/sqlite_73.csv'
p33
aa(lp34
g7
(g11
S'\xd2\xb62\xbe\xeb\xbb\x07@'
p35
tp36
Rp37
aaa(lp38
(lp39
g5
aa(lp40
g7
(g11
S'\x15\xf2,\xa9U;\x13@'
p41
tp42
Rp43
aaasS'spear'
p44
(lp45
(lp46
(lp47
S'../Data/spear_7.csv'
p48
aa(lp49
g7
(g11
S'\xf4\x01\x8a/\x0bl\xb9?'
p50
tp51
Rp52
aaa(lp53
(lp54
g48
aa(lp55
g7
(g11
S'\xf4\x01\x8a/\x0bl\xb9?'
p56
tp57
Rp58
aaa(lp59
(lp60
g48
aa(lp61
g7
(g11
S'\xf4\x01\x8a/\x0bl\xb9?'
p62
tp63
Rp64
aaa(lp65
(lp66
g48
aa(lp67
g7
(g11
S'\xf4\x01\x8a/\x0bl\xb9?'
p68
tp69
Rp70
aaa(lp71
(lp72
g48
aa(lp73
g7
(g11
S'\xf4\x01\x8a/\x0bl\xb9?'
p74
tp75
Rp76
aaasS'sac'
p77
(lp78
(lp79
(lp80
S'../Data/sac_4.csv'
p81
aa(lp82
g7
(g11
S'f\xfeA\x82\xddq\xe4?'
p83
tp84
Rp85
aaa(lp86
(lp87
g81
aa(lp88
g7
(g11
S'f\xfeA\x82\xddq\xe4?'
p89
tp90
Rp91
aaa(lp92
(lp93
S'../Data/sac_2.csv'
p94
aa(lp95
g7
(g11
S'\x00\x00\x00\x00\x00\x00Y@'
p96
tp97
Rp98
aaa(lp99
(lp100
g81
aa(lp101
g7
(g11
S'f\xfeA\x82\xddq\xe4?'
p102
tp103
Rp104
aaa(lp105
(lp106
g94
aa(lp107
g7
(g11
S'\x00\x00\x00\x00\x00\x00Y@'
p108
tp109
Rp110
aaasS'storm-obj2'
p111
(lp112
(lp113
(lp114
S'../Data/storm-obj2_feature9.csv'
p115
aa(lp116
g7
(g11
S'\x00\x00\x00\x00\x00\x00\x00\x00'
p117
tp118
Rp119
aaa(lp120
(lp121
g115
aa(lp122
g7
(g11
S'\x00\x00\x00\x00\x00\x00\x00\x00'
p123
tp124
Rp125
aaa(lp126
(lp127
g115
aa(lp128
g7
(g11
S'\x00\x00\x00\x00\x00\x00\x00\x00'
p129
tp130
Rp131
aaa(lp132
(lp133
g115
aa(lp134
g7
(g11
S'\x00\x00\x00\x00\x00\x00\x00\x00'
p135
tp136
Rp137
aaa(lp138
(lp139
g115
aa(lp140
g7
(g11
S'\x00\x00\x00\x00\x00\x00\x00\x00'
p141
tp142
Rp143
aaasS'storm-obj1'
p144
(lp145
(lp146
(lp147
S'../Data/storm-obj1_feature9.csv'
p148
aa(lp149
g7
(g11
S'\xad\x88\x03\xf1-qI@'
p150
tp151
Rp152
aaa(lp153
(lp154
S'../Data/storm-obj1_feature8.csv'
p155
aa(lp156
g7
(g11
S'\xf0\x96\x98JL%\x02@'
p157
tp158
Rp159
aaa(lp160
(lp161
g155
aa(lp162
g7
(g11
S'\xf0\x96\x98JL%\x02@'
p163
tp164
Rp165
aaa(lp166
(lp167
S'../Data/storm-obj1_feature6.csv'
p168
aa(lp169
g7
(g11
S'$*\xe4+\xb9\x070@'
p170
tp171
Rp172
aaa(lp173
(lp174
g155
aa(lp175
g7
(g11
S'\xf0\x96\x98JL%\x02@'
p176
tp177
Rp178
aaasS'x264'
p179
(lp180
(lp181
(lp182
S'../Data/x264_19.csv'
p183
aa(lp184
g7
(g11
S'E\r\xb7\x94\x08\xd5\x16@'
p185
tp186
Rp187
aaa(lp188
(lp189
S'../Data/x264_2.csv'
p190
aa(lp191
g7
(g11
S'\x8e^L\x9e\xd0\xc5\x01@'
p192
tp193
Rp194
aaa(lp195
(lp196
S'../Data/x264_12.csv'
p197
aa(lp198
g7
(g11
S'\x0b\x84\x1eX\x84Q*@'
p199
tp200
Rp201
aaa(lp202
(lp203
S'../Data/x264_6.csv'
p204
aa(lp205
g7
(g11
S'\x97&u\xa9ld\x01@'
p206
tp207
Rp208
aaa(lp209
(lp210
S'../Data/x264_8.csv'
p211
aa(lp212
g7
(g11
S'\xea\x02\xd7\x92\xaa-\xf8?'
p213
tp214
Rp215
aaas.