(dp0
S'sqlite'
p1
(lp2
(lp3
(lp4
S'../Data/sqlite_11.csv'
p5
aa(lp6
cnumpy.core.multiarray
scalar
p7
(cnumpy
dtype
p8
(S'f8'
p9
I0
I1
tp10
Rp11
(I3
S'<'
p12
NNNI-1
I-1
I0
tp13
bS'z/1,\xbc\xfd\x1a@'
p14
tp15
Rp16
aaa(lp17
(lp18
S'../Data/sqlite_19.csv'
p19
aa(lp20
g7
(g11
S'T\x93\xe0\x98/\xce\x00@'
p21
tp22
Rp23
aaa(lp24
(lp25
S'../Data/sqlite_79.csv'
p26
aa(lp27
g7
(g11
S'TJ\x86\x1e\\\xf5\x16@'
p28
tp29
Rp30
aaa(lp31
(lp32
S'../Data/sqlite_17.csv'
p33
aa(lp34
g7
(g11
S'\x98\x1f\xba\x04s\xc1\xeb?'
p35
tp36
Rp37
aaa(lp38
(lp39
g19
aa(lp40
g7
(g11
S'T\x93\xe0\x98/\xce\x00@'
p41
tp42
Rp43
aaasS'spear'
p44
(lp45
(lp46
(lp47
S'../Data/spear_1.csv'
p48
aa(lp49
g7
(g11
S'\xf4\x01\x8a/\x0bl\xb9?'
p50
tp51
Rp52
aaa(lp53
(lp54
g48
aa(lp55
g7
(g11
S'\xf4\x01\x8a/\x0bl\xb9?'
p56
tp57
Rp58
aaa(lp59
(lp60
g48
aa(lp61
g7
(g11
S'\xf4\x01\x8a/\x0bl\xb9?'
p62
tp63
Rp64
aaa(lp65
(lp66
S'../Data/spear_7.csv'
p67
aa(lp68
g7
(g11
S'\xf4\x01\x8a/\x0bl\xb9?'
p69
tp70
Rp71
aaa(lp72
(lp73
g67
aa(lp74
g7
(g11
S'\xf4\x01\x8a/\x0bl\xb9?'
p75
tp76
Rp77
aaasS'sac'
p78
(lp79
(lp80
(lp81
S'../Data/sac_5.csv'
p82
aa(lp83
g7
(g11
S'#\xfeD\x88[&%@'
p84
tp85
Rp86
aaa(lp87
(lp88
S'../Data/sac_9.csv'
p89
aa(lp90
g7
(g11
S'\x8e\x08\x1a\x03\x9b\xca\x12@'
p91
tp92
Rp93
aaa(lp94
(lp95
S'../Data/sac_4.csv'
p96
aa(lp97
g7
(g11
S'f\xfeA\x82\xddq\xe4?'
p98
tp99
Rp100
aaa(lp101
(lp102
S'../Data/sac_2.csv'
p103
aa(lp104
g7
(g11
S'\x00\x00\x00\x00\x00\x00Y@'
p105
tp106
Rp107
aaa(lp108
(lp109
S'../Data/sac_6.csv'
p110
aa(lp111
g7
(g11
S'@%4\xe3y@\xd2?'
p112
tp113
Rp114
aaasS'storm-obj2'
p115
(lp116
(lp117
(lp118
S'../Data/storm-obj2_feature9.csv'
p119
aa(lp120
g7
(g11
S'\x00\x00\x00\x00\x00\x00\x00\x00'
p121
tp122
Rp123
aaa(lp124
(lp125
g119
aa(lp126
g7
(g11
S'\x00\x00\x00\x00\x00\x00\x00\x00'
p127
tp128
Rp129
aaa(lp130
(lp131
g119
aa(lp132
g7
(g11
S'\x00\x00\x00\x00\x00\x00\x00\x00'
p133
tp134
Rp135
aaa(lp136
(lp137
g119
aa(lp138
g7
(g11
S'\x00\x00\x00\x00\x00\x00\x00\x00'
p139
tp140
Rp141
aaa(lp142
(lp143
g119
aa(lp144
g7
(g11
S'\x00\x00\x00\x00\x00\x00\x00\x00'
p145
tp146
Rp147
aaasS'storm-obj1'
p148
(lp149
(lp150
(lp151
S'../Data/storm-obj1_feature9.csv'
p152
aa(lp153
g7
(g11
S'\xad\x88\x03\xf1-qI@'
p154
tp155
Rp156
aaa(lp157
(lp158
g152
aa(lp159
g7
(g11
S'\xad\x88\x03\xf1-qI@'
p160
tp161
Rp162
aaa(lp163
(lp164
S'../Data/storm-obj1_feature8.csv'
p165
aa(lp166
g7
(g11
S'\xf0\x96\x98JL%\x02@'
p167
tp168
Rp169
aaa(lp170
(lp171
g165
aa(lp172
g7
(g11
S'\xf0\x96\x98JL%\x02@'
p173
tp174
Rp175
aaa(lp176
(lp177
g152
aa(lp178
g7
(g11
S'\xad\x88\x03\xf1-qI@'
p179
tp180
Rp181
aaasS'x264'
p182
(lp183
(lp184
(lp185
S'../Data/x264_7.csv'
p186
aa(lp187
g7
(g11
S'\xaa\xee\xd0\x8a\xa3\x9c\xed?'
p188
tp189
Rp190
aaa(lp191
(lp192
S'../Data/x264_11.csv'
p193
aa(lp194
g7
(g11
S'\xea\x02\xd7\x92\xaa-\xf8?'
p195
tp196
Rp197
aaa(lp198
(lp199
S'../Data/x264_13.csv'
p200
aa(lp201
g7
(g11
S'd\x85\x0e\xcd\xae\xc0(@'
p202
tp203
Rp204
aaa(lp205
(lp206
S'../Data/x264_10.csv'
p207
aa(lp208
g7
(g11
S'\xaa\xee\xd0\x8a\xa3\x9c\xed?'
p209
tp210
Rp211
aaa(lp212
(lp213
g186
aa(lp214
g7
(g11
S'\xaa\xee\xd0\x8a\xa3\x9c\xed?'
p215
tp216
Rp217
aaas.