(dp0
S'sqlite'
p1
(lp2
(lp3
(lp4
S'../Data/sqlite_17.csv'
p5
aa(lp6
cnumpy.core.multiarray
scalar
p7
(cnumpy
dtype
p8
(S'f8'
p9
I0
I1
tp10
Rp11
(I3
S'<'
p12
NNNI-1
I-1
I0
tp13
bS'\x98\x1f\xba\x04s\xc1\xeb?'
p14
tp15
Rp16
aaa(lp17
(lp18
S'../Data/sqlite_19.csv'
p19
aa(lp20
g7
(g11
S'T\x93\xe0\x98/\xce\x00@'
p21
tp22
Rp23
aaa(lp24
(lp25
S'../Data/sqlite_45.csv'
p26
aa(lp27
g7
(g11
S'\xd4\xe32\x92r\xd3\x0b@'
p28
tp29
Rp30
aaa(lp31
(lp32
g26
aa(lp33
g7
(g11
S'\xd4\xe32\x92r\xd3\x0b@'
p34
tp35
Rp36
aaa(lp37
(lp38
g26
aa(lp39
g7
(g11
S'\xd4\xe32\x92r\xd3\x0b@'
p40
tp41
Rp42
aaasS'spear'
p43
(lp44
(lp45
(lp46
S'../Data/spear_1.csv'
p47
aa(lp48
g7
(g11
S'\xf4\x01\x8a/\x0bl\xb9?'
p49
tp50
Rp51
aaa(lp52
(lp53
S'../Data/spear_9.csv'
p54
aa(lp55
g7
(g11
S'\xf4\x01\x8a/\x0bl\xb9?'
p56
tp57
Rp58
aaa(lp59
(lp60
S'../Data/spear_3.csv'
p61
aa(lp62
g7
(g11
S'&\xc4\xd0|\xae?\xfe?'
p63
tp64
Rp65
aaa(lp66
(lp67
g47
aa(lp68
g7
(g11
S'\xf4\x01\x8a/\x0bl\xb9?'
p69
tp70
Rp71
aaa(lp72
(lp73
S'../Data/spear_7.csv'
p74
aa(lp75
g7
(g11
S'\xf4\x01\x8a/\x0bl\xb9?'
p76
tp77
Rp78
aaasS'sac'
p79
(lp80
(lp81
(lp82
S'../Data/sac_4.csv'
p83
aa(lp84
g7
(g11
S'f\xfeA\x82\xddq\xe4?'
p85
tp86
Rp87
aaa(lp88
(lp89
g83
aa(lp90
g7
(g11
S'f\xfeA\x82\xddq\xe4?'
p91
tp92
Rp93
aaa(lp94
(lp95
g83
aa(lp96
g7
(g11
S'f\xfeA\x82\xddq\xe4?'
p97
tp98
Rp99
aaa(lp100
(lp101
S'../Data/sac_2.csv'
p102
aa(lp103
g7
(g11
S'\x00\x00\x00\x00\x00\x00Y@'
p104
tp105
Rp106
aaa(lp107
(lp108
S'../Data/sac_9.csv'
p109
aa(lp110
g7
(g11
S'\x8e\x08\x1a\x03\x9b\xca\x12@'
p111
tp112
Rp113
aaasS'storm-obj2'
p114
(lp115
(lp116
(lp117
S'../Data/storm-obj2_feature9.csv'
p118
aa(lp119
g7
(g11
S'\x00\x00\x00\x00\x00\x00\x00\x00'
p120
tp121
Rp122
aaa(lp123
(lp124
g118
aa(lp125
g7
(g11
S'\x00\x00\x00\x00\x00\x00\x00\x00'
p126
tp127
Rp128
aaa(lp129
(lp130
g118
aa(lp131
g7
(g11
S'\x00\x00\x00\x00\x00\x00\x00\x00'
p132
tp133
Rp134
aaa(lp135
(lp136
g118
aa(lp137
g7
(g11
S'\x00\x00\x00\x00\x00\x00\x00\x00'
p138
tp139
Rp140
aaa(lp141
(lp142
g118
aa(lp143
g7
(g11
S'\x00\x00\x00\x00\x00\x00\x00\x00'
p144
tp145
Rp146
aaasS'storm-obj1'
p147
(lp148
(lp149
(lp150
S'../Data/storm-obj1_feature9.csv'
p151
aa(lp152
g7
(g11
S'\xad\x88\x03\xf1-qI@'
p153
tp154
Rp155
aaa(lp156
(lp157
S'../Data/storm-obj1_feature8.csv'
p158
aa(lp159
g7
(g11
S'\xf0\x96\x98JL%\x02@'
p160
tp161
Rp162
aaa(lp163
(lp164
g151
aa(lp165
g7
(g11
S'\xad\x88\x03\xf1-qI@'
p166
tp167
Rp168
aaa(lp169
(lp170
S'../Data/storm-obj1_feature6.csv'
p171
aa(lp172
g7
(g11
S'$*\xe4+\xb9\x070@'
p173
tp174
Rp175
aaa(lp176
(lp177
g158
aa(lp178
g7
(g11
S'\xf0\x96\x98JL%\x02@'
p179
tp180
Rp181
aaasS'x264'
p182
(lp183
(lp184
(lp185
S'../Data/x264_1.csv'
p186
aa(lp187
g7
(g11
S'\xea\x02\xd7\x92\xaa-\xf8?'
p188
tp189
Rp190
aaa(lp191
(lp192
S'../Data/x264_9.csv'
p193
aa(lp194
g7
(g11
S'\x9c^\xf9)\xdba\xd2?'
p195
tp196
Rp197
aaa(lp198
(lp199
S'../Data/x264_7.csv'
p200
aa(lp201
g7
(g11
S'\xaa\xee\xd0\x8a\xa3\x9c\xed?'
p202
tp203
Rp204
aaa(lp205
(lp206
g200
aa(lp207
g7
(g11
S'\xaa\xee\xd0\x8a\xa3\x9c\xed?'
p208
tp209
Rp210
aaa(lp211
(lp212
S'../Data/x264_3.csv'
p213
aa(lp214
g7
(g11
S'\xf5\xde\xdf\xd3\x8f\x9d\x1e@'
p215
tp216
Rp217
aaas.