(dp0
S'sqlite'
p1
(lp2
(lp3
(lp4
S'../Data/sqlite_45.csv'
p5
aa(lp6
cnumpy.core.multiarray
scalar
p7
(cnumpy
dtype
p8
(S'f8'
p9
I0
I1
tp10
Rp11
(I3
S'<'
p12
NNNI-1
I-1
I0
tp13
bS'\xd4\xe32\x92r\xd3\x0b@'
p14
tp15
Rp16
aaa(lp17
(lp18
g5
aa(lp19
g7
(g11
S'\xd4\xe32\x92r\xd3\x0b@'
p20
tp21
Rp22
aaa(lp23
(lp24
S'../Data/sqlite_16.csv'
p25
aa(lp26
g7
(g11
S'\x10\xb6\x16-R\x16\x0f@'
p27
tp28
Rp29
aaa(lp30
(lp31
S'../Data/sqlite_44.csv'
p32
aa(lp33
g7
(g11
S'\xe0r:1|\xd6\x01@'
p34
tp35
Rp36
aaa(lp37
(lp38
g32
aa(lp39
g7
(g11
S'\xe0r:1|\xd6\x01@'
p40
tp41
Rp42
aaasS'spear'
p43
(lp44
(lp45
(lp46
S'../Data/spear_7.csv'
p47
aa(lp48
g7
(g11
S'\xf4\x01\x8a/\x0bl\xb9?'
p49
tp50
Rp51
aaa(lp52
(lp53
S'../Data/spear_1.csv'
p54
aa(lp55
g7
(g11
S'\xf4\x01\x8a/\x0bl\xb9?'
p56
tp57
Rp58
aaa(lp59
(lp60
g47
aa(lp61
g7
(g11
S'\xf4\x01\x8a/\x0bl\xb9?'
p62
tp63
Rp64
aaa(lp65
(lp66
g54
aa(lp67
g7
(g11
S'\xf4\x01\x8a/\x0bl\xb9?'
p68
tp69
Rp70
aaa(lp71
(lp72
g47
aa(lp73
g7
(g11
S'\xf4\x01\x8a/\x0bl\xb9?'
p74
tp75
Rp76
aaasS'sac'
p77
(lp78
(lp79
(lp80
S'../Data/sac_9.csv'
p81
aa(lp82
g7
(g11
S'\x8e\x08\x1a\x03\x9b\xca\x12@'
p83
tp84
Rp85
aaa(lp86
(lp87
S'../Data/sac_4.csv'
p88
aa(lp89
g7
(g11
S'f\xfeA\x82\xddq\xe4?'
p90
tp91
Rp92
aaa(lp93
(lp94
g88
aa(lp95
g7
(g11
S'f\xfeA\x82\xddq\xe4?'
p96
tp97
Rp98
aaa(lp99
(lp100
S'../Data/sac_2.csv'
p101
aa(lp102
g7
(g11
S'\x00\x00\x00\x00\x00\x00Y@'
p103
tp104
Rp105
aaa(lp106
(lp107
g88
aa(lp108
g7
(g11
S'f\xfeA\x82\xddq\xe4?'
p109
tp110
Rp111
aaasS'storm-obj2'
p112
(lp113
(lp114
(lp115
S'../Data/storm-obj2_feature9.csv'
p116
aa(lp117
g7
(g11
S'\x00\x00\x00\x00\x00\x00\x00\x00'
p118
tp119
Rp120
aaa(lp121
(lp122
g116
aa(lp123
g7
(g11
S'\x00\x00\x00\x00\x00\x00\x00\x00'
p124
tp125
Rp126
aaa(lp127
(lp128
g116
aa(lp129
g7
(g11
S'\x00\x00\x00\x00\x00\x00\x00\x00'
p130
tp131
Rp132
aaa(lp133
(lp134
g116
aa(lp135
g7
(g11
S'\x00\x00\x00\x00\x00\x00\x00\x00'
p136
tp137
Rp138
aaa(lp139
(lp140
g116
aa(lp141
g7
(g11
S'\x00\x00\x00\x00\x00\x00\x00\x00'
p142
tp143
Rp144
aaasS'storm-obj1'
p145
(lp146
(lp147
(lp148
S'../Data/storm-obj1_feature8.csv'
p149
aa(lp150
g7
(g11
S'\xf0\x96\x98JL%\x02@'
p151
tp152
Rp153
aaa(lp154
(lp155
S'../Data/storm-obj1_feature9.csv'
p156
aa(lp157
g7
(g11
S'\xad\x88\x03\xf1-qI@'
p158
tp159
Rp160
aaa(lp161
(lp162
g156
aa(lp163
g7
(g11
S'\xad\x88\x03\xf1-qI@'
p164
tp165
Rp166
aaa(lp167
(lp168
g149
aa(lp169
g7
(g11
S'\xf0\x96\x98JL%\x02@'
p170
tp171
Rp172
aaa(lp173
(lp174
g149
aa(lp175
g7
(g11
S'\xf0\x96\x98JL%\x02@'
p176
tp177
Rp178
aaasS'x264'
p179
(lp180
(lp181
(lp182
S'../Data/x264_10.csv'
p183
aa(lp184
g7
(g11
S'\xaa\xee\xd0\x8a\xa3\x9c\xed?'
p185
tp186
Rp187
aaa(lp188
(lp189
S'../Data/x264_7.csv'
p190
aa(lp191
g7
(g11
S'\xaa\xee\xd0\x8a\xa3\x9c\xed?'
p192
tp193
Rp194
aaa(lp195
(lp196
S'../Data/x264_14.csv'
p197
aa(lp198
g7
(g11
S'\x1f\xc46\xafo\xcf:@'
p199
tp200
Rp201
aaa(lp202
(lp203
S'../Data/x264_11.csv'
p204
aa(lp205
g7
(g11
S'\xea\x02\xd7\x92\xaa-\xf8?'
p206
tp207
Rp208
aaa(lp209
(lp210
g190
aa(lp211
g7
(g11
S'\xaa\xee\xd0\x8a\xa3\x9c\xed?'
p212
tp213
Rp214
aaas.