(dp0
S'sqlite'
p1
(lp2
(lp3
(lp4
S'../Data/sqlite_17.csv'
p5
aa(lp6
cnumpy.core.multiarray
scalar
p7
(cnumpy
dtype
p8
(S'f8'
p9
I0
I1
tp10
Rp11
(I3
S'<'
p12
NNNI-1
I-1
I0
tp13
bS'\x98\x1f\xba\x04s\xc1\xeb?'
p14
tp15
Rp16
aaa(lp17
(lp18
S'../Data/sqlite_45.csv'
p19
aa(lp20
g7
(g11
S'\xd4\xe32\x92r\xd3\x0b@'
p21
tp22
Rp23
aaa(lp24
(lp25
S'../Data/sqlite_18.csv'
p26
aa(lp27
g7
(g11
S'\xb1\xb7\x00\xb4n{2@'
p28
tp29
Rp30
aaa(lp31
(lp32
g26
aa(lp33
g7
(g11
S'\xb1\xb7\x00\xb4n{2@'
p34
tp35
Rp36
aaa(lp37
(lp38
g19
aa(lp39
g7
(g11
S'\xd4\xe32\x92r\xd3\x0b@'
p40
tp41
Rp42
aaasS'spear'
p43
(lp44
(lp45
(lp46
S'../Data/spear_7.csv'
p47
aa(lp48
g7
(g11
S'\xf4\x01\x8a/\x0bl\xb9?'
p49
tp50
Rp51
aaa(lp52
(lp53
g47
aa(lp54
g7
(g11
S'\xf4\x01\x8a/\x0bl\xb9?'
p55
tp56
Rp57
aaa(lp58
(lp59
S'../Data/spear_1.csv'
p60
aa(lp61
g7
(g11
S'\xf4\x01\x8a/\x0bl\xb9?'
p62
tp63
Rp64
aaa(lp65
(lp66
g60
aa(lp67
g7
(g11
S'\xf4\x01\x8a/\x0bl\xb9?'
p68
tp69
Rp70
aaa(lp71
(lp72
g60
aa(lp73
g7
(g11
S'\xf4\x01\x8a/\x0bl\xb9?'
p74
tp75
Rp76
aaasS'sac'
p77
(lp78
(lp79
(lp80
S'../Data/sac_6.csv'
p81
aa(lp82
g7
(g11
S'@%4\xe3y@\xd2?'
p83
tp84
Rp85
aaa(lp86
(lp87
S'../Data/sac_4.csv'
p88
aa(lp89
g7
(g11
S'f\xfeA\x82\xddq\xe4?'
p90
tp91
Rp92
aaa(lp93
(lp94
S'../Data/sac_2.csv'
p95
aa(lp96
g7
(g11
S'\x00\x00\x00\x00\x00\x00Y@'
p97
tp98
Rp99
aaa(lp100
(lp101
S'../Data/sac_9.csv'
p102
aa(lp103
g7
(g11
S'\x8e\x08\x1a\x03\x9b\xca\x12@'
p104
tp105
Rp106
aaa(lp107
(lp108
g88
aa(lp109
g7
(g11
S'f\xfeA\x82\xddq\xe4?'
p110
tp111
Rp112
aaasS'storm-obj2'
p113
(lp114
(lp115
(lp116
S'../Data/storm-obj2_feature9.csv'
p117
aa(lp118
g7
(g11
S'\x00\x00\x00\x00\x00\x00\x00\x00'
p119
tp120
Rp121
aaa(lp122
(lp123
g117
aa(lp124
g7
(g11
S'\x00\x00\x00\x00\x00\x00\x00\x00'
p125
tp126
Rp127
aaa(lp128
(lp129
g117
aa(lp130
g7
(g11
S'\x00\x00\x00\x00\x00\x00\x00\x00'
p131
tp132
Rp133
aaa(lp134
(lp135
g117
aa(lp136
g7
(g11
S'\x00\x00\x00\x00\x00\x00\x00\x00'
p137
tp138
Rp139
aaa(lp140
(lp141
g117
aa(lp142
g7
(g11
S'\x00\x00\x00\x00\x00\x00\x00\x00'
p143
tp144
Rp145
aaasS'storm-obj1'
p146
(lp147
(lp148
(lp149
S'../Data/storm-obj1_feature8.csv'
p150
aa(lp151
g7
(g11
S'\xf0\x96\x98JL%\x02@'
p152
tp153
Rp154
aaa(lp155
(lp156
S'../Data/storm-obj1_feature9.csv'
p157
aa(lp158
g7
(g11
S'\xad\x88\x03\xf1-qI@'
p159
tp160
Rp161
aaa(lp162
(lp163
g150
aa(lp164
g7
(g11
S'\xf0\x96\x98JL%\x02@'
p165
tp166
Rp167
aaa(lp168
(lp169
g150
aa(lp170
g7
(g11
S'\xf0\x96\x98JL%\x02@'
p171
tp172
Rp173
aaa(lp174
(lp175
S'../Data/storm-obj1_feature6.csv'
p176
aa(lp177
g7
(g11
S'$*\xe4+\xb9\x070@'
p178
tp179
Rp180
aaasS'x264'
p181
(lp182
(lp183
(lp184
S'../Data/x264_6.csv'
p185
aa(lp186
g7
(g11
S'\x97&u\xa9ld\x01@'
p187
tp188
Rp189
aaa(lp190
(lp191
g185
aa(lp192
g7
(g11
S'\x97&u\xa9ld\x01@'
p193
tp194
Rp195
aaa(lp196
(lp197
S'../Data/x264_12.csv'
p198
aa(lp199
g7
(g11
S'\x0b\x84\x1eX\x84Q*@'
p200
tp201
Rp202
aaa(lp203
(lp204
g185
aa(lp205
g7
(g11
S'\x97&u\xa9ld\x01@'
p206
tp207
Rp208
aaa(lp209
(lp210
S'../Data/x264_5.csv'
p211
aa(lp212
g7
(g11
S'\x8e^L\x9e\xd0\xc5\x01@'
p213
tp214
Rp215
aaas.