(dp0
S'sqlite'
p1
(lp2
(lp3
(lp4
S'../Data/sqlite_94.csv'
p5
aa(lp6
cnumpy.core.multiarray
scalar
p7
(cnumpy
dtype
p8
(S'f8'
p9
I0
I1
tp10
Rp11
(I3
S'<'
p12
NNNI-1
I-1
I0
tp13
bS'.\x9b\x95\xb9\xcdA@@'
p14
tp15
Rp16
aaa(lp17
(lp18
S'../Data/sqlite_73.csv'
p19
aa(lp20
g7
(g11
S'\xd2\xb62\xbe\xeb\xbb\x07@'
p21
tp22
Rp23
aaa(lp24
(lp25
S'../Data/sqlite_45.csv'
p26
aa(lp27
g7
(g11
S'\xd4\xe32\x92r\xd3\x0b@'
p28
tp29
Rp30
aaa(lp31
(lp32
S'../Data/sqlite_44.csv'
p33
aa(lp34
g7
(g11
S'\xe0r:1|\xd6\x01@'
p35
tp36
Rp37
aaa(lp38
(lp39
S'../Data/sqlite_19.csv'
p40
aa(lp41
g7
(g11
S'T\x93\xe0\x98/\xce\x00@'
p42
tp43
Rp44
aaasS'spear'
p45
(lp46
(lp47
(lp48
S'../Data/spear_7.csv'
p49
aa(lp50
g7
(g11
S'\xf4\x01\x8a/\x0bl\xb9?'
p51
tp52
Rp53
aaa(lp54
(lp55
S'../Data/spear_1.csv'
p56
aa(lp57
g7
(g11
S'\xf4\x01\x8a/\x0bl\xb9?'
p58
tp59
Rp60
aaa(lp61
(lp62
g49
aa(lp63
g7
(g11
S'\xf4\x01\x8a/\x0bl\xb9?'
p64
tp65
Rp66
aaa(lp67
(lp68
g49
aa(lp69
g7
(g11
S'\xf4\x01\x8a/\x0bl\xb9?'
p70
tp71
Rp72
aaa(lp73
(lp74
g49
aa(lp75
g7
(g11
S'\xf4\x01\x8a/\x0bl\xb9?'
p76
tp77
Rp78
aaasS'sac'
p79
(lp80
(lp81
(lp82
S'../Data/sac_9.csv'
p83
aa(lp84
g7
(g11
S'\x8e\x08\x1a\x03\x9b\xca\x12@'
p85
tp86
Rp87
aaa(lp88
(lp89
S'../Data/sac_4.csv'
p90
aa(lp91
g7
(g11
S'f\xfeA\x82\xddq\xe4?'
p92
tp93
Rp94
aaa(lp95
(lp96
g90
aa(lp97
g7
(g11
S'f\xfeA\x82\xddq\xe4?'
p98
tp99
Rp100
aaa(lp101
(lp102
S'../Data/sac_6.csv'
p103
aa(lp104
g7
(g11
S'@%4\xe3y@\xd2?'
p105
tp106
Rp107
aaa(lp108
(lp109
S'../Data/sac_2.csv'
p110
aa(lp111
g7
(g11
S'\x00\x00\x00\x00\x00\x00Y@'
p112
tp113
Rp114
aaasS'storm-obj2'
p115
(lp116
(lp117
(lp118
S'../Data/storm-obj2_feature9.csv'
p119
aa(lp120
g7
(g11
S'\x00\x00\x00\x00\x00\x00\x00\x00'
p121
tp122
Rp123
aaa(lp124
(lp125
g119
aa(lp126
g7
(g11
S'\x00\x00\x00\x00\x00\x00\x00\x00'
p127
tp128
Rp129
aaa(lp130
(lp131
g119
aa(lp132
g7
(g11
S'\x00\x00\x00\x00\x00\x00\x00\x00'
p133
tp134
Rp135
aaa(lp136
(lp137
g119
aa(lp138
g7
(g11
S'\x00\x00\x00\x00\x00\x00\x00\x00'
p139
tp140
Rp141
aaa(lp142
(lp143
g119
aa(lp144
g7
(g11
S'\x00\x00\x00\x00\x00\x00\x00\x00'
p145
tp146
Rp147
aaasS'storm-obj1'
p148
(lp149
(lp150
(lp151
S'../Data/storm-obj1_feature8.csv'
p152
aa(lp153
g7
(g11
S'\xf0\x96\x98JL%\x02@'
p154
tp155
Rp156
aaa(lp157
(lp158
g152
aa(lp159
g7
(g11
S'\xf0\x96\x98JL%\x02@'
p160
tp161
Rp162
aaa(lp163
(lp164
g152
aa(lp165
g7
(g11
S'\xf0\x96\x98JL%\x02@'
p166
tp167
Rp168
aaa(lp169
(lp170
g152
aa(lp171
g7
(g11
S'\xf0\x96\x98JL%\x02@'
p172
tp173
Rp174
aaa(lp175
(lp176
g152
aa(lp177
g7
(g11
S'\xf0\x96\x98JL%\x02@'
p178
tp179
Rp180
aaasS'x264'
p181
(lp182
(lp183
(lp184
S'../Data/x264_10.csv'
p185
aa(lp186
g7
(g11
S'\xaa\xee\xd0\x8a\xa3\x9c\xed?'
p187
tp188
Rp189
aaa(lp190
(lp191
S'../Data/x264_3.csv'
p192
aa(lp193
g7
(g11
S'\xf5\xde\xdf\xd3\x8f\x9d\x1e@'
p194
tp195
Rp196
aaa(lp197
(lp198
S'../Data/x264_7.csv'
p199
aa(lp200
g7
(g11
S'\xaa\xee\xd0\x8a\xa3\x9c\xed?'
p201
tp202
Rp203
aaa(lp204
(lp205
g185
aa(lp206
g7
(g11
S'\xaa\xee\xd0\x8a\xa3\x9c\xed?'
p207
tp208
Rp209
aaa(lp210
(lp211
S'../Data/x264_4.csv'
p212
aa(lp213
g7
(g11
S'\x8e^L\x9e\xd0\xc5\x01@'
p214
tp215
Rp216
aaas.