(dp0
S'sqlite'
p1
(lp2
(lp3
(lp4
S'../Data/sqlite_17.csv'
p5
aa(lp6
cnumpy.core.multiarray
scalar
p7
(cnumpy
dtype
p8
(S'f8'
p9
I0
I1
tp10
Rp11
(I3
S'<'
p12
NNNI-1
I-1
I0
tp13
bS'\x98\x1f\xba\x04s\xc1\xeb?'
p14
tp15
Rp16
aaa(lp17
(lp18
S'../Data/sqlite_16.csv'
p19
aa(lp20
g7
(g11
S'\x10\xb6\x16-R\x16\x0f@'
p21
tp22
Rp23
aaa(lp24
(lp25
g19
aa(lp26
g7
(g11
S'\x10\xb6\x16-R\x16\x0f@'
p27
tp28
Rp29
aaa(lp30
(lp31
S'../Data/sqlite_52.csv'
p32
aa(lp33
g7
(g11
S'd~p=\x9b\xef\x1d@'
p34
tp35
Rp36
aaa(lp37
(lp38
g19
aa(lp39
g7
(g11
S'\x10\xb6\x16-R\x16\x0f@'
p40
tp41
Rp42
aaasS'spear'
p43
(lp44
(lp45
(lp46
S'../Data/spear_7.csv'
p47
aa(lp48
g7
(g11
S'\xf4\x01\x8a/\x0bl\xb9?'
p49
tp50
Rp51
aaa(lp52
(lp53
g47
aa(lp54
g7
(g11
S'\xf4\x01\x8a/\x0bl\xb9?'
p55
tp56
Rp57
aaa(lp58
(lp59
g47
aa(lp60
g7
(g11
S'\xf4\x01\x8a/\x0bl\xb9?'
p61
tp62
Rp63
aaa(lp64
(lp65
g47
aa(lp66
g7
(g11
S'\xf4\x01\x8a/\x0bl\xb9?'
p67
tp68
Rp69
aaa(lp70
(lp71
g47
aa(lp72
g7
(g11
S'\xf4\x01\x8a/\x0bl\xb9?'
p73
tp74
Rp75
aaasS'sac'
p76
(lp77
(lp78
(lp79
S'../Data/sac_9.csv'
p80
aa(lp81
g7
(g11
S'\x8e\x08\x1a\x03\x9b\xca\x12@'
p82
tp83
Rp84
aaa(lp85
(lp86
g80
aa(lp87
g7
(g11
S'\x8e\x08\x1a\x03\x9b\xca\x12@'
p88
tp89
Rp90
aaa(lp91
(lp92
S'../Data/sac_4.csv'
p93
aa(lp94
g7
(g11
S'f\xfeA\x82\xddq\xe4?'
p95
tp96
Rp97
aaa(lp98
(lp99
g93
aa(lp100
g7
(g11
S'f\xfeA\x82\xddq\xe4?'
p101
tp102
Rp103
aaa(lp104
(lp105
S'../Data/sac_8.csv'
p106
aa(lp107
g7
(g11
S'oZ\x1e\x8c\xd9\x85\xec?'
p108
tp109
Rp110
aaasS'storm-obj2'
p111
(lp112
(lp113
(lp114
S'../Data/storm-obj2_feature9.csv'
p115
aa(lp116
g7
(g11
S'\x00\x00\x00\x00\x00\x00\x00\x00'
p117
tp118
Rp119
aaa(lp120
(lp121
g115
aa(lp122
g7
(g11
S'\x00\x00\x00\x00\x00\x00\x00\x00'
p123
tp124
Rp125
aaa(lp126
(lp127
g115
aa(lp128
g7
(g11
S'\x00\x00\x00\x00\x00\x00\x00\x00'
p129
tp130
Rp131
aaa(lp132
(lp133
g115
aa(lp134
g7
(g11
S'\x00\x00\x00\x00\x00\x00\x00\x00'
p135
tp136
Rp137
aaa(lp138
(lp139
g115
aa(lp140
g7
(g11
S'\x00\x00\x00\x00\x00\x00\x00\x00'
p141
tp142
Rp143
aaasS'storm-obj1'
p144
(lp145
(lp146
(lp147
S'../Data/storm-obj1_feature8.csv'
p148
aa(lp149
g7
(g11
S'\xf0\x96\x98JL%\x02@'
p150
tp151
Rp152
aaa(lp153
(lp154
S'../Data/storm-obj1_feature9.csv'
p155
aa(lp156
g7
(g11
S'\xad\x88\x03\xf1-qI@'
p157
tp158
Rp159
aaa(lp160
(lp161
g148
aa(lp162
g7
(g11
S'\xf0\x96\x98JL%\x02@'
p163
tp164
Rp165
aaa(lp166
(lp167
g148
aa(lp168
g7
(g11
S'\xf0\x96\x98JL%\x02@'
p169
tp170
Rp171
aaa(lp172
(lp173
g148
aa(lp174
g7
(g11
S'\xf0\x96\x98JL%\x02@'
p175
tp176
Rp177
aaasS'x264'
p178
(lp179
(lp180
(lp181
S'../Data/x264_3.csv'
p182
aa(lp183
g7
(g11
S'\xf5\xde\xdf\xd3\x8f\x9d\x1e@'
p184
tp185
Rp186
aaa(lp187
(lp188
S'../Data/x264_6.csv'
p189
aa(lp190
g7
(g11
S'\x97&u\xa9ld\x01@'
p191
tp192
Rp193
aaa(lp194
(lp195
S'../Data/x264_7.csv'
p196
aa(lp197
g7
(g11
S'\xaa\xee\xd0\x8a\xa3\x9c\xed?'
p198
tp199
Rp200
aaa(lp201
(lp202
S'../Data/x264_8.csv'
p203
aa(lp204
g7
(g11
S'\xea\x02\xd7\x92\xaa-\xf8?'
p205
tp206
Rp207
aaa(lp208
(lp209
g203
aa(lp210
g7
(g11
S'\xea\x02\xd7\x92\xaa-\xf8?'
p211
tp212
Rp213
aaas.