(dp0
S'sqlite'
p1
(lp2
(lp3
(lp4
S'../Data/sqlite_44.csv'
p5
aa(lp6
cnumpy.core.multiarray
scalar
p7
(cnumpy
dtype
p8
(S'f8'
p9
I0
I1
tp10
Rp11
(I3
S'<'
p12
NNNI-1
I-1
I0
tp13
bS'\xe0r:1|\xd6\x01@'
p14
tp15
Rp16
aaa(lp17
(lp18
g5
aa(lp19
g7
(g11
S'\xe0r:1|\xd6\x01@'
p20
tp21
Rp22
aaa(lp23
(lp24
S'../Data/sqlite_52.csv'
p25
aa(lp26
g7
(g11
S'd~p=\x9b\xef\x1d@'
p27
tp28
Rp29
aaa(lp30
(lp31
g5
aa(lp32
g7
(g11
S'\xe0r:1|\xd6\x01@'
p33
tp34
Rp35
aaa(lp36
(lp37
S'../Data/sqlite_10.csv'
p38
aa(lp39
g7
(g11
S'\x15\xf2,\xa9U;\x13@'
p40
tp41
Rp42
aaasS'spear'
p43
(lp44
(lp45
(lp46
S'../Data/spear_9.csv'
p47
aa(lp48
g7
(g11
S'\xf4\x01\x8a/\x0bl\xb9?'
p49
tp50
Rp51
aaa(lp52
(lp53
g47
aa(lp54
g7
(g11
S'\xf4\x01\x8a/\x0bl\xb9?'
p55
tp56
Rp57
aaa(lp58
(lp59
S'../Data/spear_7.csv'
p60
aa(lp61
g7
(g11
S'\xf4\x01\x8a/\x0bl\xb9?'
p62
tp63
Rp64
aaa(lp65
(lp66
g60
aa(lp67
g7
(g11
S'\xf4\x01\x8a/\x0bl\xb9?'
p68
tp69
Rp70
aaa(lp71
(lp72
g60
aa(lp73
g7
(g11
S'\xf4\x01\x8a/\x0bl\xb9?'
p74
tp75
Rp76
aaasS'sac'
p77
(lp78
(lp79
(lp80
S'../Data/sac_2.csv'
p81
aa(lp82
g7
(g11
S'\x00\x00\x00\x00\x00\x00Y@'
p83
tp84
Rp85
aaa(lp86
(lp87
S'../Data/sac_9.csv'
p88
aa(lp89
g7
(g11
S'\x8e\x08\x1a\x03\x9b\xca\x12@'
p90
tp91
Rp92
aaa(lp93
(lp94
S'../Data/sac_4.csv'
p95
aa(lp96
g7
(g11
S'f\xfeA\x82\xddq\xe4?'
p97
tp98
Rp99
aaa(lp100
(lp101
g88
aa(lp102
g7
(g11
S'\x8e\x08\x1a\x03\x9b\xca\x12@'
p103
tp104
Rp105
aaa(lp106
(lp107
g81
aa(lp108
g7
(g11
S'\x00\x00\x00\x00\x00\x00Y@'
p109
tp110
Rp111
aaasS'storm-obj2'
p112
(lp113
(lp114
(lp115
S'../Data/storm-obj2_feature9.csv'
p116
aa(lp117
g7
(g11
S'\x00\x00\x00\x00\x00\x00\x00\x00'
p118
tp119
Rp120
aaa(lp121
(lp122
g116
aa(lp123
g7
(g11
S'\x00\x00\x00\x00\x00\x00\x00\x00'
p124
tp125
Rp126
aaa(lp127
(lp128
g116
aa(lp129
g7
(g11
S'\x00\x00\x00\x00\x00\x00\x00\x00'
p130
tp131
Rp132
aaa(lp133
(lp134
g116
aa(lp135
g7
(g11
S'\x00\x00\x00\x00\x00\x00\x00\x00'
p136
tp137
Rp138
aaa(lp139
(lp140
g116
aa(lp141
g7
(g11
S'\x00\x00\x00\x00\x00\x00\x00\x00'
p142
tp143
Rp144
aaasS'storm-obj1'
p145
(lp146
(lp147
(lp148
S'../Data/storm-obj1_feature8.csv'
p149
aa(lp150
g7
(g11
S'\xf0\x96\x98JL%\x02@'
p151
tp152
Rp153
aaa(lp154
(lp155
g149
aa(lp156
g7
(g11
S'\xf0\x96\x98JL%\x02@'
p157
tp158
Rp159
aaa(lp160
(lp161
S'../Data/storm-obj1_feature9.csv'
p162
aa(lp163
g7
(g11
S'\xad\x88\x03\xf1-qI@'
p164
tp165
Rp166
aaa(lp167
(lp168
g149
aa(lp169
g7
(g11
S'\xf0\x96\x98JL%\x02@'
p170
tp171
Rp172
aaa(lp173
(lp174
S'../Data/storm-obj1_feature7.csv'
p175
aa(lp176
g7
(g11
S'\xd7\xa5`\xf3\xcc@(@'
p177
tp178
Rp179
aaasS'x264'
p180
(lp181
(lp182
(lp183
S'../Data/x264_6.csv'
p184
aa(lp185
g7
(g11
S'\x97&u\xa9ld\x01@'
p186
tp187
Rp188
aaa(lp189
(lp190
g184
aa(lp191
g7
(g11
S'\x97&u\xa9ld\x01@'
p192
tp193
Rp194
aaa(lp195
(lp196
S'../Data/x264_11.csv'
p197
aa(lp198
g7
(g11
S'\xea\x02\xd7\x92\xaa-\xf8?'
p199
tp200
Rp201
aaa(lp202
(lp203
S'../Data/x264_7.csv'
p204
aa(lp205
g7
(g11
S'\xaa\xee\xd0\x8a\xa3\x9c\xed?'
p206
tp207
Rp208
aaa(lp209
(lp210
S'../Data/x264_10.csv'
p211
aa(lp212
g7
(g11
S'\xaa\xee\xd0\x8a\xa3\x9c\xed?'
p213
tp214
Rp215
aaas.