(dp0
S'sqlite'
p1
(lp2
(lp3
(lp4
S'../Data/sqlite_96.csv'
p5
aa(lp6
cnumpy.core.multiarray
scalar
p7
(cnumpy
dtype
p8
(S'f8'
p9
I0
I1
tp10
Rp11
(I3
S'<'
p12
NNNI-1
I-1
I0
tp13
bS'\xca\x14\xfe5O\xbf\x16@'
p14
tp15
Rp16
aaa(lp17
(lp18
S'../Data/sqlite_52.csv'
p19
aa(lp20
g7
(g11
S'd~p=\x9b\xef\x1d@'
p21
tp22
Rp23
aaa(lp24
(lp25
S'../Data/sqlite_59.csv'
p26
aa(lp27
g7
(g11
S'\xd4|\xf2\xde\xd5\xc5\x00@'
p28
tp29
Rp30
aaa(lp31
(lp32
S'../Data/sqlite_11.csv'
p33
aa(lp34
g7
(g11
S'z/1,\xbc\xfd\x1a@'
p35
tp36
Rp37
aaa(lp38
(lp39
S'../Data/sqlite_19.csv'
p40
aa(lp41
g7
(g11
S'T\x93\xe0\x98/\xce\x00@'
p42
tp43
Rp44
aaasS'spear'
p45
(lp46
(lp47
(lp48
S'../Data/spear_1.csv'
p49
aa(lp50
g7
(g11
S'\xf4\x01\x8a/\x0bl\xb9?'
p51
tp52
Rp53
aaa(lp54
(lp55
S'../Data/spear_7.csv'
p56
aa(lp57
g7
(g11
S'\xf4\x01\x8a/\x0bl\xb9?'
p58
tp59
Rp60
aaa(lp61
(lp62
g49
aa(lp63
g7
(g11
S'\xf4\x01\x8a/\x0bl\xb9?'
p64
tp65
Rp66
aaa(lp67
(lp68
g56
aa(lp69
g7
(g11
S'\xf4\x01\x8a/\x0bl\xb9?'
p70
tp71
Rp72
aaa(lp73
(lp74
g56
aa(lp75
g7
(g11
S'\xf4\x01\x8a/\x0bl\xb9?'
p76
tp77
Rp78
aaasS'sac'
p79
(lp80
(lp81
(lp82
S'../Data/sac_8.csv'
p83
aa(lp84
g7
(g11
S'oZ\x1e\x8c\xd9\x85\xec?'
p85
tp86
Rp87
aaa(lp88
(lp89
S'../Data/sac_2.csv'
p90
aa(lp91
g7
(g11
S'\x00\x00\x00\x00\x00\x00Y@'
p92
tp93
Rp94
aaa(lp95
(lp96
S'../Data/sac_4.csv'
p97
aa(lp98
g7
(g11
S'f\xfeA\x82\xddq\xe4?'
p99
tp100
Rp101
aaa(lp102
(lp103
g97
aa(lp104
g7
(g11
S'f\xfeA\x82\xddq\xe4?'
p105
tp106
Rp107
aaa(lp108
(lp109
g90
aa(lp110
g7
(g11
S'\x00\x00\x00\x00\x00\x00Y@'
p111
tp112
Rp113
aaasS'storm-obj2'
p114
(lp115
(lp116
(lp117
S'../Data/storm-obj2_feature9.csv'
p118
aa(lp119
g7
(g11
S'\x00\x00\x00\x00\x00\x00\x00\x00'
p120
tp121
Rp122
aaa(lp123
(lp124
g118
aa(lp125
g7
(g11
S'\x00\x00\x00\x00\x00\x00\x00\x00'
p126
tp127
Rp128
aaa(lp129
(lp130
g118
aa(lp131
g7
(g11
S'\x00\x00\x00\x00\x00\x00\x00\x00'
p132
tp133
Rp134
aaa(lp135
(lp136
g118
aa(lp137
g7
(g11
S'\x00\x00\x00\x00\x00\x00\x00\x00'
p138
tp139
Rp140
aaa(lp141
(lp142
g118
aa(lp143
g7
(g11
S'\x00\x00\x00\x00\x00\x00\x00\x00'
p144
tp145
Rp146
aaasS'storm-obj1'
p147
(lp148
(lp149
(lp150
S'../Data/storm-obj1_feature9.csv'
p151
aa(lp152
g7
(g11
S'\xad\x88\x03\xf1-qI@'
p153
tp154
Rp155
aaa(lp156
(lp157
S'../Data/storm-obj1_feature8.csv'
p158
aa(lp159
g7
(g11
S'\xf0\x96\x98JL%\x02@'
p160
tp161
Rp162
aaa(lp163
(lp164
g158
aa(lp165
g7
(g11
S'\xf0\x96\x98JL%\x02@'
p166
tp167
Rp168
aaa(lp169
(lp170
g158
aa(lp171
g7
(g11
S'\xf0\x96\x98JL%\x02@'
p172
tp173
Rp174
aaa(lp175
(lp176
S'../Data/storm-obj1_feature6.csv'
p177
aa(lp178
g7
(g11
S'$*\xe4+\xb9\x070@'
p179
tp180
Rp181
aaasS'x264'
p182
(lp183
(lp184
(lp185
S'../Data/x264_9.csv'
p186
aa(lp187
g7
(g11
S'\x9c^\xf9)\xdba\xd2?'
p188
tp189
Rp190
aaa(lp191
(lp192
S'../Data/x264_20.csv'
p193
aa(lp194
g7
(g11
S'\x00\x91\xa8l\x7f\xb5\x0c@'
p195
tp196
Rp197
aaa(lp198
(lp199
S'../Data/x264_18.csv'
p200
aa(lp201
g7
(g11
S'\x9c^\xf9)\xdba\xd2?'
p202
tp203
Rp204
aaa(lp205
(lp206
S'../Data/x264_2.csv'
p207
aa(lp208
g7
(g11
S'\x8e^L\x9e\xd0\xc5\x01@'
p209
tp210
Rp211
aaa(lp212
(lp213
S'../Data/x264_11.csv'
p214
aa(lp215
g7
(g11
S'\xea\x02\xd7\x92\xaa-\xf8?'
p216
tp217
Rp218
aaas.