(dp0
S'../Data/sac_9.csv'
p1
(dp2
S'../Data/sac_1.csv'
p3
(dp4
S'rank'
p5
(lp6
cnumpy.core.multiarray
scalar
p7
(cnumpy
dtype
p8
(S'f8'
p9
I0
I1
tp10
Rp11
(I3
S'<'
p12
NNNI-1
I-1
I0
tp13
bS'\xe32\xb4\x1a\x07"\r@'
p14
tp15
Rp16
ag7
(g11
S'\xb5{\x1f\x1cK\xd6\x0b@'
p17
tp18
Rp19
ag7
(g11
S'\xe32\xb4\x1a\x07"\r@'
p20
tp21
Rp22
asss.