(dp0
S'../Data/sac_5.csv'
p1
(dp2
S'../Data/sac_4.csv'
p3
(dp4
S'rank'
p5
(lp6
I4742
aI4742
aI4742
aI4742
aI4742
aI4742
aI4742
aI4742
aI4742
aI4742
aI4742
aI4742
aI4742
aI4742
aI4742
aI4742
aI4742
aI4742
aI4742
aI4742
asss.