(dp0
S'../Data/sac_5.csv'
p1
(dp2
S'../Data/sac_6.csv'
p3
(dp4
S'rank'
p5
(lp6
cnumpy.core.multiarray
scalar
p7
(cnumpy
dtype
p8
(S'f8'
p9
I0
I1
tp10
Rp11
(I3
S'<'
p12
NNNI-1
I-1
I0
tp13
bS'X\x04 !\x93\x9a%@'
p14
tp15
Rp16
ag7
(g11
S'X\x04 !\x93\x9a%@'
p17
tp18
Rp19
ag7
(g11
S'X\x04 !\x93\x9a%@'
p20
tp21
Rp22
asss.