(dp0
S'../Data/sac_7.csv'
p1
(dp2
S'../Data/sac_4.csv'
p3
(dp4
S'abs_res'
p5
(lp6
cnumpy.core.multiarray
scalar
p7
(cnumpy
dtype
p8
(S'f8'
p9
I0
I1
tp10
Rp11
(I3
S'<'
p12
NNNI-1
I-1
I0
tp13
bS"\x12t\xda\xa0\x9eg'A"
p14
tp15
Rp16
ag7
(g11
S"\xf2\xb4\x81N-R'A"
p17
tp18
Rp19
ag7
(g11
S"K\xa7\r\xb4mN'A"
p20
tp21
Rp22
ag7
(g11
S"\xbd\x1e\x85\x8b\x8ag'A"
p23
tp24
Rp25
ag7
(g11
S'?33S"c\'A'
p26
tp27
Rp28
ag7
(g11
S"|=\nw\xd2]'A"
p29
tp30
Rp31
ag7
(g11
S"\x1d\xaeGaIf'A"
p32
tp33
Rp34
ag7
(g11
S"\x9e\x99\x99\x99\x0co'A"
p35
tp36
Rp37
ag7
(g11
S"\xee\x17K\xfe\x92]'A"
p38
tp39
Rp40
ag7
(g11
S"&\xe8\xb4\xe1\x82_'A"
p41
tp42
Rp43
ag7
(g11
S"\x03c\xc9o\xbfv'A"
p44
tp45
Rp46
ag7
(g11
S"\x0f:m\xc0\x17_'A"
p47
tp48
Rp49
ag7
(g11
S"\xdc\x06:\xad\xa3X'A"
p50
tp51
Rp52
ag7
(g11
S"\xe3@\xa7M\xa6d'A"
p53
tp54
Rp55
ag7
(g11
S"g,\xf9e\xa1j'A"
p56
tp57
Rp58
ag7
(g11
S"Em\xa0\x13\x1f`'A"
p59
tp60
Rp61
ag7
(g11
S"\x98\xc2\xf5\x88hb'A"
p62
tp63
Rp64
ag7
(g11
S"\xb6\xaa\xaa\xca\xa8Z'A"
p65
tp66
Rp67
ag7
(g11
S"\xda\x06:-\xec\x82'A"
p68
tp69
Rp70
ag7
(g11
S"\xf4\xee\xee\x0e\xe4k'A"
p71
tp72
Rp73
asss.