(dp0
S'../Data/sac_8.csv'
p1
(dp2
S'../Data/sac_4.csv'
p3
(dp4
S'abs_res'
p5
(lp6
cnumpy.core.multiarray
scalar
p7
(cnumpy
dtype
p8
(S'f8'
p9
I0
I1
tp10
Rp11
(I3
S'<'
p12
NNNI-1
I-1
I0
tp13
bS'4\xd0i#\x17M1A'
p14
tp15
Rp16
ag7
(g11
S'\xe1\xb4\x81n}D1A'
p17
tp18
Rp19
ag7
(g11
S'M\xb8\x1e\xa5\xa991A'
p20
tp21
Rp22
ag7
(g11
S'%\\\x8f\x92\x9491A'
p23
tp24
Rp25
ag7
(g11
S'RUU5\x86B1A'
p26
tp27
Rp28
ag7
(g11
S'I\x1b\xe8$\xbe>1A'
p29
tp30
Rp31
ag7
(g11
S'\xaa\xaa\xaa\xca\xf3I1A'
p32
tp33
Rp34
ag7
(g11
S'\xae\xe4\x17K\x84=1A'
p35
tp36
Rp37
ag7
(g11
S'/33s9F1A'
p38
tp39
Rp40
ag7
(g11
S'\x92\xfcbY\xaaA1A'
p41
tp42
Rp43
ag7
(g11
S'tww\xf7lD1A'
p44
tp45
Rp46
ag7
(g11
S'\xe1\x17K\x0e:L1A'
p47
tp48
Rp49
ag7
(g11
S'\xa6\xaa\xaaZ~:1A'
p50
tp51
Rp52
ag7
(g11
S'7m\xa0\xd3\xdc41A'
p53
tp54
Rp55
ag7
(g11
S'\x976\xd0Y\xb3B1A'
p56
tp57
Rp58
ag7
(g11
S'\xfab\xc9\xef\x97C1A'
p59
tp60
Rp61
ag7
(g11
S'\x81\xebQ\x08)81A'
p62
tp63
Rp64
ag7
(g11
S'\xbcX\xf2[\xc8C1A'
p65
tp66
Rp67
ag7
(g11
S'\xcai\x03\xcd\xe8D1A'
p68
tp69
Rp70
ag7
(g11
S'\x0e\x11\x111\xfaB1A'
p71
tp72
Rp73
asss.