(dp0
S'../Data/sac_5.csv'
p1
(dp2
S'../Data/sac_9.csv'
p3
(dp4
S'rank'
p5
(lp6
I695
aI695
aI695
aI695
aI695
aI695
aI695
aI695
aI695
aI695
aI695
aI695
aI695
aI695
aI695
aI695
aI695
aI695
aI695
aI695
asss.