(dp0
S'../Data/sac_7.csv'
p1
(dp2
S'../Data/sac_4.csv'
p3
(dp4
S'abs_res'
p5
(lp6
cnumpy.core.multiarray
scalar
p7
(cnumpy
dtype
p8
(S'f8'
p9
I0
I1
tp10
Rp11
(I3
S'<'
p12
NNNI-1
I-1
I0
tp13
bS"\xef\x17K~\x03\\'A"
p14
tp15
Rp16
ag7
(g11
S"\xaf\rt\xda\xa1o'A"
p17
tp18
Rp19
ag7
(g11
S'*""\xa2ot\'A'
p20
tp21
Rp22
ag7
(g11
S"\xc4\xbb\xbb;\x9dt'A"
p23
tp24
Rp25
ag7
(g11
S"\x93\x88\x88(\x86J'A"
p26
tp27
Rp28
ag7
(g11
S"\xd2\x92_\xecHT'A"
p29
tp30
Rp31
ag7
(g11
S"\x7fww\xd7\xcdy'A"
p32
tp33
Rp34
ag7
(g11
S"\xe4z\x14nZj'A"
p35
tp36
Rp37
ag7
(g11
S"\xdd\xa3p}\xd8{'A"
p38
tp39
Rp40
ag7
(g11
S"j\xc9/\x16Hd'A"
p41
tp42
Rp43
ag7
(g11
S'5\xf9\xc5R"j\'A'
p44
tp45
Rp46
ag7
(g11
S"\xa2\x99\x99\x99\xa2~'A"
p47
tp48
Rp49
ag7
(g11
S"*\xbfX\xd21d'A"
p50
tp51
Rp52
ag7
(g11
S"\xba\xe4\x17kIy'A"
p53
tp54
Rp55
ag7
(g11
S"\xb3G\xe1\xba-o'A"
p56
tp57
Rp58
ag7
(g11
S'"\xaeG\x01\x8cT\'A'
p59
tp60
Rp61
ag7
(g11
S"\x9a%\xbf\x18\xcb]'A"
p62
tp63
Rp64
ag7
(g11
S"\x97\xc2\xf5\x08\x17u'A"
p65
tp66
Rp67
ag7
(g11
S"\xe4\xdd\xdd\xfd\x1c\x83'A"
p68
tp69
Rp70
ag7
(g11
S"\xe8z\x14N\x1a\x7f'A"
p71
tp72
Rp73
asss.