(dp0
S'../Data/sac_8.csv'
p1
(dp2
S'../Data/sac_7.csv'
p3
(dp4
S'rank'
p5
(lp6
I448
aI448
aI448
aI448
aI448
aI448
aI448
aI448
aI448
aI448
aI448
aI448
aI448
aI448
aI448
aI448
aI448
aI448
aI448
aI448
asss.