(dp0
S'../Data/sac_6.csv'
p1
(dp2
S'../Data/sac_4.csv'
p3
(dp4
S'abs_res'
p5
(lp6
cnumpy.core.multiarray
scalar
p7
(cnumpy
dtype
p8
(S'f8'
p9
I0
I1
tp10
Rp11
(I3
S'<'
p12
NNNI-1
I-1
I0
tp13
bS'\xbb%\xbfx\xdbo,A'
p14
tp15
Rp16
ag7
(g11
S'FK~\x11\xd3Y,A'
p17
tp18
Rp19
ag7
(g11
S'\xdaG\xe1:\xbfo,A'
p20
tp21
Rp22
ag7
(g11
S'!\x8c%?\x83j,A'
p23
tp24
Rp25
ag7
(g11
S'\x05\xa4p\x9d\xee_,A'
p26
tp27
Rp28
ag7
(g11
S'\xb2N\x1b\xc8\x84`,A'
p29
tp30
Rp31
ag7
(g11
S'\x14\x18K^5y,A'
p32
tp33
Rp34
ag7
(g11
S'W\\\x8f\x82\xcb`,A'
p35
tp36
Rp37
ag7
(g11
S'\xd4p=j\x96o,A'
p38
tp39
Rp40
ag7
(g11
S'\xed\xf5(\xfc\xf3w,A'
p41
tp42
Rp43
ag7
(g11
S'3\x9d6\xb0\xc4n,A'
p44
tp45
Rp46
ag7
(g11
S'\xd0\xd3\x06\xfa\xcfp,A'
p47
tp48
Rp49
ag7
(g11
S'V\\\x8f"\xb3n,A'
p50
tp51
Rp52
ag7
(g11
S'\x8d,\xf9\xc5\x85R,A'
p53
tp54
Rp55
ag7
(g11
S"`33s'p,A"
p56
tp57
Rp58
ag7
(g11
S'+c\xc9/Oo,A'
p59
tp60
Rp61
ag7
(g11
S'{\x1b\xe8t(R,A'
p62
tp63
Rp64
ag7
(g11
S'IK~\x11\xd6a,A'
p65
tp66
Rp67
ag7
(g11
S'\xe3\x81N\xbb*J,A'
p68
tp69
Rp70
ag7
(g11
S'\x91,\xf9%\x00x,A'
p71
tp72
Rp73
asss.