(dp0
S'../Data/sac_8.csv'
p1
(dp2
S'../Data/sac_4.csv'
p3
(dp4
S'abs_res'
p5
(lp6
cnumpy.core.multiarray
scalar
p7
(cnumpy
dtype
p8
(S'f8'
p9
I0
I1
tp10
Rp11
(I3
S'<'
p12
NNNI-1
I-1
I0
tp13
bS'\x19\x85\xeb\xa1I;1A'
p14
tp15
Rp16
ag7
(g11
S'\x06\xd7\xa3`\xc081A'
p17
tp18
Rp19
ag7
(g11
S']\xc9/\xf6\xbe:1A'
p20
tp21
Rp22
ag7
(g11
S'\x9c6\xd0\xa9sN1A'
p23
tp24
Rp25
ag7
(g11
S'6m\xa0\x83\xbd?1A'
p26
tp27
Rp28
ag7
(g11
S't\x14\xaew\x1e<1A'
p29
tp30
Rp31
ag7
(g11
S'\xae\xe4\x17{B;1A'
p32
tp33
Rp34
ag7
(g11
S'ADDt`?1A'
p35
tp36
Rp37
ag7
(g11
S'\xfe\x9c6\x00.A1A'
p38
tp39
Rp40
ag7
(g11
S'\xc4/\x96\xcc\xe5>1A'
p41
tp42
Rp43
ag7
(g11
S'\xdez\x14.\x89B1A'
p44
tp45
Rp46
ag7
(g11
S'\x11K~Q\xe8@1A'
p47
tp48
Rp49
ag7
(g11
S'\x0ct\xda\xb0PM1A'
p50
tp51
Rp52
ag7
(g11
S'@DD\x04\xf251A'
p53
tp54
Rp55
ag7
(g11
S'\x00\x9d6\x10\x17Q1A'
p56
tp57
Rp58
ag7
(g11
S'\x0bt\xda\xf0\x0f@1A'
p59
tp60
Rp61
ag7
(g11
S'\x8e\xc2\xf5\x08UJ1A'
p62
tp63
Rp64
ag7
(g11
S'\x10\xaeG\x11p51A'
p65
tp66
Rp67
ag7
(g11
S'\x05:m\xd0\xc4>1A'
p68
tp69
Rp70
ag7
(g11
S'\x92_,YlI1A'
p71
tp72
Rp73
asss.