(dp0
S'../Data/sac_6.csv'
p1
(dp2
S'../Data/sac_4.csv'
p3
(dp4
S'abs_res'
p5
(lp6
cnumpy.core.multiarray
scalar
p7
(cnumpy
dtype
p8
(S'f8'
p9
I0
I1
tp10
Rp11
(I3
S'<'
p12
NNNI-1
I-1
I0
tp13
bS'o\xa7\r\xb4\xa2c,A'
p14
tp15
Rp16
ag7
(g11
S"\xa5\xda@'[a,A"
p17
tp18
Rp19
ag7
(g11
S'\xf1X\xf2\x8b\x94I,A'
p20
tp21
Rp22
ag7
(g11
S'\xc1\xc2\xf5\xc8\xa5o,A'
p23
tp24
Rp25
ag7
(g11
S'H\xe8\xb4\xc1\xf9J,A'
p26
tp27
Rp28
ag7
(g11
S'\xb6\x88\x88\xe8\xe4i,A'
p29
tp30
Rp31
ag7
(g11
S'\x81\xb8\x1e%\x82J,A'
p32
tp33
Rp34
ag7
(g11
S'o\xa7\r4\x04K,A'
p35
tp36
Rp37
ag7
(g11
S'Z\\\x8f\xa2t`,A'
p38
tp39
Rp40
ag7
(g11
S'9t\xda\x802J,A'
p41
tp42
Rp43
ag7
(g11
S'\xf4/\x96\x9c\xa8a,A'
p44
tp45
Rp46
ag7
(g11
S'`\x96\xfc\xc2\xf2j,A'
p47
tp48
Rp49
ag7
(g11
S'\x8d,\xf9%\xddo,A'
p50
tp51
Rp52
ag7
(g11
S'\xa5wwW `,A'
p53
tp54
Rp55
ag7
(g11
S'=t\xda\xe0]w,A'
p56
tp57
Rp58
ag7
(g11
S'\xb0\xb1\xe4\xf7\x87J,A'
p59
tp60
Rp61
ag7
(g11
S'\xad\xb1\xe4\x97\x98o,A'
p62
tp63
Rp64
ag7
(g11
S'\r\xde\xdd\x1d\xe0^,A'
p65
tp66
Rp67
ag7
(g11
S'\x8f,\xf9\x05Gn,A'
p68
tp69
Rp70
ag7
(g11
S'u\xa7\r4\xfaH,A'
p71
tp72
Rp73
asss.