(dp0
S'../Data/storm-obj2_feature7.csv'
p1
(dp2
S'../Data/storm-obj2_feature6.csv'
p3
(dp4
F0.3
(dp5
S'rank'
p6
(dp7
S'bellwether'
p8
(lp9
I1
aI1
aI1
aI67
aI0
aI1
aI1
aI1
aI1
aI0
aI1
aI1
aI1
aI1
aI1
aI1
aI0
aI1
aI1
aI1
asS'target'
p10
(lp11
I1
aI3
aI1
aI1
aI130
aI12
aI2
aI2
aI52
aI125
aI1
aI4
aI1
aI1
aI1
aI1
aI143
aI8
aI4
aI1
asssss.