(dp0
S'../Data/storm-obj2_feature7.csv'
p1
(dp2
S'../Data/storm-obj2_feature8.csv'
p3
(dp4
F0.1
(dp5
S'rank'
p6
(dp7
S'bellwether'
p8
(lp9
I176
aI141
aI147
aI141
aI171
aI145
aI138
aI138
aI137
aI146
aI168
aI141
aI145
aI139
aI150
aI138
aI145
aI143
aI146
aI141
asS'target'
p10
(lp11
I2
aI3
aI1
aI8
aI2
aI19
aI14
aI4
aI5
aI4
aI225
aI6
aI1
aI4
aI16
aI51
aI4
aI5
aI1
aI7
asssss.