(dp0
S'../Data/storm-obj2_feature7.csv'
p1
(dp2
S'../Data/storm-obj2_feature8.csv'
p3
(dp4
S'abs_res'
p5
(lp6
cnumpy.core.multiarray
scalar
p7
(cnumpy
dtype
p8
(S'f8'
p9
I0
I1
tp10
Rp11
(I3
S'<'
p12
NNNI-1
I-1
I0
tp13
bS'Kv\xa2\xf1cTV@'
p14
tp15
Rp16
ag7
(g11
S'\xa7x\xfaU\xc8WV@'
p17
tp18
Rp19
ag7
(g11
S'\xf3V4\x93\x0fcV@'
p20
tp21
Rp22
ag7
(g11
S'\xd81.?\x0fXV@'
p23
tp24
Rp25
ag7
(g11
S'8K*>\xb5VV@'
p26
tp27
Rp28
ag7
(g11
S'\xd5\xbe%6(cV@'
p29
tp30
Rp31
ag7
(g11
S' \x10NW\x17cV@'
p32
tp33
Rp34
ag7
(g11
S'\t*\xfa)eeV@'
p35
tp36
Rp37
ag7
(g11
S'\xe5\xb4T\x1fpVV@'
p38
tp39
Rp40
ag7
(g11
S'\x88\x82Vt\xe2bV@'
p41
tp42
Rp43
ag7
(g11
S'\xa9x\xfaU\xc8WV@'
p44
tp45
Rp46
ag7
(g11
S'\xe9\x9bRs\x88aV@'
p47
tp48
Rp49
ag7
(g11
S'\xeb\x81l\x8adTV@'
p50
tp51
Rp52
ag7
(g11
S'8\x1e\xa7\x8f\xb5VV@'
p53
tp54
Rp55
ag7
(g11
S'{\xb0\xdd2\xbcVV@'
p56
tp57
Rp58
ag7
(g11
S'\x14M\xd8t\xf5WV@'
p59
tp60
Rp61
ag7
(g11
S'\xc4\xd4\x9c\xca\xeaVV@'
p62
tp63
Rp64
ag7
(g11
S'X\x00\xbf\xab\xbdVV@'
p65
tp66
Rp67
ag7
(g11
S'\xef\xe34\x13$dV@'
p68
tp69
Rp70
ag7
(g11
S'\x1d\xc1\x15\x1b\x91UV@'
p71
tp72
Rp73
ag7
(g11
S'w>\xbf\x14pUV@'
p74
tp75
Rp76
ag7
(g11
S'\x7f\x1eg\xcc\x9dUV@'
p77
tp78
Rp79
ag7
(g11
S'\x15M\xd8t\xf5WV@'
p80
tp81
Rp82
ag7
(g11
S']\xfbH\xc5\xb3VV@'
p83
tp84
Rp85
ag7
(g11
S'\x19\xb1\xc7\x1c:eV@'
p86
tp87
Rp88
ag7
(g11
S'\xed)\xb1\xe4\x0fcV@'
p89
tp90
Rp91
ag7
(g11
S'\xc9\xcc\xd7\x1c\\TV@'
p92
tp93
Rp94
ag7
(g11
S'O\x892>\x9dVV@'
p95
tp96
Rp97
ag7
(g11
S'0\xed\xa6G\xc0`V@'
p98
tp99
Rp100
ag7
(g11
S'\xd8Z\n\xdb\x9aVV@'
p101
tp102
Rp103
asss.