(dp0
S'../Data/storm-obj2_feature7.csv'
p1
(dp2
S'../Data/storm-obj2_feature6.csv'
p3
(dp4
S'abs_res'
p5
(lp6
cnumpy.core.multiarray
scalar
p7
(cnumpy
dtype
p8
(S'f8'
p9
I0
I1
tp10
Rp11
(I3
S'<'
p12
NNNI-1
I-1
I0
tp13
bS"\xc4\xe8'\xce\x16Bb@"
p14
tp15
Rp16
ag7
(g11
S'}k\xe6\xbc\xb3Eb@'
p17
tp18
Rp19
ag7
(g11
S'=H\x8d{\x1aBb@'
p20
tp21
Rp22
ag7
(g11
S'\xd2\x98W\xf7\xf9>b@'
p23
tp24
Rp25
ag7
(g11
S'\xc6\n\xdf\xf9\x17<b@'
p26
tp27
Rp28
ag7
(g11
S'\xe0\xf0d\xe9\xafDb@'
p29
tp30
Rp31
ag7
(g11
S'v!\xfb\xc7_;b@'
p32
tp33
Rp34
ag7
(g11
S'\x0b\x99\xdc \xf4<b@'
p35
tp36
Rp37
ag7
(g11
S'\xad\x9bB8NAb@'
p38
tp39
Rp40
ag7
(g11
S'\x07\x98\xf0\r\xed;b@'
p41
tp42
Rp43
ag7
(g11
S'\xd3;_V\xa4Eb@'
p44
tp45
Rp46
ag7
(g11
S'\x9f\xa4v\xc3\xb0Bb@'
p47
tp48
Rp49
ag7
(g11
S'\x81\xfd\xe8\xda\x82@b@'
p50
tp51
Rp52
ag7
(g11
S'\xf3\x18.\x912;b@'
p53
tp54
Rp55
ag7
(g11
S'\\pR\x81I;b@'
p56
tp57
Rp58
ag7
(g11
S'\xed\x07\r\xb1\xdd>b@'
p59
tp60
Rp61
ag7
(g11
S'\x81\xe4(\xfe\x93Eb@'
p62
tp63
Rp64
ag7
(g11
S'\xfe\x15Z \x05<b@'
p65
tp66
Rp67
ag7
(g11
S'H\x1c\xd2\x00\xb3?b@'
p68
tp69
Rp70
ag7
(g11
S'\\\xdbd?\xa8>b@'
p71
tp72
Rp73
ag7
(g11
S'B\xa6\x16\x95\x1a=b@'
p74
tp75
Rp76
ag7
(g11
S'\x1e>\xd1\x1du@b@'
p77
tp78
Rp79
ag7
(g11
S'\x990Y\x03\xe2;b@'
p80
tp81
Rp82
ag7
(g11
S'\xfd\xcf4\xa4T<b@'
p83
tp84
Rp85
ag7
(g11
S':\xc2\xfb\x12/<b@'
p86
tp87
Rp88
ag7
(g11
S'*\xe0%!\x0b<b@'
p89
tp90
Rp91
ag7
(g11
S'\x02p.\xe3\x86Ab@'
p92
tp93
Rp94
ag7
(g11
S'\x17\xae\xcb\xf6\x08;b@'
p95
tp96
Rp97
ag7
(g11
S'l\xd7<S\xdd?b@'
p98
tp99
Rp100
ag7
(g11
S'3\xdf7qU?b@'
p101
tp102
Rp103
asss.