(dp0
S'../Data/storm-obj2_feature7.csv'
p1
(dp2
S'../Data/storm-obj2_feature8.csv'
p3
(dp4
S'rank'
p5
(lp6
I37
aI37
aI37
aI37
aI37
aI37
aI37
aI37
aI37
aI37
aI37
aI37
aI37
aI37
aI37
aI37
aI37
aI37
aI37
aI37
aI37
aI37
aI37
aI37
aI37
aI37
aI37
aI37
aI37
aI37
asss.