(dp0
S'../Data/storm-obj2_feature6.csv'
p1
(dp2
S'../Data/storm-obj2_feature7.csv'
p3
(dp4
S'abs_res'
p5
(lp6
cnumpy.core.multiarray
scalar
p7
(cnumpy
dtype
p8
(S'f8'
p9
I0
I1
tp10
Rp11
(I3
S'<'
p12
NNNI-1
I-1
I0
tp13
bS'\xc1\xe1\x82\xf3\x1c:\\@'
p14
tp15
Rp16
ag7
(g11
S'p\x82\xb2\xb4{B\\@'
p17
tp18
Rp19
ag7
(g11
S'\xd5\xa9\x84\xcb49\\@'
p20
tp21
Rp22
ag7
(g11
S'\x84J\xb4\x8c\x93A\\@'
p23
tp24
Rp25
ag7
(g11
S'\xe2W\xe9\x11#B\\@'
p26
tp27
Rp28
ag7
(g11
S'i8\xfb9\xb1:\\@'
p29
tp30
Rp31
ag7
(g11
S'\xcd\x9c\x97qL;\\@'
p32
tp33
Rp34
ag7
(g11
S'?r\xce\xce\xf3:\\@'
p35
tp36
Rp37
ag7
(g11
S'\xf7b\xc4\xdc\t;\\@'
p38
tp39
Rp40
ag7
(g11
S'\xf7%m\xa67B\\@'
p41
tp42
Rp43
ag7
(g11
S'd\x04\xf5l\x1e:\\@'
p44
tp45
Rp46
ag7
(g11
S'Z\x84\x87!\xd6A\\@'
p47
tp48
Rp49
ag7
(g11
S'\xcd\x9c\x97qL;\\@'
p50
tp51
Rp52
ag7
(g11
S'\xed\xe2V\x91\xc1B\\@'
p53
tp54
Rp55
ag7
(g11
S'\x7f6&\xcdV;\\@'
p56
tp57
Rp58
ag7
(g11
S'\xce\xcc>p\xdd;\\@'
p59
tp60
Rp61
ag7
(g11
S"\xe1'B\x13\x92A\\@"
p62
tp63
Rp64
ag7
(g11
S'\xb7\x9el\xde\xa6:\\@'
p65
tp66
Rp67
ag7
(g11
S'\xf7%m\xa67B\\@'
p68
tp69
Rp70
ag7
(g11
S'\xc1\xe1\x82\xf3\x1c:\\@'
p71
tp72
Rp73
ag7
(g11
S'p\xbf\t\xebM;\\@'
p74
tp75
Rp76
ag7
(g11
S'\xf7b\xc4\xdc\t;\\@'
p77
tp78
Rp79
ag7
(g11
S'\xab\xe3W`w9\\@'
p80
tp81
Rp82
ag7
(g11
S'I\xb5\xe4\xe3i:\\@'
p83
tp84
Rp85
ag7
(g11
S'0\xfb\xb1\xec\xea:\\@'
p86
tp87
Rp88
ag7
(g11
S'\x0b\xeen~OA\\@'
p89
tp90
Rp91
ag7
(g11
S'f?\x9c\x9f\x05C\\@'
p92
tp93
Rp94
ag7
(g11
S'\xab\xe3W`w9\\@'
p95
tp96
Rp97
ag7
(g11
S'\x18\xd9*\xfb\x0fC\\@'
p98
tp99
Rp100
ag7
(g11
S'\xcd\x9c\x97qL;\\@'
p101
tp102
Rp103
asss.