(dp0
S'../Data/sqlite_88.csv'
p1
(dp2
S'../Data/sqlite_57.csv'
p3
(dp4
S'rank'
p5
(lp6
I247
aI247
aI247
aI247
aI247
aI247
aI247
aI247
aI247
aI247
aI247
aI247
aI247
aI247
aI247
aI247
aI247
aI247
aI247
aI247
asss.