(dp0
S'../Data/sqlite_32.csv'
p1
(dp2
S'../Data/sqlite_81.csv'
p3
(dp4
S'rank'
p5
(lp6
I316
aI316
aI316
aI316
aI316
aI316
aI316
aI316
aI316
aI316
aI316
aI316
aI316
aI316
aI316
aI316
aI316
aI316
aI316
aI316
asss.