(dp0
S'../Data/sqlite_33.csv'
p1
(dp2
S'../Data/sqlite_3.csv'
p3
(dp4
S'rank'
p5
(lp6
I58
aI58
aI58
aI58
aI58
aI58
aI58
aI58
aI58
aI58
aI58
aI58
aI58
aI58
aI58
aI58
aI58
aI58
aI58
aI58
aI58
aI58
aI58
aI58
aI58
aI58
aI58
aI58
aI58
aI58
asss.