(dp0
S'../Data/sqlite_94.csv'
p1
(dp2
S'../Data/sqlite_32.csv'
p3
(dp4
S'rank'
p5
(lp6
I664
aI664
aI664
aI664
aI664
aI664
aI664
aI664
aI664
aI664
aI664
aI664
aI664
aI664
aI664
aI664
aI664
aI664
aI664
aI664
asss.