(dp0
S'../Data/sqlite_81.csv'
p1
(dp2
S'../Data/sqlite_85.csv'
p3
(dp4
S'mmre'
p5
(lp6
cnumpy.core.multiarray
scalar
p7
(cnumpy
dtype
p8
(S'f8'
p9
I0
I1
tp10
Rp11
(I3
S'<'
p12
NNNI-1
I-1
I0
tp13
bS'\x9c->\xf9)\xfcV@'
p14
tp15
Rp16
ag7
(g11
S'\x9c->\xf9)\xfcV@'
p17
tp18
Rp19
ag7
(g11
S'\x9c->\xf9)\xfcV@'
p20
tp21
Rp22
ag7
(g11
S'\x9c->\xf9)\xfcV@'
p23
tp24
Rp25
ag7
(g11
S'\x9c->\xf9)\xfcV@'
p26
tp27
Rp28
ag7
(g11
S'\x9c->\xf9)\xfcV@'
p29
tp30
Rp31
ag7
(g11
S'\x9c->\xf9)\xfcV@'
p32
tp33
Rp34
ag7
(g11
S'\x9c->\xf9)\xfcV@'
p35
tp36
Rp37
ag7
(g11
S'\x9c->\xf9)\xfcV@'
p38
tp39
Rp40
ag7
(g11
S'\x9c->\xf9)\xfcV@'
p41
tp42
Rp43
ag7
(g11
S'\x9c->\xf9)\xfcV@'
p44
tp45
Rp46
ag7
(g11
S'\x9c->\xf9)\xfcV@'
p47
tp48
Rp49
ag7
(g11
S'\x9c->\xf9)\xfcV@'
p50
tp51
Rp52
ag7
(g11
S'\x9c->\xf9)\xfcV@'
p53
tp54
Rp55
ag7
(g11
S'\x9c->\xf9)\xfcV@'
p56
tp57
Rp58
ag7
(g11
S'\x9c->\xf9)\xfcV@'
p59
tp60
Rp61
ag7
(g11
S'\x9c->\xf9)\xfcV@'
p62
tp63
Rp64
ag7
(g11
S'\x9c->\xf9)\xfcV@'
p65
tp66
Rp67
ag7
(g11
S'\x9c->\xf9)\xfcV@'
p68
tp69
Rp70
ag7
(g11
S'\x9c->\xf9)\xfcV@'
p71
tp72
Rp73
asss.