(dp0
S'../Data/sqlite_33.csv'
p1
(dp2
S'../Data/sqlite_46.csv'
p3
(dp4
S'rank'
p5
(lp6
I56
aI56
aI56
aI56
aI56
aI56
aI56
aI56
aI56
aI56
aI56
aI56
aI56
aI56
aI56
aI56
aI56
aI56
aI56
aI56
aI56
aI56
aI56
aI56
aI56
aI56
aI56
aI56
aI56
aI56
asss.