(dp0
S'../Data/sqlite_70.csv'
p1
(dp2
S'../Data/sqlite_3.csv'
p3
(dp4
S'rank'
p5
(lp6
I70
aI70
aI70
aI70
aI70
aI70
aI70
aI70
aI70
aI70
aI70
aI70
aI70
aI70
aI70
aI70
aI70
aI70
aI70
aI70
aI70
aI70
aI70
aI70
aI70
aI70
aI70
aI70
aI70
aI70
asss.