(dp0
S'../Data/sqlite_32.csv'
p1
(dp2
S'../Data/sqlite_96.csv'
p3
(dp4
S'rank'
p5
(lp6
I284
aI284
aI284
aI284
aI284
aI284
aI284
aI284
aI284
aI284
aI284
aI284
aI284
aI284
aI284
aI284
aI284
aI284
aI284
aI284
asss.