(dp0
S'../Data/sqlite_46.csv'
p1
(dp2
S'../Data/sqlite_19.csv'
p3
(dp4
S'rank'
p5
(lp6
I11
aI11
aI11
aI11
aI11
aI11
aI11
aI11
aI11
aI11
aI11
aI11
aI11
aI11
aI11
aI11
aI11
aI11
aI11
aI11
aI11
aI11
aI11
aI11
aI11
aI11
aI11
aI11
aI11
aI11
asss.