(dp0
S'../Data/storm-obj1_feature6.csv'
p1
(dp2
S'../Data/storm-obj1_feature7.csv'
p3
(dp4
F0.05
(dp5
S'rank'
p6
(dp7
S'bellwether'
p8
(lp9
I1
aI1
aI1
aI72
aI1
aI1
aI1
aI1
aI1
aI1
aI1
aI1
aI1
aI1
aI1
aI1
aI1
aI1
aI1
aI1
asS'target'
p10
(lp11
I0
aI0
aI51
aI5
aI1
aI2
aI28
aI22
aI0
aI0
aI1
aI6
aI1
aI2
aI1
aI5
aI1
aI0
aI0
aI11
asssss.