(dp0
S'../Data/storm-obj1_feature6.csv'
p1
(dp2
S'../Data/storm-obj1_feature9.csv'
p3
(dp4
F0.25
(dp5
S'rank'
p6
(dp7
S'bellwether'
p8
(lp9
I9
aI9
aI10
aI9
aI298
aI304
aI9
aI292
aI9
aI5
aI9
aI295
aI9
aI419
aI7
aI11
aI9
aI7
aI7
aI8
asS'target'
p10
(lp11
I13
aI11
aI239
aI19
aI153
aI206
aI6
aI11
aI12
aI295
aI15
aI222
aI16
aI228
aI249
aI107
aI86
aI217
aI551
aI107
asssss.