(dp0
S'../Data/storm-obj1_feature8.csv'
p1
(dp2
S'../Data/storm-obj1_feature6.csv'
p3
(dp4
S'rank'
p5
(lp6
I405
aI405
aI405
aI405
aI405
aI405
aI405
aI405
aI405
aI405
aI405
aI405
aI405
aI405
aI405
aI405
aI405
aI405
aI405
aI405
aI405
aI405
aI405
aI405
aI405
aI405
aI405
aI405
aI405
aI405
asss.