(dp0
S'../Data/storm-obj1_feature9.csv'
p1
(dp2
S'../Data/storm-obj1_feature7.csv'
p3
(dp4
S'rank'
p5
(lp6
I310
aI310
aI310
aI310
aI310
aI310
aI310
aI310
aI310
aI310
aI310
aI310
aI310
aI310
aI310
aI310
aI310
aI310
aI310
aI310
aI310
aI310
aI310
aI310
aI310
aI310
aI310
aI310
aI310
aI310
asss.