(dp0
S'../Data/storm-obj1_feature6.csv'
p1
(dp2
S'../Data/storm-obj1_feature9.csv'
p3
(dp4
S'mmre'
p5
(lp6
cnumpy.core.multiarray
scalar
p7
(cnumpy
dtype
p8
(S'f8'
p9
I0
I1
tp10
Rp11
(I3
S'<'
p12
NNNI-1
I-1
I0
tp13
bS'\xce\xeb\xa3@F\xb7Z@'
p14
tp15
Rp16
ag7
(g11
S'\x8d\x11\xa1=&\xb7Z@'
p17
tp18
Rp19
ag7
(g11
S'\xab\xce\xf9K&\xb7Z@'
p20
tp21
Rp22
ag7
(g11
S'\xab\xce\xf9K&\xb7Z@'
p23
tp24
Rp25
ag7
(g11
S'm\x7f\x0f\x1dG\xb7Z@'
p26
tp27
Rp28
ag7
(g11
S'\x8d\x11\xa1=&\xb7Z@'
p29
tp30
Rp31
ag7
(g11
S'\x8d\x11\xa1=&\xb7Z@'
p32
tp33
Rp34
ag7
(g11
S"Kbe('\xb7Z@"
p35
tp36
Rp37
ag7
(g11
S'\xad.K2F\xb7Z@'
p38
tp39
Rp40
ag7
(g11
S'\x8c<h+G\xb7Z@'
p41
tp42
Rp43
ag7
(g11
S'\x8c<h+G\xb7Z@'
p44
tp45
Rp46
ag7
(g11
S'\xab\xce\xf9K&\xb7Z@'
p47
tp48
Rp49
ag7
(g11
S'\xad.K2F\xb7Z@'
p50
tp51
Rp52
ag7
(g11
S'\xad.K2F\xb7Z@'
p53
tp54
Rp55
ag7
(g11
S'\xce\xeb\xa3@F\xb7Z@'
p56
tp57
Rp58
ag7
(g11
S'\xab\xce\xf9K&\xb7Z@'
p59
tp60
Rp61
ag7
(g11
S'\xad.K2F\xb7Z@'
p62
tp63
Rp64
ag7
(g11
S'\xab\xce\xf9K&\xb7Z@'
p65
tp66
Rp67
ag7
(g11
S'\xab\xce\xf9K&\xb7Z@'
p68
tp69
Rp70
ag7
(g11
S'\xad.K2F\xb7Z@'
p71
tp72
Rp73
ag7
(g11
S'm\x7f\x0f\x1dG\xb7Z@'
p74
tp75
Rp76
ag7
(g11
S"k\x1f\xbe6'\xb7Z@"
p77
tp78
Rp79
ag7
(g11
S'\xab\xce\xf9K&\xb7Z@'
p80
tp81
Rp82
ag7
(g11
S'\x8d\x11\xa1=&\xb7Z@'
p83
tp84
Rp85
ag7
(g11
S"Kbe('\xb7Z@"
p86
tp87
Rp88
ag7
(g11
S'm\x7f\x0f\x1dG\xb7Z@'
p89
tp90
Rp91
ag7
(g11
S'\xce\xeb\xa3@F\xb7Z@'
p92
tp93
Rp94
ag7
(g11
S"Kbe('\xb7Z@"
p95
tp96
Rp97
ag7
(g11
S"k\x1f\xbe6'\xb7Z@"
p98
tp99
Rp100
ag7
(g11
S'\xab\xce\xf9K&\xb7Z@'
p101
tp102
Rp103
asss.