(dp0
S'../Data/storm-obj1_feature7.csv'
p1
(dp2
S'../Data/storm-obj1_feature9.csv'
p3
(dp4
S'mmre'
p5
(lp6
cnumpy.core.multiarray
scalar
p7
(cnumpy
dtype
p8
(S'f8'
p9
I0
I1
tp10
Rp11
(I3
S'<'
p12
NNNI-1
I-1
I0
tp13
bS'\xe69J\xd7\x17Wg@'
p14
tp15
Rp16
ag7
(g11
S'\xff/\x90\x8dFOg@'
p17
tp18
Rp19
ag7
(g11
S'\xf8\xb8\x82\xf4\xbfSg@'
p20
tp21
Rp22
ag7
(g11
S'\xb4\xa7<V\xb5Hg@'
p23
tp24
Rp25
ag7
(g11
S"\xe4\xb4\xc5J'Rg@"
p26
tp27
Rp28
ag7
(g11
S'Q\xd2ff\xbfMg@'
p29
tp30
Rp31
ag7
(g11
S'JW\x8c\xbeqOg@'
p32
tp33
Rp34
ag7
(g11
S'\xe0n*&5Jg@'
p35
tp36
Rp37
ag7
(g11
S'\xcc4\rB_Hg@'
p38
tp39
Rp40
ag7
(g11
S'k$\x0e\x13\xf5Tg@'
p41
tp42
Rp43
ag7
(g11
S'\xaf\xb7\xad\xd9\x88Qg@'
p44
tp45
Rp46
ag7
(g11
S'IE\x88\x1d\xfbOg@'
p47
tp48
Rp49
ag7
(g11
S'\x8c\xb3\r\ndMg@'
p50
tp51
Rp52
ag7
(g11
S'\x9en\xf7\x98\xc1Ng@'
p53
tp54
Rp55
ag7
(g11
S'\xc9RS\xdd\xa2Gg@'
p56
tp57
Rp58
ag7
(g11
S'\x8e\xb1\x1a\x8c\xc8Mg@'
p59
tp60
Rp61
ag7
(g11
S'\xbb\xa2\xeb\x06\xbaQg@'
p62
tp63
Rp64
ag7
(g11
S'/\x9d\x8b\xb3\xaaPg@'
p65
tp66
Rp67
ag7
(g11
S'\x16\xb2\xd2pmVg@'
p68
tp69
Rp70
ag7
(g11
S'\x05W\xd9\x0f\xf3Hg@'
p71
tp72
Rp73
ag7
(g11
S'<\xca\x15Q\xd4Tg@'
p74
tp75
Rp76
ag7
(g11
S'1\x10\x15\x91\x9cLg@'
p77
tp78
Rp79
ag7
(g11
S'\x86\xd8\xdd\xa9\xebPg@'
p80
tp81
Rp82
ag7
(g11
S'./\xe2\x11wKg@'
p83
tp84
Rp85
ag7
(g11
S'sW\xc3\xee\xe7Mg@'
p86
tp87
Rp88
ag7
(g11
S'\x8a\x8fJ\x0b5Tg@'
p89
tp90
Rp91
ag7
(g11
S'\xe8\x96=\x07\xe0Ug@'
p92
tp93
Rp94
ag7
(g11
S'\x00\x9d\xb7nBVg@'
p95
tp96
Rp97
ag7
(g11
S'\x95,\x17\xf4\xb5Vg@'
p98
tp99
Rp100
ag7
(g11
S'I)\x1b\xc6(Ng@'
p101
tp102
Rp103
asss.