(dp0
S'../Data/storm-obj1_feature7.csv'
p1
(dp2
S'../Data/storm-obj1_feature9.csv'
p3
(dp4
S'mmre'
p5
(lp6
cnumpy.core.multiarray
scalar
p7
(cnumpy
dtype
p8
(S'f8'
p9
I0
I1
tp10
Rp11
(I3
S'<'
p12
NNNI-1
I-1
I0
tp13
bS'\xe0\xd8\xe1\xf29bu@'
p14
tp15
Rp16
ag7
(g11
S'\xf4y\xca\x85)\\u@'
p17
tp18
Rp19
ag7
(g11
S'\xcc\x14\x84Tq\\u@'
p20
tp21
Rp22
ag7
(g11
S'\xf0\xa9\x1b\x03\xf1\\u@'
p23
tp24
Rp25
ag7
(g11
S'!\n\xb8(;\\u@'
p26
tp27
Rp28
ag7
(g11
S'\x9f)\x1bT\xb1]u@'
p29
tp30
Rp31
ag7
(g11
S"'\xf5@\xec&\\u@"
p32
tp33
Rp34
ag7
(g11
S'\x8eq\x05^\xc7]u@'
p35
tp36
Rp37
ag7
(g11
S'\xac\t$\xc5\xfaZu@'
p38
tp39
Rp40
ag7
(g11
S'\x8b\t\xd8#\x14bu@'
p41
tp42
Rp43
ag7
(g11
S'+\xf9\x97\xef\xe6\\u@'
p44
tp45
Rp46
ag7
(g11
S'\xac\xb3\n\xde\xbecu@'
p47
tp48
Rp49
ag7
(g11
S'dr~B\x82bu@'
p50
tp51
Rp52
ag7
(g11
S'|w\xc3\xb6\x8f]u@'
p53
tp54
Rp55
ag7
(g11
S'\x80\xd9\x1a\x85\xf7]u@'
p56
tp57
Rp58
ag7
(g11
S'b~\xea\x19\xc7^u@'
p59
tp60
Rp61
ag7
(g11
S'I\x9a\xb8\xc8\xa8^u@'
p62
tp63
Rp64
ag7
(g11
S'W\xd4\xad\xee\xf3\\u@'
p65
tp66
Rp67
ag7
(g11
S'H\xb6\xee\x01M]u@'
p68
tp69
Rp70
ag7
(g11
S'\xa6wQ\x89\x9bau@'
p71
tp72
Rp73
ag7
(g11
S"'\x12\xac\xb9\xc9Zu@"
p74
tp75
Rp76
ag7
(g11
S'\xd5)0\xd0H[u@'
p77
tp78
Rp79
ag7
(g11
S'\xfe3\x08\x18\xc0]u@'
p80
tp81
Rp82
ag7
(g11
S'\x81|_\xa4<[u@'
p83
tp84
Rp85
ag7
(g11
S'\x0c=x\xb9\x82[u@'
p86
tp87
Rp88
ag7
(g11
S'\x86\xe1e\x86c\\u@'
p89
tp90
Rp91
ag7
(g11
S'\x93\xc5\xfalDbu@'
p92
tp93
Rp94
ag7
(g11
S'\x9e\x91\x01;\xc3bu@'
p95
tp96
Rp97
ag7
(g11
S'\xa2\x895\xfbt]u@'
p98
tp99
Rp100
ag7
(g11
S'\xf7\xf2\xab\x81\x8b\\u@'
p101
tp102
Rp103
asss.