(dp0
S'../Data/sac_4.csv'
p1
(dp2
S'../Data/sac_5.csv'
p3
(dp4
F0.35
(dp5
S'rank'
p6
(dp7
S'bellwether'
p8
(lp9
I33
aI41
aI31
aI32
aI34
aI45
aI36
aI39
aI35
aI184
aI25
aI41
aI41
aI43
aI29
aI46
aI32
aI29
aI37
aI36
asS'target'
p10
(lp11
I0
aI3
aI10
aI9
aI7
aI6
aI1
aI0
aI9
aI0
aI1
aI3
aI11
aI8
aI1
aI1
aI1
aI9
aI13
aI1
asssss.