(dp0
S'sqlite'
p1
(lp2
(lp3
(lp4
S'../Data/sqlite_59.csv'
p5
aa(lp6
cnumpy.core.multiarray
scalar
p7
(cnumpy
dtype
p8
(S'f8'
p9
I0
I1
tp10
Rp11
(I3
S'<'
p12
NNNI-1
I-1
I0
tp13
bS'E\x9doi\xa1\x0e#@'
p14
tp15
Rp16
aaa(lp17
(lp18
S'../Data/sqlite_44.csv'
p19
aa(lp20
g7
(g11
S'\x13}\x8f\xac\xf9\xdf\x18@'
p21
tp22
Rp23
aaa(lp24
(lp25
S'../Data/sqlite_19.csv'
p26
aa(lp27
g7
(g11
S'\xdfz\x7f \xba\x8f3@'
p28
tp29
Rp30
aaa(lp31
(lp32
S'../Data/sqlite_18.csv'
p33
aa(lp34
g7
(g11
S'\xdayC\xf5)o\x16@'
p35
tp36
Rp37
aaa(lp38
(lp39
S'../Data/sqlite_17.csv'
p40
aa(lp41
g7
(g11
S'\x08\x98\x06?\x02\xfc\x1a@'
p42
tp43
Rp44
aaa(lp45
(lp46
S'../Data/sqlite_10.csv'
p47
aa(lp48
g7
(g11
S'\xd2V|\xa0\xce\xd20@'
p49
tp50
Rp51
aaa(lp52
(lp53
S'../Data/sqlite_73.csv'
p54
aa(lp55
g7
(g11
S'|P\xb9\xc1\xa7\xae1@'
p56
tp57
Rp58
aaa(lp59
(lp60
g19
aa(lp61
g7
(g11
S'\x13}\x8f\xac\xf9\xdf\x18@'
p62
tp63
Rp64
aaa(lp65
(lp66
S'../Data/sqlite_52.csv'
p67
aa(lp68
g7
(g11
S'\xe8\x8c\xbe\xeb\x08[0@'
p69
tp70
Rp71
aaa(lp72
(lp73
g26
aa(lp74
g7
(g11
S'\xdfz\x7f \xba\x8f3@'
p75
tp76
Rp77
aaa(lp78
(lp79
g54
aa(lp80
g7
(g11
S'|P\xb9\xc1\xa7\xae1@'
p81
tp82
Rp83
aaa(lp84
(lp85
g19
aa(lp86
g7
(g11
S'\x13}\x8f\xac\xf9\xdf\x18@'
p87
tp88
Rp89
aaa(lp90
(lp91
g19
aa(lp92
g7
(g11
S'\x13}\x8f\xac\xf9\xdf\x18@'
p93
tp94
Rp95
aaa(lp96
(lp97
g19
aa(lp98
g7
(g11
S'\x13}\x8f\xac\xf9\xdf\x18@'
p99
tp100
Rp101
aaa(lp102
(lp103
S'../Data/sqlite_11.csv'
p104
aa(lp105
g7
(g11
S'\xe2\x11\x8c\xdd\xdfY-@'
p106
tp107
Rp108
aaa(lp109
(lp110
g19
aa(lp111
g7
(g11
S'\x13}\x8f\xac\xf9\xdf\x18@'
p112
tp113
Rp114
aaa(lp115
(lp116
g67
aa(lp117
g7
(g11
S'\xe8\x8c\xbe\xeb\x08[0@'
p118
tp119
Rp120
aaa(lp121
(lp122
g5
aa(lp123
g7
(g11
S'E\x9doi\xa1\x0e#@'
p124
tp125
Rp126
aaa(lp127
(lp128
g54
aa(lp129
g7
(g11
S'|P\xb9\xc1\xa7\xae1@'
p130
tp131
Rp132
aaa(lp133
(lp134
g19
aa(lp135
g7
(g11
S'\x13}\x8f\xac\xf9\xdf\x18@'
p136
tp137
Rp138
aaasS'spear'
p139
(lp140
(lp141
(lp142
S'../Data/spear_7.csv'
p143
aa(lp144
g7
(g11
S'\x9a\x99\x99\x99\x99\x99\xe9?'
p145
tp146
Rp147
aaa(lp148
(lp149
g143
aa(lp150
g7
(g11
S'\x9a\x99\x99\x99\x99\x99\xe9?'
p151
tp152
Rp153
aaa(lp154
(lp155
g143
aa(lp156
g7
(g11
S'\x9a\x99\x99\x99\x99\x99\xe9?'
p157
tp158
Rp159
aaa(lp160
(lp161
g143
aa(lp162
g7
(g11
S'\x9a\x99\x99\x99\x99\x99\xe9?'
p163
tp164
Rp165
aaa(lp166
(lp167
S'../Data/spear_1.csv'
p168
aa(lp169
g7
(g11
S'\xe7\xeb\xae\xb0Gz\xf1?'
p170
tp171
Rp172
aaa(lp173
(lp174
g143
aa(lp175
g7
(g11
S'\x9a\x99\x99\x99\x99\x99\xe9?'
p176
tp177
Rp178
aaa(lp179
(lp180
g168
aa(lp181
g7
(g11
S'\xe7\xeb\xae\xb0Gz\xf1?'
p182
tp183
Rp184
aaa(lp185
(lp186
g168
aa(lp187
g7
(g11
S'\xe7\xeb\xae\xb0Gz\xf1?'
p188
tp189
Rp190
aaa(lp191
(lp192
g143
aa(lp193
g7
(g11
S'\x9a\x99\x99\x99\x99\x99\xe9?'
p194
tp195
Rp196
aaa(lp197
(lp198
g168
aa(lp199
g7
(g11
S'\xe7\xeb\xae\xb0Gz\xf1?'
p200
tp201
Rp202
aaa(lp203
(lp204
g168
aa(lp205
g7
(g11
S'\xe7\xeb\xae\xb0Gz\xf1?'
p206
tp207
Rp208
aaa(lp209
(lp210
g143
aa(lp211
g7
(g11
S'\x9a\x99\x99\x99\x99\x99\xe9?'
p212
tp213
Rp214
aaa(lp215
(lp216
g168
aa(lp217
g7
(g11
S'\xe7\xeb\xae\xb0Gz\xf1?'
p218
tp219
Rp220
aaa(lp221
(lp222
g143
aa(lp223
g7
(g11
S'\x9a\x99\x99\x99\x99\x99\xe9?'
p224
tp225
Rp226
aaa(lp227
(lp228
g143
aa(lp229
g7
(g11
S'\x9a\x99\x99\x99\x99\x99\xe9?'
p230
tp231
Rp232
aaa(lp233
(lp234
g143
aa(lp235
g7
(g11
S'\x9a\x99\x99\x99\x99\x99\xe9?'
p236
tp237
Rp238
aaa(lp239
(lp240
g143
aa(lp241
g7
(g11
S'\x9a\x99\x99\x99\x99\x99\xe9?'
p242
tp243
Rp244
aaa(lp245
(lp246
S'../Data/spear_8.csv'
p247
aa(lp248
g7
(g11
S'\xe4\x82\x0c@\xeb\xef\xb9?'
p249
tp250
Rp251
aaa(lp252
(lp253
g143
aa(lp254
g7
(g11
S'\x9a\x99\x99\x99\x99\x99\xe9?'
p255
tp256
Rp257
aaa(lp258
(lp259
g143
aa(lp260
g7
(g11
S'\x9a\x99\x99\x99\x99\x99\xe9?'
p261
tp262
Rp263
aaasS'sac'
p264
(lp265
(lp266
(lp267
S'../Data/sac_4.csv'
p268
aa(lp269
g7
(g11
S'nhK8J\x83\xee?'
p270
tp271
Rp272
aaa(lp273
(lp274
S'../Data/sac_2.csv'
p275
aa(lp276
g7
(g11
S'\xce\x1e\xcd\xa5\xed\xeeW@'
p277
tp278
Rp279
aaa(lp280
(lp281
g268
aa(lp282
g7
(g11
S'nhK8J\x83\xee?'
p283
tp284
Rp285
aaa(lp286
(lp287
g275
aa(lp288
g7
(g11
S'\xce\x1e\xcd\xa5\xed\xeeW@'
p289
tp290
Rp291
aaa(lp292
(lp293
g268
aa(lp294
g7
(g11
S'nhK8J\x83\xee?'
p295
tp296
Rp297
aaa(lp298
(lp299
S'../Data/sac_9.csv'
p300
aa(lp301
g7
(g11
S'\x87D\x8c\xe7\x97q\xe5?'
p302
tp303
Rp304
aaa(lp305
(lp306
g300
aa(lp307
g7
(g11
S'\x87D\x8c\xe7\x97q\xe5?'
p308
tp309
Rp310
aaa(lp311
(lp312
g300
aa(lp313
g7
(g11
S'\x87D\x8c\xe7\x97q\xe5?'
p314
tp315
Rp316
aaa(lp317
(lp318
g268
aa(lp319
g7
(g11
S'nhK8J\x83\xee?'
p320
tp321
Rp322
aaa(lp323
(lp324
g268
aa(lp325
g7
(g11
S'nhK8J\x83\xee?'
p326
tp327
Rp328
aaa(lp329
(lp330
g268
aa(lp331
g7
(g11
S'nhK8J\x83\xee?'
p332
tp333
Rp334
aaa(lp335
(lp336
g268
aa(lp337
g7
(g11
S'nhK8J\x83\xee?'
p338
tp339
Rp340
aaa(lp341
(lp342
g268
aa(lp343
g7
(g11
S'nhK8J\x83\xee?'
p344
tp345
Rp346
aaa(lp347
(lp348
g275
aa(lp349
g7
(g11
S'\xce\x1e\xcd\xa5\xed\xeeW@'
p350
tp351
Rp352
aaa(lp353
(lp354
g268
aa(lp355
g7
(g11
S'nhK8J\x83\xee?'
p356
tp357
Rp358
aaa(lp359
(lp360
g300
aa(lp361
g7
(g11
S'\x87D\x8c\xe7\x97q\xe5?'
p362
tp363
Rp364
aaa(lp365
(lp366
g275
aa(lp367
g7
(g11
S'\xce\x1e\xcd\xa5\xed\xeeW@'
p368
tp369
Rp370
aaa(lp371
(lp372
g268
aa(lp373
g7
(g11
S'nhK8J\x83\xee?'
p374
tp375
Rp376
aaa(lp377
(lp378
g300
aa(lp379
g7
(g11
S'\x87D\x8c\xe7\x97q\xe5?'
p380
tp381
Rp382
aaa(lp383
(lp384
g275
aa(lp385
g7
(g11
S'\xce\x1e\xcd\xa5\xed\xeeW@'
p386
tp387
Rp388
aaasS'storm-obj2'
p389
(lp390
(lp391
(lp392
S'../Data/storm-obj2_feature9.csv'
p393
aa(lp394
g7
(g11
S'f/\x9d\xfc\x80{\xc5?'
p395
tp396
Rp397
aaa(lp398
(lp399
g393
aa(lp400
g7
(g11
S'f/\x9d\xfc\x80{\xc5?'
p401
tp402
Rp403
aaa(lp404
(lp405
g393
aa(lp406
g7
(g11
S'f/\x9d\xfc\x80{\xc5?'
p407
tp408
Rp409
aaa(lp410
(lp411
g393
aa(lp412
g7
(g11
S'f/\x9d\xfc\x80{\xc5?'
p413
tp414
Rp415
aaa(lp416
(lp417
g393
aa(lp418
g7
(g11
S'f/\x9d\xfc\x80{\xc5?'
p419
tp420
Rp421
aaa(lp422
(lp423
g393
aa(lp424
g7
(g11
S'f/\x9d\xfc\x80{\xc5?'
p425
tp426
Rp427
aaa(lp428
(lp429
g393
aa(lp430
g7
(g11
S'f/\x9d\xfc\x80{\xc5?'
p431
tp432
Rp433
aaa(lp434
(lp435
g393
aa(lp436
g7
(g11
S'f/\x9d\xfc\x80{\xc5?'
p437
tp438
Rp439
aaa(lp440
(lp441
g393
aa(lp442
g7
(g11
S'f/\x9d\xfc\x80{\xc5?'
p443
tp444
Rp445
aaa(lp446
(lp447
g393
aa(lp448
g7
(g11
S'f/\x9d\xfc\x80{\xc5?'
p449
tp450
Rp451
aaa(lp452
(lp453
g393
aa(lp454
g7
(g11
S'f/\x9d\xfc\x80{\xc5?'
p455
tp456
Rp457
aaa(lp458
(lp459
g393
aa(lp460
g7
(g11
S'f/\x9d\xfc\x80{\xc5?'
p461
tp462
Rp463
aaa(lp464
(lp465
g393
aa(lp466
g7
(g11
S'f/\x9d\xfc\x80{\xc5?'
p467
tp468
Rp469
aaa(lp470
(lp471
g393
aa(lp472
g7
(g11
S'f/\x9d\xfc\x80{\xc5?'
p473
tp474
Rp475
aaa(lp476
(lp477
g393
aa(lp478
g7
(g11
S'f/\x9d\xfc\x80{\xc5?'
p479
tp480
Rp481
aaa(lp482
(lp483
g393
aa(lp484
g7
(g11
S'f/\x9d\xfc\x80{\xc5?'
p485
tp486
Rp487
aaa(lp488
(lp489
g393
aa(lp490
g7
(g11
S'f/\x9d\xfc\x80{\xc5?'
p491
tp492
Rp493
aaa(lp494
(lp495
g393
aa(lp496
g7
(g11
S'f/\x9d\xfc\x80{\xc5?'
p497
tp498
Rp499
aaa(lp500
(lp501
g393
aa(lp502
g7
(g11
S'f/\x9d\xfc\x80{\xc5?'
p503
tp504
Rp505
aaa(lp506
(lp507
g393
aa(lp508
g7
(g11
S'f/\x9d\xfc\x80{\xc5?'
p509
tp510
Rp511
aaasS'storm-obj1'
p512
(lp513
(lp514
(lp515
S'../Data/storm-obj1_feature9.csv'
p516
aa(lp517
g7
(g11
S'\x1a\xbe\xa1\xe0\x1f)<@'
p518
tp519
Rp520
aaa(lp521
(lp522
S'../Data/storm-obj1_feature8.csv'
p523
aa(lp524
g7
(g11
S'\xf9@kZ\xe0\xd7%@'
p525
tp526
Rp527
aaa(lp528
(lp529
g523
aa(lp530
g7
(g11
S'\xf9@kZ\xe0\xd7%@'
p531
tp532
Rp533
aaa(lp534
(lp535
g523
aa(lp536
g7
(g11
S'\xf9@kZ\xe0\xd7%@'
p537
tp538
Rp539
aaa(lp540
(lp541
g523
aa(lp542
g7
(g11
S'\xf9@kZ\xe0\xd7%@'
p543
tp544
Rp545
aaa(lp546
(lp547
g523
aa(lp548
g7
(g11
S'\xf9@kZ\xe0\xd7%@'
p549
tp550
Rp551
aaa(lp552
(lp553
g523
aa(lp554
g7
(g11
S'\xf9@kZ\xe0\xd7%@'
p555
tp556
Rp557
aaa(lp558
(lp559
g523
aa(lp560
g7
(g11
S'\xf9@kZ\xe0\xd7%@'
p561
tp562
Rp563
aaa(lp564
(lp565
g523
aa(lp566
g7
(g11
S'\xf9@kZ\xe0\xd7%@'
p567
tp568
Rp569
aaa(lp570
(lp571
g523
aa(lp572
g7
(g11
S'\xf9@kZ\xe0\xd7%@'
p573
tp574
Rp575
aaa(lp576
(lp577
g523
aa(lp578
g7
(g11
S'\xf9@kZ\xe0\xd7%@'
p579
tp580
Rp581
aaa(lp582
(lp583
g523
aa(lp584
g7
(g11
S'\xf9@kZ\xe0\xd7%@'
p585
tp586
Rp587
aaa(lp588
(lp589
g523
aa(lp590
g7
(g11
S'\xf9@kZ\xe0\xd7%@'
p591
tp592
Rp593
aaa(lp594
(lp595
g523
aa(lp596
g7
(g11
S'\xf9@kZ\xe0\xd7%@'
p597
tp598
Rp599
aaa(lp600
(lp601
g516
aa(lp602
g7
(g11
S'\x1a\xbe\xa1\xe0\x1f)<@'
p603
tp604
Rp605
aaa(lp606
(lp607
g516
aa(lp608
g7
(g11
S'\x1a\xbe\xa1\xe0\x1f)<@'
p609
tp610
Rp611
aaa(lp612
(lp613
g523
aa(lp614
g7
(g11
S'\xf9@kZ\xe0\xd7%@'
p615
tp616
Rp617
aaa(lp618
(lp619
g523
aa(lp620
g7
(g11
S'\xf9@kZ\xe0\xd7%@'
p621
tp622
Rp623
aaa(lp624
(lp625
g523
aa(lp626
g7
(g11
S'\xf9@kZ\xe0\xd7%@'
p627
tp628
Rp629
aaa(lp630
(lp631
S'../Data/storm-obj1_feature7.csv'
p632
aa(lp633
g7
(g11
S'\x82\n\x94\x9f3KH@'
p634
tp635
Rp636
aaasS'x264'
p637
(lp638
(lp639
(lp640
S'../Data/x264_11.csv'
p641
aa(lp642
g7
(g11
S'\x1cQ\xc7\xca#dE@'
p643
tp644
Rp645
aaa(lp646
(lp647
g641
aa(lp648
g7
(g11
S'\x1cQ\xc7\xca#dE@'
p649
tp650
Rp651
aaa(lp652
(lp653
S'../Data/x264_9.csv'
p654
aa(lp655
g7
(g11
S'\xc9n%F\x8e\xe0@@'
p656
tp657
Rp658
aaa(lp659
(lp660
S'../Data/x264_10.csv'
p661
aa(lp662
g7
(g11
S'hy\xc53\xf9 F@'
p663
tp664
Rp665
aaa(lp666
(lp667
g641
aa(lp668
g7
(g11
S'\x1cQ\xc7\xca#dE@'
p669
tp670
Rp671
aaa(lp672
(lp673
g641
aa(lp674
g7
(g11
S'\x1cQ\xc7\xca#dE@'
p675
tp676
Rp677
aaa(lp678
(lp679
S'../Data/x264_8.csv'
p680
aa(lp681
g7
(g11
S'\x1cQ\xc7\xca#dE@'
p682
tp683
Rp684
aaa(lp685
(lp686
S'../Data/x264_14.csv'
p687
aa(lp688
g7
(g11
S'ff\xb2\x95\xb7\xf4;@'
p689
tp690
Rp691
aaa(lp692
(lp693
S'../Data/x264_5.csv'
p694
aa(lp695
g7
(g11
S'\xb9\x82\x8d\xbd\xc2\x92E@'
p696
tp697
Rp698
aaa(lp699
(lp700
S'../Data/x264_18.csv'
p701
aa(lp702
g7
(g11
S'^c\xaf J\xf89@'
p703
tp704
Rp705
aaa(lp706
(lp707
S'../Data/x264_0.csv'
p708
aa(lp709
g7
(g11
S'\x15G\xa2\xa3K\xf2:@'
p710
tp711
Rp712
aaa(lp713
(lp714
g641
aa(lp715
g7
(g11
S'\x1cQ\xc7\xca#dE@'
p716
tp717
Rp718
aaa(lp719
(lp720
g680
aa(lp721
g7
(g11
S'\x1cQ\xc7\xca#dE@'
p722
tp723
Rp724
aaa(lp725
(lp726
S'../Data/x264_13.csv'
p727
aa(lp728
g7
(g11
S'<\xa0\xd1>\xbb\x0c;@'
p729
tp730
Rp731
aaa(lp732
(lp733
g694
aa(lp734
g7
(g11
S'\xb9\x82\x8d\xbd\xc2\x92E@'
p735
tp736
Rp737
aaa(lp738
(lp739
g661
aa(lp740
g7
(g11
S'hy\xc53\xf9 F@'
p741
tp742
Rp743
aaa(lp744
(lp745
g654
aa(lp746
g7
(g11
S'\xc9n%F\x8e\xe0@@'
p747
tp748
Rp749
aaa(lp750
(lp751
g641
aa(lp752
g7
(g11
S'\x1cQ\xc7\xca#dE@'
p753
tp754
Rp755
aaa(lp756
(lp757
g701
aa(lp758
g7
(g11
S'^c\xaf J\xf89@'
p759
tp760
Rp761
aaa(lp762
(lp763
S'../Data/x264_3.csv'
p764
aa(lp765
g7
(g11
S'^c\xaf J\xf89@'
p766
tp767
Rp768
aaas.