(dp0
S'sqlite'
p1
(lp2
(lp3
(lp4
S'../Data/sqlite_11.csv'
p5
aS'../Data/sqlite_10.csv'
p6
aa(lp7
cnumpy.core.multiarray
scalar
p8
(cnumpy
dtype
p9
(S'f8'
p10
I0
I1
tp11
Rp12
(I3
S'<'
p13
NNNI-1
I-1
I0
tp14
bS'\xe2\x11\x8c\xdd\xdfY-@'
p15
tp16
Rp17
ag8
(g12
S'\xd2V|\xa0\xce\xd20@'
p18
tp19
Rp20
aaa(lp21
(lp22
S'../Data/sqlite_19.csv'
p23
aS'../Data/sqlite_45.csv'
p24
aa(lp25
g8
(g12
S'\xdfz\x7f \xba\x8f3@'
p26
tp27
Rp28
ag8
(g12
S'\xa6|\xe4u\xcd\xce\x1d@'
p29
tp30
Rp31
aaa(lp32
(lp33
S'../Data/sqlite_44.csv'
p34
aS'../Data/sqlite_59.csv'
p35
aa(lp36
g8
(g12
S'\x13}\x8f\xac\xf9\xdf\x18@'
p37
tp38
Rp39
ag8
(g12
S'E\x9doi\xa1\x0e#@'
p40
tp41
Rp42
aaa(lp43
(lp44
g23
aS'../Data/sqlite_52.csv'
p45
aa(lp46
g8
(g12
S'\xdfz\x7f \xba\x8f3@'
p47
tp48
Rp49
ag8
(g12
S'\xe8\x8c\xbe\xeb\x08[0@'
p50
tp51
Rp52
aaa(lp53
(lp54
g34
ag45
ag23
ag5
aS'../Data/sqlite_17.csv'
p55
aS'../Data/sqlite_18.csv'
p56
aa(lp57
g8
(g12
S'\x13}\x8f\xac\xf9\xdf\x18@'
p58
tp59
Rp60
ag8
(g12
S'\xe8\x8c\xbe\xeb\x08[0@'
p61
tp62
Rp63
ag8
(g12
S'\xdfz\x7f \xba\x8f3@'
p64
tp65
Rp66
ag8
(g12
S'\xe2\x11\x8c\xdd\xdfY-@'
p67
tp68
Rp69
ag8
(g12
S'\x08\x98\x06?\x02\xfc\x1a@'
p70
tp71
Rp72
ag8
(g12
S'\xdayC\xf5)o\x16@'
p73
tp74
Rp75
aaa(lp76
(lp77
g56
aa(lp78
g8
(g12
S'\xdayC\xf5)o\x16@'
p79
tp80
Rp81
aaa(lp82
(lp83
g23
ag55
aS'../Data/sqlite_16.csv'
p84
ag35
ag24
aa(lp85
g8
(g12
S'\xdfz\x7f \xba\x8f3@'
p86
tp87
Rp88
ag8
(g12
S'\x08\x98\x06?\x02\xfc\x1a@'
p89
tp90
Rp91
ag8
(g12
S'\x08\x98\x06?\x02\xfc\x1a@'
p92
tp93
Rp94
ag8
(g12
S'E\x9doi\xa1\x0e#@'
p95
tp96
Rp97
ag8
(g12
S'\xa6|\xe4u\xcd\xce\x1d@'
p98
tp99
Rp100
aaa(lp101
(lp102
g34
ag24
aa(lp103
g8
(g12
S'\x13}\x8f\xac\xf9\xdf\x18@'
p104
tp105
Rp106
ag8
(g12
S'\xa6|\xe4u\xcd\xce\x1d@'
p107
tp108
Rp109
aaa(lp110
(lp111
g23
ag24
aa(lp112
g8
(g12
S'\xdfz\x7f \xba\x8f3@'
p113
tp114
Rp115
ag8
(g12
S'\xa6|\xe4u\xcd\xce\x1d@'
p116
tp117
Rp118
aaa(lp119
(lp120
g56
ag45
aa(lp121
g8
(g12
S'\xdayC\xf5)o\x16@'
p122
tp123
Rp124
ag8
(g12
S'\xe8\x8c\xbe\xeb\x08[0@'
p125
tp126
Rp127
aaa(lp128
(lp129
g23
ag24
aa(lp130
g8
(g12
S'\xdfz\x7f \xba\x8f3@'
p131
tp132
Rp133
ag8
(g12
S'\xa6|\xe4u\xcd\xce\x1d@'
p134
tp135
Rp136
aaa(lp137
(lp138
S'../Data/sqlite_73.csv'
p139
ag5
ag34
ag24
ag45
aa(lp140
g8
(g12
S'|P\xb9\xc1\xa7\xae1@'
p141
tp142
Rp143
ag8
(g12
S'\xe2\x11\x8c\xdd\xdfY-@'
p144
tp145
Rp146
ag8
(g12
S'\x13}\x8f\xac\xf9\xdf\x18@'
p147
tp148
Rp149
ag8
(g12
S'\xa6|\xe4u\xcd\xce\x1d@'
p150
tp151
Rp152
ag8
(g12
S'\xe8\x8c\xbe\xeb\x08[0@'
p153
tp154
Rp155
aaa(lp156
(lp157
g23
ag55
ag6
ag84
aa(lp158
g8
(g12
S'\xdfz\x7f \xba\x8f3@'
p159
tp160
Rp161
ag8
(g12
S'\x08\x98\x06?\x02\xfc\x1a@'
p162
tp163
Rp164
ag8
(g12
S'\xd2V|\xa0\xce\xd20@'
p165
tp166
Rp167
ag8
(g12
S'\x08\x98\x06?\x02\xfc\x1a@'
p168
tp169
Rp170
aaa(lp171
(lp172
g35
ag24
aa(lp173
g8
(g12
S'E\x9doi\xa1\x0e#@'
p174
tp175
Rp176
ag8
(g12
S'\xa6|\xe4u\xcd\xce\x1d@'
p177
tp178
Rp179
aaa(lp180
(lp181
g35
ag84
aa(lp182
g8
(g12
S'E\x9doi\xa1\x0e#@'
p183
tp184
Rp185
ag8
(g12
S'\x08\x98\x06?\x02\xfc\x1a@'
p186
tp187
Rp188
aaa(lp189
(lp190
g23
ag84
aa(lp191
g8
(g12
S'\xdfz\x7f \xba\x8f3@'
p192
tp193
Rp194
ag8
(g12
S'\x08\x98\x06?\x02\xfc\x1a@'
p195
tp196
Rp197
aaa(lp198
(lp199
g34
ag84
aa(lp200
g8
(g12
S'\x13}\x8f\xac\xf9\xdf\x18@'
p201
tp202
Rp203
ag8
(g12
S'\x08\x98\x06?\x02\xfc\x1a@'
p204
tp205
Rp206
aaa(lp207
(lp208
g34
aS'../Data/sqlite_79.csv'
p209
ag84
aa(lp210
g8
(g12
S'\x13}\x8f\xac\xf9\xdf\x18@'
p211
tp212
Rp213
ag8
(g12
S')\x80\xae\xdf"\x19$@'
p214
tp215
Rp216
ag8
(g12
S'\x08\x98\x06?\x02\xfc\x1a@'
p217
tp218
Rp219
aaa(lp220
(lp221
g139
ag6
ag24
aa(lp222
g8
(g12
S'|P\xb9\xc1\xa7\xae1@'
p223
tp224
Rp225
ag8
(g12
S'\xd2V|\xa0\xce\xd20@'
p226
tp227
Rp228
ag8
(g12
S'\xa6|\xe4u\xcd\xce\x1d@'
p229
tp230
Rp231
aaa(lp232
(lp233
g34
ag6
aa(lp234
g8
(g12
S'\x13}\x8f\xac\xf9\xdf\x18@'
p235
tp236
Rp237
ag8
(g12
S'\xd2V|\xa0\xce\xd20@'
p238
tp239
Rp240
aaasS'spear'
p241
(lp242
(lp243
(lp244
S'../Data/spear_1.csv'
p245
aS'../Data/spear_8.csv'
p246
aa(lp247
g8
(g12
S'\xe7\xeb\xae\xb0Gz\xf1?'
p248
tp249
Rp250
ag8
(g12
S'\xe4\x82\x0c@\xeb\xef\xb9?'
p251
tp252
Rp253
aaa(lp254
(lp255
g246
aa(lp256
g8
(g12
S'\xe4\x82\x0c@\xeb\xef\xb9?'
p257
tp258
Rp259
aaa(lp260
(lp261
g245
aS'../Data/spear_2.csv'
p262
aa(lp263
g8
(g12
S'\xe7\xeb\xae\xb0Gz\xf1?'
p264
tp265
Rp266
ag8
(g12
S'\xfa\xc1\x15\xf7N\xb2\xf4?'
p267
tp268
Rp269
aaa(lp270
(lp271
S'../Data/spear_9.csv'
p272
ag262
aa(lp273
g8
(g12
S'\x00\x00\x00\x00\x00\x00\x00\x00'
p274
tp275
Rp276
ag8
(g12
S'\xfa\xc1\x15\xf7N\xb2\xf4?'
p277
tp278
Rp279
aaa(lp280
(lp281
g245
aS'../Data/spear_0.csv'
p282
aS'../Data/spear_6.csv'
p283
aa(lp284
g8
(g12
S'\xe7\xeb\xae\xb0Gz\xf1?'
p285
tp286
Rp287
ag8
(g12
S'\x80\x88eY\x96e\xb9?'
p288
tp289
Rp290
ag8
(g12
S'\x00\x00\x00\x00\x00\x00\x00\x00'
p291
tp292
Rp293
aaa(lp294
(lp295
S'../Data/spear_4.csv'
p296
aS'../Data/spear_3.csv'
p297
aa(lp298
g8
(g12
S'333333\xf3?'
p299
tp300
Rp301
ag8
(g12
S'3\xa8\x91|J\xd5\xf7?'
p302
tp303
Rp304
aaa(lp305
(lp306
S'../Data/spear_7.csv'
p307
ag246
aa(lp308
g8
(g12
S'\x9a\x99\x99\x99\x99\x99\xe9?'
p309
tp310
Rp311
ag8
(g12
S'\xe4\x82\x0c@\xeb\xef\xb9?'
p312
tp313
Rp314
aaa(lp315
(lp316
g262
ag246
aa(lp317
g8
(g12
S'\xfa\xc1\x15\xf7N\xb2\xf4?'
p318
tp319
Rp320
ag8
(g12
S'\xe4\x82\x0c@\xeb\xef\xb9?'
p321
tp322
Rp323
aaa(lp324
(lp325
g245
ag307
ag282
ag297
ag283
aa(lp326
g8
(g12
S'\xe7\xeb\xae\xb0Gz\xf1?'
p327
tp328
Rp329
ag8
(g12
S'\x9a\x99\x99\x99\x99\x99\xe9?'
p330
tp331
Rp332
ag8
(g12
S'\x80\x88eY\x96e\xb9?'
p333
tp334
Rp335
ag8
(g12
S'3\xa8\x91|J\xd5\xf7?'
p336
tp337
Rp338
ag8
(g12
S'\x00\x00\x00\x00\x00\x00\x00\x00'
p339
tp340
Rp341
aaa(lp342
(lp343
g245
ag262
aa(lp344
g8
(g12
S'\xe7\xeb\xae\xb0Gz\xf1?'
p345
tp346
Rp347
ag8
(g12
S'\xfa\xc1\x15\xf7N\xb2\xf4?'
p348
tp349
Rp350
aaa(lp351
(lp352
g245
ag272
ag307
aa(lp353
g8
(g12
S'\xe7\xeb\xae\xb0Gz\xf1?'
p354
tp355
Rp356
ag8
(g12
S'\x00\x00\x00\x00\x00\x00\x00\x00'
p357
tp358
Rp359
ag8
(g12
S'\x9a\x99\x99\x99\x99\x99\xe9?'
p360
tp361
Rp362
aaa(lp363
(lp364
g296
ag307
ag246
aa(lp365
g8
(g12
S'333333\xf3?'
p366
tp367
Rp368
ag8
(g12
S'\x9a\x99\x99\x99\x99\x99\xe9?'
p369
tp370
Rp371
ag8
(g12
S'\xe4\x82\x0c@\xeb\xef\xb9?'
p372
tp373
Rp374
aaa(lp375
(lp376
S'../Data/spear_5.csv'
p377
ag282
aa(lp378
g8
(g12
S'u\x97\x0c\xdf\x88\x02\xd3?'
p379
tp380
Rp381
ag8
(g12
S'\x80\x88eY\x96e\xb9?'
p382
tp383
Rp384
aaa(lp385
(lp386
g377
ag297
aa(lp387
g8
(g12
S'u\x97\x0c\xdf\x88\x02\xd3?'
p388
tp389
Rp390
ag8
(g12
S'3\xa8\x91|J\xd5\xf7?'
p391
tp392
Rp393
aaa(lp394
(lp395
g296
ag297
ag245
ag377
ag282
ag246
ag283
aa(lp396
g8
(g12
S'333333\xf3?'
p397
tp398
Rp399
ag8
(g12
S'3\xa8\x91|J\xd5\xf7?'
p400
tp401
Rp402
ag8
(g12
S'\xe7\xeb\xae\xb0Gz\xf1?'
p403
tp404
Rp405
ag8
(g12
S'u\x97\x0c\xdf\x88\x02\xd3?'
p406
tp407
Rp408
ag8
(g12
S'\x80\x88eY\x96e\xb9?'
p409
tp410
Rp411
ag8
(g12
S'\xe4\x82\x0c@\xeb\xef\xb9?'
p412
tp413
Rp414
ag8
(g12
S'\x00\x00\x00\x00\x00\x00\x00\x00'
p415
tp416
Rp417
aaa(lp418
(lp419
g296
ag297
ag282
ag272
ag262
ag283
aa(lp420
g8
(g12
S'333333\xf3?'
p421
tp422
Rp423
ag8
(g12
S'3\xa8\x91|J\xd5\xf7?'
p424
tp425
Rp426
ag8
(g12
S'\x80\x88eY\x96e\xb9?'
p427
tp428
Rp429
ag8
(g12
S'\x00\x00\x00\x00\x00\x00\x00\x00'
p430
tp431
Rp432
ag8
(g12
S'\xfa\xc1\x15\xf7N\xb2\xf4?'
p433
tp434
Rp435
ag8
(g12
S'\x00\x00\x00\x00\x00\x00\x00\x00'
p436
tp437
Rp438
aaa(lp439
(lp440
g296
aa(lp441
g8
(g12
S'333333\xf3?'
p442
tp443
Rp444
aaa(lp445
(lp446
g262
ag246
aa(lp447
g8
(g12
S'\xfa\xc1\x15\xf7N\xb2\xf4?'
p448
tp449
Rp450
ag8
(g12
S'\xe4\x82\x0c@\xeb\xef\xb9?'
p451
tp452
Rp453
aaa(lp454
(lp455
g245
ag282
aa(lp456
g8
(g12
S'\xe7\xeb\xae\xb0Gz\xf1?'
p457
tp458
Rp459
ag8
(g12
S'\x80\x88eY\x96e\xb9?'
p460
tp461
Rp462
aaa(lp463
(lp464
g307
ag282
aa(lp465
g8
(g12
S'\x9a\x99\x99\x99\x99\x99\xe9?'
p466
tp467
Rp468
ag8
(g12
S'\x80\x88eY\x96e\xb9?'
p469
tp470
Rp471
aaasS'sac'
p472
(lp473
(lp474
(lp475
S'../Data/sac_9.csv'
p476
aS'../Data/sac_6.csv'
p477
aa(lp478
g8
(g12
S'\x87D\x8c\xe7\x97q\xe5?'
p479
tp480
Rp481
ag8
(g12
S'\xf9e\x0c\xb3>\x17\xef?'
p482
tp483
Rp484
aaa(lp485
(lp486
S'../Data/sac_2.csv'
p487
aS'../Data/sac_4.csv'
p488
aa(lp489
g8
(g12
S'\xce\x1e\xcd\xa5\xed\xeeW@'
p490
tp491
Rp492
ag8
(g12
S'nhK8J\x83\xee?'
p493
tp494
Rp495
aaa(lp496
(lp497
g487
ag476
aa(lp498
g8
(g12
S'\xce\x1e\xcd\xa5\xed\xeeW@'
p499
tp500
Rp501
ag8
(g12
S'\x87D\x8c\xe7\x97q\xe5?'
p502
tp503
Rp504
aaa(lp505
(lp506
g476
aS'../Data/sac_8.csv'
p507
aa(lp508
g8
(g12
S'\x87D\x8c\xe7\x97q\xe5?'
p509
tp510
Rp511
ag8
(g12
S'N\xbd\xed\x96\xa4W\xeb?'
p512
tp513
Rp514
aaa(lp515
(lp516
g487
ag477
aa(lp517
g8
(g12
S'\xce\x1e\xcd\xa5\xed\xeeW@'
p518
tp519
Rp520
ag8
(g12
S'\xf9e\x0c\xb3>\x17\xef?'
p521
tp522
Rp523
aaa(lp524
(lp525
g487
ag488
aa(lp526
g8
(g12
S'\xce\x1e\xcd\xa5\xed\xeeW@'
p527
tp528
Rp529
ag8
(g12
S'nhK8J\x83\xee?'
p530
tp531
Rp532
aaa(lp533
(lp534
g487
ag488
aa(lp535
g8
(g12
S'\xce\x1e\xcd\xa5\xed\xeeW@'
p536
tp537
Rp538
ag8
(g12
S'nhK8J\x83\xee?'
p539
tp540
Rp541
aaa(lp542
(lp543
S'../Data/sac_7.csv'
p544
ag477
aa(lp545
g8
(g12
S'\xde\xc1\x98\xfc?\x02\xf3?'
p546
tp547
Rp548
ag8
(g12
S'\xf9e\x0c\xb3>\x17\xef?'
p549
tp550
Rp551
aaa(lp552
(lp553
g487
aS'../Data/sac_5.csv'
p554
aa(lp555
g8
(g12
S'\xce\x1e\xcd\xa5\xed\xeeW@'
p556
tp557
Rp558
ag8
(g12
S'.\xa7=\xf8\xa6\x8d-@'
p559
tp560
Rp561
aaa(lp562
(lp563
g544
ag487
aa(lp564
g8
(g12
S'\xde\xc1\x98\xfc?\x02\xf3?'
p565
tp566
Rp567
ag8
(g12
S'\xce\x1e\xcd\xa5\xed\xeeW@'
p568
tp569
Rp570
aaa(lp571
(lp572
g544
ag554
ag507
aa(lp573
g8
(g12
S'\xde\xc1\x98\xfc?\x02\xf3?'
p574
tp575
Rp576
ag8
(g12
S'.\xa7=\xf8\xa6\x8d-@'
p577
tp578
Rp579
ag8
(g12
S'N\xbd\xed\x96\xa4W\xeb?'
p580
tp581
Rp582
aaa(lp583
(lp584
g544
ag488
aa(lp585
g8
(g12
S'\xde\xc1\x98\xfc?\x02\xf3?'
p586
tp587
Rp588
ag8
(g12
S'nhK8J\x83\xee?'
p589
tp590
Rp591
aaa(lp592
(lp593
g488
ag477
aa(lp594
g8
(g12
S'nhK8J\x83\xee?'
p595
tp596
Rp597
ag8
(g12
S'\xf9e\x0c\xb3>\x17\xef?'
p598
tp599
Rp600
aaa(lp601
(lp602
g544
ag487
ag488
aa(lp603
g8
(g12
S'\xde\xc1\x98\xfc?\x02\xf3?'
p604
tp605
Rp606
ag8
(g12
S'\xce\x1e\xcd\xa5\xed\xeeW@'
p607
tp608
Rp609
ag8
(g12
S'nhK8J\x83\xee?'
p610
tp611
Rp612
aaa(lp613
(lp614
g487
ag488
aa(lp615
g8
(g12
S'\xce\x1e\xcd\xa5\xed\xeeW@'
p616
tp617
Rp618
ag8
(g12
S'nhK8J\x83\xee?'
p619
tp620
Rp621
aaa(lp622
(lp623
g544
ag487
aa(lp624
g8
(g12
S'\xde\xc1\x98\xfc?\x02\xf3?'
p625
tp626
Rp627
ag8
(g12
S'\xce\x1e\xcd\xa5\xed\xeeW@'
p628
tp629
Rp630
aaa(lp631
(lp632
g544
ag487
aa(lp633
g8
(g12
S'\xde\xc1\x98\xfc?\x02\xf3?'
p634
tp635
Rp636
ag8
(g12
S'\xce\x1e\xcd\xa5\xed\xeeW@'
p637
tp638
Rp639
aaa(lp640
(lp641
g487
ag476
ag488
ag507
aa(lp642
g8
(g12
S'\xce\x1e\xcd\xa5\xed\xeeW@'
p643
tp644
Rp645
ag8
(g12
S'\x87D\x8c\xe7\x97q\xe5?'
p646
tp647
Rp648
ag8
(g12
S'nhK8J\x83\xee?'
p649
tp650
Rp651
ag8
(g12
S'N\xbd\xed\x96\xa4W\xeb?'
p652
tp653
Rp654
aaa(lp655
(lp656
g488
ag477
ag507
aa(lp657
g8
(g12
S'nhK8J\x83\xee?'
p658
tp659
Rp660
ag8
(g12
S'\xf9e\x0c\xb3>\x17\xef?'
p661
tp662
Rp663
ag8
(g12
S'N\xbd\xed\x96\xa4W\xeb?'
p664
tp665
Rp666
aaa(lp667
(lp668
g544
ag488
aa(lp669
g8
(g12
S'\xde\xc1\x98\xfc?\x02\xf3?'
p670
tp671
Rp672
ag8
(g12
S'nhK8J\x83\xee?'
p673
tp674
Rp675
aaasS'storm-obj2'
p676
(lp677
(lp678
(lp679
S'../Data/storm-obj2_feature6.csv'
p680
aS'../Data/storm-obj2_feature8.csv'
p681
aS'../Data/storm-obj2_feature7.csv'
p682
aS'../Data/storm-obj2_feature9.csv'
p683
aa(lp684
g8
(g12
S'U\xf5I\xe7\xb1\xb84@'
p685
tp686
Rp687
ag8
(g12
S'f/\x9d\xfc\x80{\xc5?'
p688
tp689
Rp690
ag8
(g12
S'n\xd2\xc1Z\x19\xb94@'
p691
tp692
Rp693
ag8
(g12
S'f/\x9d\xfc\x80{\xc5?'
p694
tp695
Rp696
aaa(lp697
(lp698
g681
ag682
ag683
aa(lp699
g8
(g12
S'f/\x9d\xfc\x80{\xc5?'
p700
tp701
Rp702
ag8
(g12
S'n\xd2\xc1Z\x19\xb94@'
p703
tp704
Rp705
ag8
(g12
S'f/\x9d\xfc\x80{\xc5?'
p706
tp707
Rp708
aaa(lp709
(lp710
g680
ag681
ag683
aa(lp711
g8
(g12
S'U\xf5I\xe7\xb1\xb84@'
p712
tp713
Rp714
ag8
(g12
S'f/\x9d\xfc\x80{\xc5?'
p715
tp716
Rp717
ag8
(g12
S'f/\x9d\xfc\x80{\xc5?'
p718
tp719
Rp720
aaa(lp721
(lp722
g681
ag682
ag683
aa(lp723
g8
(g12
S'f/\x9d\xfc\x80{\xc5?'
p724
tp725
Rp726
ag8
(g12
S'n\xd2\xc1Z\x19\xb94@'
p727
tp728
Rp729
ag8
(g12
S'f/\x9d\xfc\x80{\xc5?'
p730
tp731
Rp732
aaa(lp733
(lp734
g681
ag682
ag683
aa(lp735
g8
(g12
S'f/\x9d\xfc\x80{\xc5?'
p736
tp737
Rp738
ag8
(g12
S'n\xd2\xc1Z\x19\xb94@'
p739
tp740
Rp741
ag8
(g12
S'f/\x9d\xfc\x80{\xc5?'
p742
tp743
Rp744
aaa(lp745
(lp746
g681
ag683
aa(lp747
g8
(g12
S'f/\x9d\xfc\x80{\xc5?'
p748
tp749
Rp750
ag8
(g12
S'f/\x9d\xfc\x80{\xc5?'
p751
tp752
Rp753
aaa(lp754
(lp755
g681
ag682
ag683
aa(lp756
g8
(g12
S'f/\x9d\xfc\x80{\xc5?'
p757
tp758
Rp759
ag8
(g12
S'n\xd2\xc1Z\x19\xb94@'
p760
tp761
Rp762
ag8
(g12
S'f/\x9d\xfc\x80{\xc5?'
p763
tp764
Rp765
aaa(lp766
(lp767
g681
ag682
ag683
aa(lp768
g8
(g12
S'f/\x9d\xfc\x80{\xc5?'
p769
tp770
Rp771
ag8
(g12
S'n\xd2\xc1Z\x19\xb94@'
p772
tp773
Rp774
ag8
(g12
S'f/\x9d\xfc\x80{\xc5?'
p775
tp776
Rp777
aaa(lp778
(lp779
g681
ag683
aa(lp780
g8
(g12
S'f/\x9d\xfc\x80{\xc5?'
p781
tp782
Rp783
ag8
(g12
S'f/\x9d\xfc\x80{\xc5?'
p784
tp785
Rp786
aaa(lp787
(lp788
g680
ag683
aa(lp789
g8
(g12
S'U\xf5I\xe7\xb1\xb84@'
p790
tp791
Rp792
ag8
(g12
S'f/\x9d\xfc\x80{\xc5?'
p793
tp794
Rp795
aaa(lp796
(lp797
g680
ag681
aa(lp798
g8
(g12
S'U\xf5I\xe7\xb1\xb84@'
p799
tp800
Rp801
ag8
(g12
S'f/\x9d\xfc\x80{\xc5?'
p802
tp803
Rp804
aaa(lp805
(lp806
g681
ag683
aa(lp807
g8
(g12
S'f/\x9d\xfc\x80{\xc5?'
p808
tp809
Rp810
ag8
(g12
S'f/\x9d\xfc\x80{\xc5?'
p811
tp812
Rp813
aaa(lp814
(lp815
g681
ag683
aa(lp816
g8
(g12
S'f/\x9d\xfc\x80{\xc5?'
p817
tp818
Rp819
ag8
(g12
S'f/\x9d\xfc\x80{\xc5?'
p820
tp821
Rp822
aaa(lp823
(lp824
g681
ag683
aa(lp825
g8
(g12
S'f/\x9d\xfc\x80{\xc5?'
p826
tp827
Rp828
ag8
(g12
S'f/\x9d\xfc\x80{\xc5?'
p829
tp830
Rp831
aaa(lp832
(lp833
g681
ag682
ag683
aa(lp834
g8
(g12
S'f/\x9d\xfc\x80{\xc5?'
p835
tp836
Rp837
ag8
(g12
S'n\xd2\xc1Z\x19\xb94@'
p838
tp839
Rp840
ag8
(g12
S'f/\x9d\xfc\x80{\xc5?'
p841
tp842
Rp843
aaa(lp844
(lp845
g681
ag683
aa(lp846
g8
(g12
S'f/\x9d\xfc\x80{\xc5?'
p847
tp848
Rp849
ag8
(g12
S'f/\x9d\xfc\x80{\xc5?'
p850
tp851
Rp852
aaa(lp853
(lp854
g681
ag682
ag683
aa(lp855
g8
(g12
S'f/\x9d\xfc\x80{\xc5?'
p856
tp857
Rp858
ag8
(g12
S'n\xd2\xc1Z\x19\xb94@'
p859
tp860
Rp861
ag8
(g12
S'f/\x9d\xfc\x80{\xc5?'
p862
tp863
Rp864
aaa(lp865
(lp866
g681
ag682
ag683
aa(lp867
g8
(g12
S'f/\x9d\xfc\x80{\xc5?'
p868
tp869
Rp870
ag8
(g12
S'n\xd2\xc1Z\x19\xb94@'
p871
tp872
Rp873
ag8
(g12
S'f/\x9d\xfc\x80{\xc5?'
p874
tp875
Rp876
aaa(lp877
(lp878
g682
ag683
aa(lp879
g8
(g12
S'n\xd2\xc1Z\x19\xb94@'
p880
tp881
Rp882
ag8
(g12
S'f/\x9d\xfc\x80{\xc5?'
p883
tp884
Rp885
aaa(lp886
(lp887
g681
ag682
ag683
aa(lp888
g8
(g12
S'f/\x9d\xfc\x80{\xc5?'
p889
tp890
Rp891
ag8
(g12
S'n\xd2\xc1Z\x19\xb94@'
p892
tp893
Rp894
ag8
(g12
S'f/\x9d\xfc\x80{\xc5?'
p895
tp896
Rp897
aaasS'storm-obj1'
p898
(lp899
(lp900
(lp901
S'../Data/storm-obj1_feature6.csv'
p902
aS'../Data/storm-obj1_feature8.csv'
p903
aa(lp904
g8
(g12
S'3\rP\x16\xd6\x7f;@'
p905
tp906
Rp907
ag8
(g12
S'\xf9@kZ\xe0\xd7%@'
p908
tp909
Rp910
aaa(lp911
(lp912
S'../Data/storm-obj1_feature7.csv'
p913
aS'../Data/storm-obj1_feature9.csv'
p914
aa(lp915
g8
(g12
S'\x82\n\x94\x9f3KH@'
p916
tp917
Rp918
ag8
(g12
S'\x1a\xbe\xa1\xe0\x1f)<@'
p919
tp920
Rp921
aaa(lp922
(lp923
g903
ag913
ag914
aa(lp924
g8
(g12
S'\xf9@kZ\xe0\xd7%@'
p925
tp926
Rp927
ag8
(g12
S'\x82\n\x94\x9f3KH@'
p928
tp929
Rp930
ag8
(g12
S'\x1a\xbe\xa1\xe0\x1f)<@'
p931
tp932
Rp933
aaa(lp934
(lp935
g903
ag914
aa(lp936
g8
(g12
S'\xf9@kZ\xe0\xd7%@'
p937
tp938
Rp939
ag8
(g12
S'\x1a\xbe\xa1\xe0\x1f)<@'
p940
tp941
Rp942
aaa(lp943
(lp944
g903
ag914
aa(lp945
g8
(g12
S'\xf9@kZ\xe0\xd7%@'
p946
tp947
Rp948
ag8
(g12
S'\x1a\xbe\xa1\xe0\x1f)<@'
p949
tp950
Rp951
aaa(lp952
(lp953
g902
ag903
aa(lp954
g8
(g12
S'3\rP\x16\xd6\x7f;@'
p955
tp956
Rp957
ag8
(g12
S'\xf9@kZ\xe0\xd7%@'
p958
tp959
Rp960
aaa(lp961
(lp962
g903
ag914
aa(lp963
g8
(g12
S'\xf9@kZ\xe0\xd7%@'
p964
tp965
Rp966
ag8
(g12
S'\x1a\xbe\xa1\xe0\x1f)<@'
p967
tp968
Rp969
aaa(lp970
(lp971
g913
ag914
aa(lp972
g8
(g12
S'\x82\n\x94\x9f3KH@'
p973
tp974
Rp975
ag8
(g12
S'\x1a\xbe\xa1\xe0\x1f)<@'
p976
tp977
Rp978
aaa(lp979
(lp980
g902
ag903
aa(lp981
g8
(g12
S'3\rP\x16\xd6\x7f;@'
p982
tp983
Rp984
ag8
(g12
S'\xf9@kZ\xe0\xd7%@'
p985
tp986
Rp987
aaa(lp988
(lp989
g903
ag913
aa(lp990
g8
(g12
S'\xf9@kZ\xe0\xd7%@'
p991
tp992
Rp993
ag8
(g12
S'\x82\n\x94\x9f3KH@'
p994
tp995
Rp996
aaa(lp997
(lp998
g914
aa(lp999
g8
(g12
S'\x1a\xbe\xa1\xe0\x1f)<@'
p1000
tp1001
Rp1002
aaa(lp1003
(lp1004
g903
ag914
aa(lp1005
g8
(g12
S'\xf9@kZ\xe0\xd7%@'
p1006
tp1007
Rp1008
ag8
(g12
S'\x1a\xbe\xa1\xe0\x1f)<@'
p1009
tp1010
Rp1011
aaa(lp1012
(lp1013
g903
ag914
aa(lp1014
g8
(g12
S'\xf9@kZ\xe0\xd7%@'
p1015
tp1016
Rp1017
ag8
(g12
S'\x1a\xbe\xa1\xe0\x1f)<@'
p1018
tp1019
Rp1020
aaa(lp1021
(lp1022
g903
ag913
aa(lp1023
g8
(g12
S'\xf9@kZ\xe0\xd7%@'
p1024
tp1025
Rp1026
ag8
(g12
S'\x82\n\x94\x9f3KH@'
p1027
tp1028
Rp1029
aaa(lp1030
(lp1031
g903
ag914
aa(lp1032
g8
(g12
S'\xf9@kZ\xe0\xd7%@'
p1033
tp1034
Rp1035
ag8
(g12
S'\x1a\xbe\xa1\xe0\x1f)<@'
p1036
tp1037
Rp1038
aaa(lp1039
(lp1040
g903
ag914
aa(lp1041
g8
(g12
S'\xf9@kZ\xe0\xd7%@'
p1042
tp1043
Rp1044
ag8
(g12
S'\x1a\xbe\xa1\xe0\x1f)<@'
p1045
tp1046
Rp1047
aaa(lp1048
(lp1049
g903
ag914
aa(lp1050
g8
(g12
S'\xf9@kZ\xe0\xd7%@'
p1051
tp1052
Rp1053
ag8
(g12
S'\x1a\xbe\xa1\xe0\x1f)<@'
p1054
tp1055
Rp1056
aaa(lp1057
(lp1058
g903
ag913
aa(lp1059
g8
(g12
S'\xf9@kZ\xe0\xd7%@'
p1060
tp1061
Rp1062
ag8
(g12
S'\x82\n\x94\x9f3KH@'
p1063
tp1064
Rp1065
aaa(lp1066
(lp1067
g903
ag914
aa(lp1068
g8
(g12
S'\xf9@kZ\xe0\xd7%@'
p1069
tp1070
Rp1071
ag8
(g12
S'\x1a\xbe\xa1\xe0\x1f)<@'
p1072
tp1073
Rp1074
aaa(lp1075
(lp1076
g903
ag913
aa(lp1077
g8
(g12
S'\xf9@kZ\xe0\xd7%@'
p1078
tp1079
Rp1080
ag8
(g12
S'\x82\n\x94\x9f3KH@'
p1081
tp1082
Rp1083
aaasS'x264'
p1084
(lp1085
(lp1086
(lp1087
S'../Data/x264_11.csv'
p1088
aS'../Data/x264_18.csv'
p1089
aa(lp1090
g8
(g12
S'\x1cQ\xc7\xca#dE@'
p1091
tp1092
Rp1093
ag8
(g12
S'^c\xaf J\xf89@'
p1094
tp1095
Rp1096
aaa(lp1097
(lp1098
S'../Data/x264_1.csv'
p1099
aS'../Data/x264_13.csv'
p1100
aa(lp1101
g8
(g12
S'\x1cQ\xc7\xca#dE@'
p1102
tp1103
Rp1104
ag8
(g12
S'<\xa0\xd1>\xbb\x0c;@'
p1105
tp1106
Rp1107
aaa(lp1108
(lp1109
g1099
aS'../Data/x264_10.csv'
p1110
aa(lp1111
g8
(g12
S'\x1cQ\xc7\xca#dE@'
p1112
tp1113
Rp1114
ag8
(g12
S'hy\xc53\xf9 F@'
p1115
tp1116
Rp1117
aaa(lp1118
(lp1119
S'../Data/x264_4.csv'
p1120
aS'../Data/x264_0.csv'
p1121
aa(lp1122
g8
(g12
S'\xb9\x82\x8d\xbd\xc2\x92E@'
p1123
tp1124
Rp1125
ag8
(g12
S'\x15G\xa2\xa3K\xf2:@'
p1126
tp1127
Rp1128
aaa(lp1129
(lp1130
g1100
ag1089
aa(lp1131
g8
(g12
S'<\xa0\xd1>\xbb\x0c;@'
p1132
tp1133
Rp1134
ag8
(g12
S'^c\xaf J\xf89@'
p1135
tp1136
Rp1137
aaa(lp1138
(lp1139
g1088
aS'../Data/x264_14.csv'
p1140
aa(lp1141
g8
(g12
S'\x1cQ\xc7\xca#dE@'
p1142
tp1143
Rp1144
ag8
(g12
S'ff\xb2\x95\xb7\xf4;@'
p1145
tp1146
Rp1147
aaa(lp1148
(lp1149
S'../Data/x264_2.csv'
p1150
ag1100
aS'../Data/x264_6.csv'
p1151
aa(lp1152
g8
(g12
S'\x80\xdc\xb70\x90PI@'
p1153
tp1154
Rp1155
ag8
(g12
S'<\xa0\xd1>\xbb\x0c;@'
p1156
tp1157
Rp1158
ag8
(g12
S'\xa0\x8c\x96\xbe`3D@'
p1159
tp1160
Rp1161
aaa(lp1162
(lp1163
g1120
aS'../Data/x264_5.csv'
p1164
aa(lp1165
g8
(g12
S'\xb9\x82\x8d\xbd\xc2\x92E@'
p1166
tp1167
Rp1168
ag8
(g12
S'\xb9\x82\x8d\xbd\xc2\x92E@'
p1169
tp1170
Rp1171
aaa(lp1172
(lp1173
g1099
ag1164
aa(lp1174
g8
(g12
S'\x1cQ\xc7\xca#dE@'
p1175
tp1176
Rp1177
ag8
(g12
S'\xb9\x82\x8d\xbd\xc2\x92E@'
p1178
tp1179
Rp1180
aaa(lp1181
(lp1182
g1099
ag1120
aa(lp1183
g8
(g12
S'\x1cQ\xc7\xca#dE@'
p1184
tp1185
Rp1186
ag8
(g12
S'\xb9\x82\x8d\xbd\xc2\x92E@'
p1187
tp1188
Rp1189
aaa(lp1190
(lp1191
g1120
ag1140
aa(lp1192
g8
(g12
S'\xb9\x82\x8d\xbd\xc2\x92E@'
p1193
tp1194
Rp1195
ag8
(g12
S'ff\xb2\x95\xb7\xf4;@'
p1196
tp1197
Rp1198
aaa(lp1199
(lp1200
g1099
aS'../Data/x264_3.csv'
p1201
ag1164
aa(lp1202
g8
(g12
S'\x1cQ\xc7\xca#dE@'
p1203
tp1204
Rp1205
ag8
(g12
S'^c\xaf J\xf89@'
p1206
tp1207
Rp1208
ag8
(g12
S'\xb9\x82\x8d\xbd\xc2\x92E@'
p1209
tp1210
Rp1211
aaa(lp1212
(lp1213
S'../Data/x264_7.csv'
p1214
ag1164
aa(lp1215
g8
(g12
S'hy\xc53\xf9 F@'
p1216
tp1217
Rp1218
ag8
(g12
S'\xb9\x82\x8d\xbd\xc2\x92E@'
p1219
tp1220
Rp1221
aaa(lp1222
(lp1223
g1150
ag1164
aa(lp1224
g8
(g12
S'\x80\xdc\xb70\x90PI@'
p1225
tp1226
Rp1227
ag8
(g12
S'\xb9\x82\x8d\xbd\xc2\x92E@'
p1228
tp1229
Rp1230
aaa(lp1231
(lp1232
g1214
ag1088
aa(lp1233
g8
(g12
S'hy\xc53\xf9 F@'
p1234
tp1235
Rp1236
ag8
(g12
S'\x1cQ\xc7\xca#dE@'
p1237
tp1238
Rp1239
aaa(lp1240
(lp1241
g1099
ag1140
aa(lp1242
g8
(g12
S'\x1cQ\xc7\xca#dE@'
p1243
tp1244
Rp1245
ag8
(g12
S'ff\xb2\x95\xb7\xf4;@'
p1246
tp1247
Rp1248
aaa(lp1249
(lp1250
g1110
aa(lp1251
g8
(g12
S'hy\xc53\xf9 F@'
p1252
tp1253
Rp1254
aaa(lp1255
(lp1256
g1088
ag1100
aa(lp1257
g8
(g12
S'\x1cQ\xc7\xca#dE@'
p1258
tp1259
Rp1260
ag8
(g12
S'<\xa0\xd1>\xbb\x0c;@'
p1261
tp1262
Rp1263
aaa(lp1264
(lp1265
g1100
ag1164
aa(lp1266
g8
(g12
S'<\xa0\xd1>\xbb\x0c;@'
p1267
tp1268
Rp1269
ag8
(g12
S'\xb9\x82\x8d\xbd\xc2\x92E@'
p1270
tp1271
Rp1272
aaa(lp1273
(lp1274
g1099
ag1164
aa(lp1275
g8
(g12
S'\x1cQ\xc7\xca#dE@'
p1276
tp1277
Rp1278
ag8
(g12
S'\xb9\x82\x8d\xbd\xc2\x92E@'
p1279
tp1280
Rp1281
aaas.