(dp0
S'sqlite'
p1
(lp2
(lp3
(lp4
S'../Data/sqlite_73.csv'
p5
aS'../Data/sqlite_59.csv'
p6
aa(lp7
cnumpy.core.multiarray
scalar
p8
(cnumpy
dtype
p9
(S'f8'
p10
I0
I1
tp11
Rp12
(I3
S'<'
p13
NNNI-1
I-1
I0
tp14
bS'|P\xb9\xc1\xa7\xae1@'
p15
tp16
Rp17
ag8
(g12
S'E\x9doi\xa1\x0e#@'
p18
tp19
Rp20
aaa(lp21
(lp22
S'../Data/sqlite_19.csv'
p23
aS'../Data/sqlite_17.csv'
p24
aa(lp25
g8
(g12
S'\xdfz\x7f \xba\x8f3@'
p26
tp27
Rp28
ag8
(g12
S'\x08\x98\x06?\x02\xfc\x1a@'
p29
tp30
Rp31
aaa(lp32
(lp33
g23
ag24
aS'../Data/sqlite_45.csv'
p34
aS'../Data/sqlite_10.csv'
p35
aS'../Data/sqlite_16.csv'
p36
aa(lp37
g8
(g12
S'\xdfz\x7f \xba\x8f3@'
p38
tp39
Rp40
ag8
(g12
S'\x08\x98\x06?\x02\xfc\x1a@'
p41
tp42
Rp43
ag8
(g12
S'\xa6|\xe4u\xcd\xce\x1d@'
p44
tp45
Rp46
ag8
(g12
S'\xd2V|\xa0\xce\xd20@'
p47
tp48
Rp49
ag8
(g12
S'\x08\x98\x06?\x02\xfc\x1a@'
p50
tp51
Rp52
aaa(lp53
(lp54
g5
aS'../Data/sqlite_44.csv'
p55
ag24
ag34
aa(lp56
g8
(g12
S'|P\xb9\xc1\xa7\xae1@'
p57
tp58
Rp59
ag8
(g12
S'\x13}\x8f\xac\xf9\xdf\x18@'
p60
tp61
Rp62
ag8
(g12
S'\x08\x98\x06?\x02\xfc\x1a@'
p63
tp64
Rp65
ag8
(g12
S'\xa6|\xe4u\xcd\xce\x1d@'
p66
tp67
Rp68
aaa(lp69
(lp70
g23
ag36
aa(lp71
g8
(g12
S'\xdfz\x7f \xba\x8f3@'
p72
tp73
Rp74
ag8
(g12
S'\x08\x98\x06?\x02\xfc\x1a@'
p75
tp76
Rp77
aaa(lp78
(lp79
g23
ag55
aa(lp80
g8
(g12
S'\xdfz\x7f \xba\x8f3@'
p81
tp82
Rp83
ag8
(g12
S'\x13}\x8f\xac\xf9\xdf\x18@'
p84
tp85
Rp86
aaa(lp87
(lp88
g5
ag55
ag35
aS'../Data/sqlite_11.csv'
p89
ag36
ag24
aa(lp90
g8
(g12
S'|P\xb9\xc1\xa7\xae1@'
p91
tp92
Rp93
ag8
(g12
S'\x13}\x8f\xac\xf9\xdf\x18@'
p94
tp95
Rp96
ag8
(g12
S'\xd2V|\xa0\xce\xd20@'
p97
tp98
Rp99
ag8
(g12
S'\xe2\x11\x8c\xdd\xdfY-@'
p100
tp101
Rp102
ag8
(g12
S'\x08\x98\x06?\x02\xfc\x1a@'
p103
tp104
Rp105
ag8
(g12
S'\x08\x98\x06?\x02\xfc\x1a@'
p106
tp107
Rp108
aaa(lp109
(lp110
g5
ag23
aS'../Data/sqlite_18.csv'
p111
aa(lp112
g8
(g12
S'|P\xb9\xc1\xa7\xae1@'
p113
tp114
Rp115
ag8
(g12
S'\xdfz\x7f \xba\x8f3@'
p116
tp117
Rp118
ag8
(g12
S'\xdayC\xf5)o\x16@'
p119
tp120
Rp121
aaa(lp122
(lp123
g111
ag36
aa(lp124
g8
(g12
S'\xdayC\xf5)o\x16@'
p125
tp126
Rp127
ag8
(g12
S'\x08\x98\x06?\x02\xfc\x1a@'
p128
tp129
Rp130
aaa(lp131
(lp132
g23
ag36
aa(lp133
g8
(g12
S'\xdfz\x7f \xba\x8f3@'
p134
tp135
Rp136
ag8
(g12
S'\x08\x98\x06?\x02\xfc\x1a@'
p137
tp138
Rp139
aaa(lp140
(lp141
g5
ag36
aa(lp142
g8
(g12
S'|P\xb9\xc1\xa7\xae1@'
p143
tp144
Rp145
ag8
(g12
S'\x08\x98\x06?\x02\xfc\x1a@'
p146
tp147
Rp148
aaa(lp149
(lp150
g24
ag36
aa(lp151
g8
(g12
S'\x08\x98\x06?\x02\xfc\x1a@'
p152
tp153
Rp154
ag8
(g12
S'\x08\x98\x06?\x02\xfc\x1a@'
p155
tp156
Rp157
aaa(lp158
(lp159
g6
ag111
aa(lp160
g8
(g12
S'E\x9doi\xa1\x0e#@'
p161
tp162
Rp163
ag8
(g12
S'\xdayC\xf5)o\x16@'
p164
tp165
Rp166
aaa(lp167
(lp168
g5
ag24
aa(lp169
g8
(g12
S'|P\xb9\xc1\xa7\xae1@'
p170
tp171
Rp172
ag8
(g12
S'\x08\x98\x06?\x02\xfc\x1a@'
p173
tp174
Rp175
aaa(lp176
(lp177
g55
ag24
aa(lp178
g8
(g12
S'\x13}\x8f\xac\xf9\xdf\x18@'
p179
tp180
Rp181
ag8
(g12
S'\x08\x98\x06?\x02\xfc\x1a@'
p182
tp183
Rp184
aaa(lp185
(lp186
g5
ag23
ag34
aa(lp187
g8
(g12
S'|P\xb9\xc1\xa7\xae1@'
p188
tp189
Rp190
ag8
(g12
S'\xdfz\x7f \xba\x8f3@'
p191
tp192
Rp193
ag8
(g12
S'\xa6|\xe4u\xcd\xce\x1d@'
p194
tp195
Rp196
aaa(lp197
(lp198
g23
ag89
aa(lp199
g8
(g12
S'\xdfz\x7f \xba\x8f3@'
p200
tp201
Rp202
ag8
(g12
S'\xe2\x11\x8c\xdd\xdfY-@'
p203
tp204
Rp205
aaa(lp206
(lp207
g34
ag36
ag111
aS'../Data/sqlite_52.csv'
p208
aa(lp209
g8
(g12
S'\xa6|\xe4u\xcd\xce\x1d@'
p210
tp211
Rp212
ag8
(g12
S'\x08\x98\x06?\x02\xfc\x1a@'
p213
tp214
Rp215
ag8
(g12
S'\xdayC\xf5)o\x16@'
p216
tp217
Rp218
ag8
(g12
S'\xe8\x8c\xbe\xeb\x08[0@'
p219
tp220
Rp221
aaa(lp222
(lp223
g5
ag23
aa(lp224
g8
(g12
S'|P\xb9\xc1\xa7\xae1@'
p225
tp226
Rp227
ag8
(g12
S'\xdfz\x7f \xba\x8f3@'
p228
tp229
Rp230
aaa(lp231
(lp232
g55
ag36
aa(lp233
g8
(g12
S'\x13}\x8f\xac\xf9\xdf\x18@'
p234
tp235
Rp236
ag8
(g12
S'\x08\x98\x06?\x02\xfc\x1a@'
p237
tp238
Rp239
aaasS'spear'
p240
(lp241
(lp242
(lp243
S'../Data/spear_1.csv'
p244
aS'../Data/spear_6.csv'
p245
aa(lp246
g8
(g12
S'\xe7\xeb\xae\xb0Gz\xf1?'
p247
tp248
Rp249
ag8
(g12
S'\x00\x00\x00\x00\x00\x00\x00\x00'
p250
tp251
Rp252
aaa(lp253
(lp254
S'../Data/spear_9.csv'
p255
aS'../Data/spear_7.csv'
p256
aS'../Data/spear_5.csv'
p257
ag245
aa(lp258
g8
(g12
S'\x00\x00\x00\x00\x00\x00\x00\x00'
p259
tp260
Rp261
ag8
(g12
S'\x9a\x99\x99\x99\x99\x99\xe9?'
p262
tp263
Rp264
ag8
(g12
S'u\x97\x0c\xdf\x88\x02\xd3?'
p265
tp266
Rp267
ag8
(g12
S'\x00\x00\x00\x00\x00\x00\x00\x00'
p268
tp269
Rp270
aaa(lp271
(lp272
g244
aS'../Data/spear_4.csv'
p273
aS'../Data/spear_2.csv'
p274
aa(lp275
g8
(g12
S'\xe7\xeb\xae\xb0Gz\xf1?'
p276
tp277
Rp278
ag8
(g12
S'333333\xf3?'
p279
tp280
Rp281
ag8
(g12
S'\xfa\xc1\x15\xf7N\xb2\xf4?'
p282
tp283
Rp284
aaa(lp285
(lp286
g274
ag245
aa(lp287
g8
(g12
S'\xfa\xc1\x15\xf7N\xb2\xf4?'
p288
tp289
Rp290
ag8
(g12
S'\x00\x00\x00\x00\x00\x00\x00\x00'
p291
tp292
Rp293
aaa(lp294
(lp295
g273
ag245
aa(lp296
g8
(g12
S'333333\xf3?'
p297
tp298
Rp299
ag8
(g12
S'\x00\x00\x00\x00\x00\x00\x00\x00'
p300
tp301
Rp302
aaa(lp303
(lp304
g256
ag274
ag257
aS'../Data/spear_8.csv'
p305
aa(lp306
g8
(g12
S'\x9a\x99\x99\x99\x99\x99\xe9?'
p307
tp308
Rp309
ag8
(g12
S'\xfa\xc1\x15\xf7N\xb2\xf4?'
p310
tp311
Rp312
ag8
(g12
S'u\x97\x0c\xdf\x88\x02\xd3?'
p313
tp314
Rp315
ag8
(g12
S'\xe4\x82\x0c@\xeb\xef\xb9?'
p316
tp317
Rp318
aaa(lp319
(lp320
g274
ag305
aa(lp321
g8
(g12
S'\xfa\xc1\x15\xf7N\xb2\xf4?'
p322
tp323
Rp324
ag8
(g12
S'\xe4\x82\x0c@\xeb\xef\xb9?'
p325
tp326
Rp327
aaa(lp328
(lp329
g256
ag245
aa(lp330
g8
(g12
S'\x9a\x99\x99\x99\x99\x99\xe9?'
p331
tp332
Rp333
ag8
(g12
S'\x00\x00\x00\x00\x00\x00\x00\x00'
p334
tp335
Rp336
aaa(lp337
(lp338
g255
aS'../Data/spear_0.csv'
p339
aS'../Data/spear_3.csv'
p340
aa(lp341
g8
(g12
S'\x00\x00\x00\x00\x00\x00\x00\x00'
p342
tp343
Rp344
ag8
(g12
S'\x80\x88eY\x96e\xb9?'
p345
tp346
Rp347
ag8
(g12
S'3\xa8\x91|J\xd5\xf7?'
p348
tp349
Rp350
aaa(lp351
(lp352
g244
ag305
ag339
ag340
ag245
aa(lp353
g8
(g12
S'\xe7\xeb\xae\xb0Gz\xf1?'
p354
tp355
Rp356
ag8
(g12
S'\xe4\x82\x0c@\xeb\xef\xb9?'
p357
tp358
Rp359
ag8
(g12
S'\x80\x88eY\x96e\xb9?'
p360
tp361
Rp362
ag8
(g12
S'3\xa8\x91|J\xd5\xf7?'
p363
tp364
Rp365
ag8
(g12
S'\x00\x00\x00\x00\x00\x00\x00\x00'
p366
tp367
Rp368
aaa(lp369
(lp370
g273
ag256
ag339
aa(lp371
g8
(g12
S'333333\xf3?'
p372
tp373
Rp374
ag8
(g12
S'\x9a\x99\x99\x99\x99\x99\xe9?'
p375
tp376
Rp377
ag8
(g12
S'\x80\x88eY\x96e\xb9?'
p378
tp379
Rp380
aaa(lp381
(lp382
g244
ag274
ag305
ag340
aa(lp383
g8
(g12
S'\xe7\xeb\xae\xb0Gz\xf1?'
p384
tp385
Rp386
ag8
(g12
S'\xfa\xc1\x15\xf7N\xb2\xf4?'
p387
tp388
Rp389
ag8
(g12
S'\xe4\x82\x0c@\xeb\xef\xb9?'
p390
tp391
Rp392
ag8
(g12
S'3\xa8\x91|J\xd5\xf7?'
p393
tp394
Rp395
aaa(lp396
(lp397
g273
ag245
aa(lp398
g8
(g12
S'333333\xf3?'
p399
tp400
Rp401
ag8
(g12
S'\x00\x00\x00\x00\x00\x00\x00\x00'
p402
tp403
Rp404
aaa(lp405
(lp406
g256
ag340
aa(lp407
g8
(g12
S'\x9a\x99\x99\x99\x99\x99\xe9?'
p408
tp409
Rp410
ag8
(g12
S'3\xa8\x91|J\xd5\xf7?'
p411
tp412
Rp413
aaa(lp414
(lp415
g273
ag305
ag339
aa(lp416
g8
(g12
S'333333\xf3?'
p417
tp418
Rp419
ag8
(g12
S'\xe4\x82\x0c@\xeb\xef\xb9?'
p420
tp421
Rp422
ag8
(g12
S'\x80\x88eY\x96e\xb9?'
p423
tp424
Rp425
aaa(lp426
(lp427
g339
ag245
aa(lp428
g8
(g12
S'\x80\x88eY\x96e\xb9?'
p429
tp430
Rp431
ag8
(g12
S'\x00\x00\x00\x00\x00\x00\x00\x00'
p432
tp433
Rp434
aaa(lp435
(lp436
g273
ag305
aa(lp437
g8
(g12
S'333333\xf3?'
p438
tp439
Rp440
ag8
(g12
S'\xe4\x82\x0c@\xeb\xef\xb9?'
p441
tp442
Rp443
aaa(lp444
(lp445
g256
ag274
aa(lp446
g8
(g12
S'\x9a\x99\x99\x99\x99\x99\xe9?'
p447
tp448
Rp449
ag8
(g12
S'\xfa\xc1\x15\xf7N\xb2\xf4?'
p450
tp451
Rp452
aaa(lp453
(lp454
g305
ag340
aa(lp455
g8
(g12
S'\xe4\x82\x0c@\xeb\xef\xb9?'
p456
tp457
Rp458
ag8
(g12
S'3\xa8\x91|J\xd5\xf7?'
p459
tp460
Rp461
aaa(lp462
(lp463
g256
ag257
aa(lp464
g8
(g12
S'\x9a\x99\x99\x99\x99\x99\xe9?'
p465
tp466
Rp467
ag8
(g12
S'u\x97\x0c\xdf\x88\x02\xd3?'
p468
tp469
Rp470
aaasS'sac'
p471
(lp472
(lp473
(lp474
S'../Data/sac_2.csv'
p475
aS'../Data/sac_4.csv'
p476
aa(lp477
g8
(g12
S'\xce\x1e\xcd\xa5\xed\xeeW@'
p478
tp479
Rp480
ag8
(g12
S'nhK8J\x83\xee?'
p481
tp482
Rp483
aaa(lp484
(lp485
g475
aS'../Data/sac_8.csv'
p486
aa(lp487
g8
(g12
S'\xce\x1e\xcd\xa5\xed\xeeW@'
p488
tp489
Rp490
ag8
(g12
S'N\xbd\xed\x96\xa4W\xeb?'
p491
tp492
Rp493
aaa(lp494
(lp495
S'../Data/sac_7.csv'
p496
aa(lp497
g8
(g12
S'\xde\xc1\x98\xfc?\x02\xf3?'
p498
tp499
Rp500
aaa(lp501
(lp502
g475
ag476
aa(lp503
g8
(g12
S'\xce\x1e\xcd\xa5\xed\xeeW@'
p504
tp505
Rp506
ag8
(g12
S'nhK8J\x83\xee?'
p507
tp508
Rp509
aaa(lp510
(lp511
g475
ag476
aa(lp512
g8
(g12
S'\xce\x1e\xcd\xa5\xed\xeeW@'
p513
tp514
Rp515
ag8
(g12
S'nhK8J\x83\xee?'
p516
tp517
Rp518
aaa(lp519
(lp520
g496
ag475
aa(lp521
g8
(g12
S'\xde\xc1\x98\xfc?\x02\xf3?'
p522
tp523
Rp524
ag8
(g12
S'\xce\x1e\xcd\xa5\xed\xeeW@'
p525
tp526
Rp527
aaa(lp528
(lp529
g475
aS'../Data/sac_6.csv'
p530
aa(lp531
g8
(g12
S'\xce\x1e\xcd\xa5\xed\xeeW@'
p532
tp533
Rp534
ag8
(g12
S'\xf9e\x0c\xb3>\x17\xef?'
p535
tp536
Rp537
aaa(lp538
(lp539
g475
ag476
aa(lp540
g8
(g12
S'\xce\x1e\xcd\xa5\xed\xeeW@'
p541
tp542
Rp543
ag8
(g12
S'nhK8J\x83\xee?'
p544
tp545
Rp546
aaa(lp547
(lp548
g475
ag476
aa(lp549
g8
(g12
S'\xce\x1e\xcd\xa5\xed\xeeW@'
p550
tp551
Rp552
ag8
(g12
S'nhK8J\x83\xee?'
p553
tp554
Rp555
aaa(lp556
(lp557
g475
ag476
ag530
aa(lp558
g8
(g12
S'\xce\x1e\xcd\xa5\xed\xeeW@'
p559
tp560
Rp561
ag8
(g12
S'nhK8J\x83\xee?'
p562
tp563
Rp564
ag8
(g12
S'\xf9e\x0c\xb3>\x17\xef?'
p565
tp566
Rp567
aaa(lp568
(lp569
g475
ag486
aa(lp570
g8
(g12
S'\xce\x1e\xcd\xa5\xed\xeeW@'
p571
tp572
Rp573
ag8
(g12
S'N\xbd\xed\x96\xa4W\xeb?'
p574
tp575
Rp576
aaa(lp577
(lp578
g496
ag475
aS'../Data/sac_9.csv'
p579
aa(lp580
g8
(g12
S'\xde\xc1\x98\xfc?\x02\xf3?'
p581
tp582
Rp583
ag8
(g12
S'\xce\x1e\xcd\xa5\xed\xeeW@'
p584
tp585
Rp586
ag8
(g12
S'\x87D\x8c\xe7\x97q\xe5?'
p587
tp588
Rp589
aaa(lp590
(lp591
g475
ag579
ag486
aa(lp592
g8
(g12
S'\xce\x1e\xcd\xa5\xed\xeeW@'
p593
tp594
Rp595
ag8
(g12
S'\x87D\x8c\xe7\x97q\xe5?'
p596
tp597
Rp598
ag8
(g12
S'N\xbd\xed\x96\xa4W\xeb?'
p599
tp600
Rp601
aaa(lp602
(lp603
g475
aS'../Data/sac_5.csv'
p604
aa(lp605
g8
(g12
S'\xce\x1e\xcd\xa5\xed\xeeW@'
p606
tp607
Rp608
ag8
(g12
S'.\xa7=\xf8\xa6\x8d-@'
p609
tp610
Rp611
aaa(lp612
(lp613
g475
ag530
aa(lp614
g8
(g12
S'\xce\x1e\xcd\xa5\xed\xeeW@'
p615
tp616
Rp617
ag8
(g12
S'\xf9e\x0c\xb3>\x17\xef?'
p618
tp619
Rp620
aaa(lp621
(lp622
g475
ag486
aa(lp623
g8
(g12
S'\xce\x1e\xcd\xa5\xed\xeeW@'
p624
tp625
Rp626
ag8
(g12
S'N\xbd\xed\x96\xa4W\xeb?'
p627
tp628
Rp629
aaa(lp630
(lp631
g475
ag476
aa(lp632
g8
(g12
S'\xce\x1e\xcd\xa5\xed\xeeW@'
p633
tp634
Rp635
ag8
(g12
S'nhK8J\x83\xee?'
p636
tp637
Rp638
aaa(lp639
(lp640
g476
ag530
aa(lp641
g8
(g12
S'nhK8J\x83\xee?'
p642
tp643
Rp644
ag8
(g12
S'\xf9e\x0c\xb3>\x17\xef?'
p645
tp646
Rp647
aaa(lp648
(lp649
g475
ag530
aa(lp650
g8
(g12
S'\xce\x1e\xcd\xa5\xed\xeeW@'
p651
tp652
Rp653
ag8
(g12
S'\xf9e\x0c\xb3>\x17\xef?'
p654
tp655
Rp656
aaa(lp657
(lp658
g475
ag476
aa(lp659
g8
(g12
S'\xce\x1e\xcd\xa5\xed\xeeW@'
p660
tp661
Rp662
ag8
(g12
S'nhK8J\x83\xee?'
p663
tp664
Rp665
aaasS'storm-obj2'
p666
(lp667
(lp668
(lp669
S'../Data/storm-obj2_feature6.csv'
p670
aS'../Data/storm-obj2_feature8.csv'
p671
aS'../Data/storm-obj2_feature9.csv'
p672
aa(lp673
g8
(g12
S'U\xf5I\xe7\xb1\xb84@'
p674
tp675
Rp676
ag8
(g12
S'f/\x9d\xfc\x80{\xc5?'
p677
tp678
Rp679
ag8
(g12
S'f/\x9d\xfc\x80{\xc5?'
p680
tp681
Rp682
aaa(lp683
(lp684
g670
ag671
aS'../Data/storm-obj2_feature7.csv'
p685
ag672
aa(lp686
g8
(g12
S'U\xf5I\xe7\xb1\xb84@'
p687
tp688
Rp689
ag8
(g12
S'f/\x9d\xfc\x80{\xc5?'
p690
tp691
Rp692
ag8
(g12
S'n\xd2\xc1Z\x19\xb94@'
p693
tp694
Rp695
ag8
(g12
S'f/\x9d\xfc\x80{\xc5?'
p696
tp697
Rp698
aaa(lp699
(lp700
g670
ag672
aa(lp701
g8
(g12
S'U\xf5I\xe7\xb1\xb84@'
p702
tp703
Rp704
ag8
(g12
S'f/\x9d\xfc\x80{\xc5?'
p705
tp706
Rp707
aaa(lp708
(lp709
g685
ag672
aa(lp710
g8
(g12
S'n\xd2\xc1Z\x19\xb94@'
p711
tp712
Rp713
ag8
(g12
S'f/\x9d\xfc\x80{\xc5?'
p714
tp715
Rp716
aaa(lp717
(lp718
g671
ag672
aa(lp719
g8
(g12
S'f/\x9d\xfc\x80{\xc5?'
p720
tp721
Rp722
ag8
(g12
S'f/\x9d\xfc\x80{\xc5?'
p723
tp724
Rp725
aaa(lp726
(lp727
g671
ag685
ag672
aa(lp728
g8
(g12
S'f/\x9d\xfc\x80{\xc5?'
p729
tp730
Rp731
ag8
(g12
S'n\xd2\xc1Z\x19\xb94@'
p732
tp733
Rp734
ag8
(g12
S'f/\x9d\xfc\x80{\xc5?'
p735
tp736
Rp737
aaa(lp738
(lp739
g670
ag671
ag672
aa(lp740
g8
(g12
S'U\xf5I\xe7\xb1\xb84@'
p741
tp742
Rp743
ag8
(g12
S'f/\x9d\xfc\x80{\xc5?'
p744
tp745
Rp746
ag8
(g12
S'f/\x9d\xfc\x80{\xc5?'
p747
tp748
Rp749
aaa(lp750
(lp751
g671
ag672
aa(lp752
g8
(g12
S'f/\x9d\xfc\x80{\xc5?'
p753
tp754
Rp755
ag8
(g12
S'f/\x9d\xfc\x80{\xc5?'
p756
tp757
Rp758
aaa(lp759
(lp760
g671
ag685
ag672
aa(lp761
g8
(g12
S'f/\x9d\xfc\x80{\xc5?'
p762
tp763
Rp764
ag8
(g12
S'n\xd2\xc1Z\x19\xb94@'
p765
tp766
Rp767
ag8
(g12
S'f/\x9d\xfc\x80{\xc5?'
p768
tp769
Rp770
aaa(lp771
(lp772
g670
ag671
ag672
aa(lp773
g8
(g12
S'U\xf5I\xe7\xb1\xb84@'
p774
tp775
Rp776
ag8
(g12
S'f/\x9d\xfc\x80{\xc5?'
p777
tp778
Rp779
ag8
(g12
S'f/\x9d\xfc\x80{\xc5?'
p780
tp781
Rp782
aaa(lp783
(lp784
g670
ag671
ag672
aa(lp785
g8
(g12
S'U\xf5I\xe7\xb1\xb84@'
p786
tp787
Rp788
ag8
(g12
S'f/\x9d\xfc\x80{\xc5?'
p789
tp790
Rp791
ag8
(g12
S'f/\x9d\xfc\x80{\xc5?'
p792
tp793
Rp794
aaa(lp795
(lp796
g670
ag671
ag685
ag672
aa(lp797
g8
(g12
S'U\xf5I\xe7\xb1\xb84@'
p798
tp799
Rp800
ag8
(g12
S'f/\x9d\xfc\x80{\xc5?'
p801
tp802
Rp803
ag8
(g12
S'n\xd2\xc1Z\x19\xb94@'
p804
tp805
Rp806
ag8
(g12
S'f/\x9d\xfc\x80{\xc5?'
p807
tp808
Rp809
aaa(lp810
(lp811
g671
ag685
aa(lp812
g8
(g12
S'f/\x9d\xfc\x80{\xc5?'
p813
tp814
Rp815
ag8
(g12
S'n\xd2\xc1Z\x19\xb94@'
p816
tp817
Rp818
aaa(lp819
(lp820
g670
ag671
ag685
ag672
aa(lp821
g8
(g12
S'U\xf5I\xe7\xb1\xb84@'
p822
tp823
Rp824
ag8
(g12
S'f/\x9d\xfc\x80{\xc5?'
p825
tp826
Rp827
ag8
(g12
S'n\xd2\xc1Z\x19\xb94@'
p828
tp829
Rp830
ag8
(g12
S'f/\x9d\xfc\x80{\xc5?'
p831
tp832
Rp833
aaa(lp834
(lp835
g671
ag685
ag672
aa(lp836
g8
(g12
S'f/\x9d\xfc\x80{\xc5?'
p837
tp838
Rp839
ag8
(g12
S'n\xd2\xc1Z\x19\xb94@'
p840
tp841
Rp842
ag8
(g12
S'f/\x9d\xfc\x80{\xc5?'
p843
tp844
Rp845
aaa(lp846
(lp847
g671
ag685
aa(lp848
g8
(g12
S'f/\x9d\xfc\x80{\xc5?'
p849
tp850
Rp851
ag8
(g12
S'n\xd2\xc1Z\x19\xb94@'
p852
tp853
Rp854
aaa(lp855
(lp856
g671
ag672
aa(lp857
g8
(g12
S'f/\x9d\xfc\x80{\xc5?'
p858
tp859
Rp860
ag8
(g12
S'f/\x9d\xfc\x80{\xc5?'
p861
tp862
Rp863
aaa(lp864
(lp865
g671
ag672
aa(lp866
g8
(g12
S'f/\x9d\xfc\x80{\xc5?'
p867
tp868
Rp869
ag8
(g12
S'f/\x9d\xfc\x80{\xc5?'
p870
tp871
Rp872
aaa(lp873
(lp874
g671
ag685
ag672
aa(lp875
g8
(g12
S'f/\x9d\xfc\x80{\xc5?'
p876
tp877
Rp878
ag8
(g12
S'n\xd2\xc1Z\x19\xb94@'
p879
tp880
Rp881
ag8
(g12
S'f/\x9d\xfc\x80{\xc5?'
p882
tp883
Rp884
aaa(lp885
(lp886
g671
ag672
aa(lp887
g8
(g12
S'f/\x9d\xfc\x80{\xc5?'
p888
tp889
Rp890
ag8
(g12
S'f/\x9d\xfc\x80{\xc5?'
p891
tp892
Rp893
aaasS'storm-obj1'
p894
(lp895
(lp896
(lp897
S'../Data/storm-obj1_feature8.csv'
p898
aS'../Data/storm-obj1_feature9.csv'
p899
aa(lp900
g8
(g12
S'\xf9@kZ\xe0\xd7%@'
p901
tp902
Rp903
ag8
(g12
S'\x1a\xbe\xa1\xe0\x1f)<@'
p904
tp905
Rp906
aaa(lp907
(lp908
g898
aS'../Data/storm-obj1_feature7.csv'
p909
aa(lp910
g8
(g12
S'\xf9@kZ\xe0\xd7%@'
p911
tp912
Rp913
ag8
(g12
S'\x82\n\x94\x9f3KH@'
p914
tp915
Rp916
aaa(lp917
(lp918
g909
ag899
aa(lp919
g8
(g12
S'\x82\n\x94\x9f3KH@'
p920
tp921
Rp922
ag8
(g12
S'\x1a\xbe\xa1\xe0\x1f)<@'
p923
tp924
Rp925
aaa(lp926
(lp927
g909
ag899
aa(lp928
g8
(g12
S'\x82\n\x94\x9f3KH@'
p929
tp930
Rp931
ag8
(g12
S'\x1a\xbe\xa1\xe0\x1f)<@'
p932
tp933
Rp934
aaa(lp935
(lp936
S'../Data/storm-obj1_feature6.csv'
p937
ag899
aa(lp938
g8
(g12
S'3\rP\x16\xd6\x7f;@'
p939
tp940
Rp941
ag8
(g12
S'\x1a\xbe\xa1\xe0\x1f)<@'
p942
tp943
Rp944
aaa(lp945
(lp946
g898
ag899
aa(lp947
g8
(g12
S'\xf9@kZ\xe0\xd7%@'
p948
tp949
Rp950
ag8
(g12
S'\x1a\xbe\xa1\xe0\x1f)<@'
p951
tp952
Rp953
aaa(lp954
(lp955
g898
ag899
aa(lp956
g8
(g12
S'\xf9@kZ\xe0\xd7%@'
p957
tp958
Rp959
ag8
(g12
S'\x1a\xbe\xa1\xe0\x1f)<@'
p960
tp961
Rp962
aaa(lp963
(lp964
g898
ag909
aa(lp965
g8
(g12
S'\xf9@kZ\xe0\xd7%@'
p966
tp967
Rp968
ag8
(g12
S'\x82\n\x94\x9f3KH@'
p969
tp970
Rp971
aaa(lp972
(lp973
g909
ag899
aa(lp974
g8
(g12
S'\x82\n\x94\x9f3KH@'
p975
tp976
Rp977
ag8
(g12
S'\x1a\xbe\xa1\xe0\x1f)<@'
p978
tp979
Rp980
aaa(lp981
(lp982
g937
ag898
aa(lp983
g8
(g12
S'3\rP\x16\xd6\x7f;@'
p984
tp985
Rp986
ag8
(g12
S'\xf9@kZ\xe0\xd7%@'
p987
tp988
Rp989
aaa(lp990
(lp991
g898
ag899
aa(lp992
g8
(g12
S'\xf9@kZ\xe0\xd7%@'
p993
tp994
Rp995
ag8
(g12
S'\x1a\xbe\xa1\xe0\x1f)<@'
p996
tp997
Rp998
aaa(lp999
(lp1000
g937
ag898
aa(lp1001
g8
(g12
S'3\rP\x16\xd6\x7f;@'
p1002
tp1003
Rp1004
ag8
(g12
S'\xf9@kZ\xe0\xd7%@'
p1005
tp1006
Rp1007
aaa(lp1008
(lp1009
g937
ag898
aa(lp1010
g8
(g12
S'3\rP\x16\xd6\x7f;@'
p1011
tp1012
Rp1013
ag8
(g12
S'\xf9@kZ\xe0\xd7%@'
p1014
tp1015
Rp1016
aaa(lp1017
(lp1018
g937
ag898
ag909
aa(lp1019
g8
(g12
S'3\rP\x16\xd6\x7f;@'
p1020
tp1021
Rp1022
ag8
(g12
S'\xf9@kZ\xe0\xd7%@'
p1023
tp1024
Rp1025
ag8
(g12
S'\x82\n\x94\x9f3KH@'
p1026
tp1027
Rp1028
aaa(lp1029
(lp1030
g898
ag909
aa(lp1031
g8
(g12
S'\xf9@kZ\xe0\xd7%@'
p1032
tp1033
Rp1034
ag8
(g12
S'\x82\n\x94\x9f3KH@'
p1035
tp1036
Rp1037
aaa(lp1038
(lp1039
g898
ag899
aa(lp1040
g8
(g12
S'\xf9@kZ\xe0\xd7%@'
p1041
tp1042
Rp1043
ag8
(g12
S'\x1a\xbe\xa1\xe0\x1f)<@'
p1044
tp1045
Rp1046
aaa(lp1047
(lp1048
g937
ag899
aa(lp1049
g8
(g12
S'3\rP\x16\xd6\x7f;@'
p1050
tp1051
Rp1052
ag8
(g12
S'\x1a\xbe\xa1\xe0\x1f)<@'
p1053
tp1054
Rp1055
aaa(lp1056
(lp1057
g898
ag899
aa(lp1058
g8
(g12
S'\xf9@kZ\xe0\xd7%@'
p1059
tp1060
Rp1061
ag8
(g12
S'\x1a\xbe\xa1\xe0\x1f)<@'
p1062
tp1063
Rp1064
aaa(lp1065
(lp1066
g937
ag898
ag899
aa(lp1067
g8
(g12
S'3\rP\x16\xd6\x7f;@'
p1068
tp1069
Rp1070
ag8
(g12
S'\xf9@kZ\xe0\xd7%@'
p1071
tp1072
Rp1073
ag8
(g12
S'\x1a\xbe\xa1\xe0\x1f)<@'
p1074
tp1075
Rp1076
aaa(lp1077
(lp1078
g898
ag909
aa(lp1079
g8
(g12
S'\xf9@kZ\xe0\xd7%@'
p1080
tp1081
Rp1082
ag8
(g12
S'\x82\n\x94\x9f3KH@'
p1083
tp1084
Rp1085
aaasS'x264'
p1086
(lp1087
(lp1088
(lp1089
S'../Data/x264_7.csv'
p1090
aS'../Data/x264_4.csv'
p1091
aS'../Data/x264_14.csv'
p1092
aa(lp1093
g8
(g12
S'hy\xc53\xf9 F@'
p1094
tp1095
Rp1096
ag8
(g12
S'\xb9\x82\x8d\xbd\xc2\x92E@'
p1097
tp1098
Rp1099
ag8
(g12
S'ff\xb2\x95\xb7\xf4;@'
p1100
tp1101
Rp1102
aaa(lp1103
(lp1104
g1090
aS'../Data/x264_11.csv'
p1105
aS'../Data/x264_10.csv'
p1106
aa(lp1107
g8
(g12
S'hy\xc53\xf9 F@'
p1108
tp1109
Rp1110
ag8
(g12
S'\x1cQ\xc7\xca#dE@'
p1111
tp1112
Rp1113
ag8
(g12
S'hy\xc53\xf9 F@'
p1114
tp1115
Rp1116
aaa(lp1117
(lp1118
S'../Data/x264_2.csv'
p1119
aS'../Data/x264_3.csv'
p1120
aa(lp1121
g8
(g12
S'\x80\xdc\xb70\x90PI@'
p1122
tp1123
Rp1124
ag8
(g12
S'^c\xaf J\xf89@'
p1125
tp1126
Rp1127
aaa(lp1128
(lp1129
S'../Data/x264_13.csv'
p1130
aS'../Data/x264_5.csv'
p1131
aa(lp1132
g8
(g12
S'<\xa0\xd1>\xbb\x0c;@'
p1133
tp1134
Rp1135
ag8
(g12
S'\xb9\x82\x8d\xbd\xc2\x92E@'
p1136
tp1137
Rp1138
aaa(lp1139
(lp1140
g1119
ag1091
aa(lp1141
g8
(g12
S'\x80\xdc\xb70\x90PI@'
p1142
tp1143
Rp1144
ag8
(g12
S'\xb9\x82\x8d\xbd\xc2\x92E@'
p1145
tp1146
Rp1147
aaa(lp1148
(lp1149
g1090
ag1105
aa(lp1150
g8
(g12
S'hy\xc53\xf9 F@'
p1151
tp1152
Rp1153
ag8
(g12
S'\x1cQ\xc7\xca#dE@'
p1154
tp1155
Rp1156
aaa(lp1157
(lp1158
S'../Data/x264_1.csv'
p1159
ag1091
aS'../Data/x264_18.csv'
p1160
aa(lp1161
g8
(g12
S'\x1cQ\xc7\xca#dE@'
p1162
tp1163
Rp1164
ag8
(g12
S'\xb9\x82\x8d\xbd\xc2\x92E@'
p1165
tp1166
Rp1167
ag8
(g12
S'^c\xaf J\xf89@'
p1168
tp1169
Rp1170
aaa(lp1171
(lp1172
g1130
aS'../Data/x264_8.csv'
p1173
aa(lp1174
g8
(g12
S'<\xa0\xd1>\xbb\x0c;@'
p1175
tp1176
Rp1177
ag8
(g12
S'\x1cQ\xc7\xca#dE@'
p1178
tp1179
Rp1180
aaa(lp1181
(lp1182
g1092
ag1130
aa(lp1183
g8
(g12
S'ff\xb2\x95\xb7\xf4;@'
p1184
tp1185
Rp1186
ag8
(g12
S'<\xa0\xd1>\xbb\x0c;@'
p1187
tp1188
Rp1189
aaa(lp1190
(lp1191
g1159
ag1173
aa(lp1192
g8
(g12
S'\x1cQ\xc7\xca#dE@'
p1193
tp1194
Rp1195
ag8
(g12
S'\x1cQ\xc7\xca#dE@'
p1196
tp1197
Rp1198
aaa(lp1199
(lp1200
g1120
ag1131
aa(lp1201
g8
(g12
S'^c\xaf J\xf89@'
p1202
tp1203
Rp1204
ag8
(g12
S'\xb9\x82\x8d\xbd\xc2\x92E@'
p1205
tp1206
Rp1207
aaa(lp1208
(lp1209
g1119
ag1159
ag1130
aS'../Data/x264_0.csv'
p1210
aa(lp1211
g8
(g12
S'\x80\xdc\xb70\x90PI@'
p1212
tp1213
Rp1214
ag8
(g12
S'\x1cQ\xc7\xca#dE@'
p1215
tp1216
Rp1217
ag8
(g12
S'<\xa0\xd1>\xbb\x0c;@'
p1218
tp1219
Rp1220
ag8
(g12
S'\x15G\xa2\xa3K\xf2:@'
p1221
tp1222
Rp1223
aaa(lp1224
(lp1225
g1090
ag1105
aa(lp1226
g8
(g12
S'hy\xc53\xf9 F@'
p1227
tp1228
Rp1229
ag8
(g12
S'\x1cQ\xc7\xca#dE@'
p1230
tp1231
Rp1232
aaa(lp1233
(lp1234
g1092
ag1106
aa(lp1235
g8
(g12
S'ff\xb2\x95\xb7\xf4;@'
p1236
tp1237
Rp1238
ag8
(g12
S'hy\xc53\xf9 F@'
p1239
tp1240
Rp1241
aaa(lp1242
(lp1243
g1105
ag1131
aa(lp1244
g8
(g12
S'\x1cQ\xc7\xca#dE@'
p1245
tp1246
Rp1247
ag8
(g12
S'\xb9\x82\x8d\xbd\xc2\x92E@'
p1248
tp1249
Rp1250
aaa(lp1251
(lp1252
g1159
ag1131
aa(lp1253
g8
(g12
S'\x1cQ\xc7\xca#dE@'
p1254
tp1255
Rp1256
ag8
(g12
S'\xb9\x82\x8d\xbd\xc2\x92E@'
p1257
tp1258
Rp1259
aaa(lp1260
(lp1261
g1159
ag1091
aa(lp1262
g8
(g12
S'\x1cQ\xc7\xca#dE@'
p1263
tp1264
Rp1265
ag8
(g12
S'\xb9\x82\x8d\xbd\xc2\x92E@'
p1266
tp1267
Rp1268
aaa(lp1269
(lp1270
g1105
ag1106
aa(lp1271
g8
(g12
S'\x1cQ\xc7\xca#dE@'
p1272
tp1273
Rp1274
ag8
(g12
S'hy\xc53\xf9 F@'
p1275
tp1276
Rp1277
aaa(lp1278
(lp1279
g1119
ag1159
ag1130
ag1131
aa(lp1280
g8
(g12
S'\x80\xdc\xb70\x90PI@'
p1281
tp1282
Rp1283
ag8
(g12
S'\x1cQ\xc7\xca#dE@'
p1284
tp1285
Rp1286
ag8
(g12
S'<\xa0\xd1>\xbb\x0c;@'
p1287
tp1288
Rp1289
ag8
(g12
S'\xb9\x82\x8d\xbd\xc2\x92E@'
p1290
tp1291
Rp1292
aaa(lp1293
(lp1294
g1090
ag1106
aa(lp1295
g8
(g12
S'hy\xc53\xf9 F@'
p1296
tp1297
Rp1298
ag8
(g12
S'hy\xc53\xf9 F@'
p1299
tp1300
Rp1301
aaas.