(dp0
S'sqlite'
p1
(lp2
(lp3
(lp4
S'../Data/sqlite_79.csv'
p5
aa(lp6
cnumpy.core.multiarray
scalar
p7
(cnumpy
dtype
p8
(S'f8'
p9
I0
I1
tp10
Rp11
(I3
S'<'
p12
NNNI-1
I-1
I0
tp13
bS')\x80\xae\xdf"\x19$@'
p14
tp15
Rp16
aaa(lp17
(lp18
S'../Data/sqlite_44.csv'
p19
aa(lp20
g7
(g11
S'\x13}\x8f\xac\xf9\xdf\x18@'
p21
tp22
Rp23
aaa(lp24
(lp25
S'../Data/sqlite_16.csv'
p26
aa(lp27
g7
(g11
S'\x08\x98\x06?\x02\xfc\x1a@'
p28
tp29
Rp30
aaa(lp31
(lp32
g26
aa(lp33
g7
(g11
S'\x08\x98\x06?\x02\xfc\x1a@'
p34
tp35
Rp36
aaa(lp37
(lp38
S'../Data/sqlite_52.csv'
p39
aa(lp40
g7
(g11
S'\xe8\x8c\xbe\xeb\x08[0@'
p41
tp42
Rp43
aaa(lp44
(lp45
S'../Data/sqlite_59.csv'
p46
aa(lp47
g7
(g11
S'E\x9doi\xa1\x0e#@'
p48
tp49
Rp50
aaa(lp51
(lp52
g19
aa(lp53
g7
(g11
S'\x13}\x8f\xac\xf9\xdf\x18@'
p54
tp55
Rp56
aaa(lp57
(lp58
g46
aa(lp59
g7
(g11
S'E\x9doi\xa1\x0e#@'
p60
tp61
Rp62
aaa(lp63
(lp64
S'../Data/sqlite_73.csv'
p65
aa(lp66
g7
(g11
S'|P\xb9\xc1\xa7\xae1@'
p67
tp68
Rp69
aaa(lp70
(lp71
S'../Data/sqlite_45.csv'
p72
aa(lp73
g7
(g11
S'\xa6|\xe4u\xcd\xce\x1d@'
p74
tp75
Rp76
aaa(lp77
(lp78
S'../Data/sqlite_17.csv'
p79
aa(lp80
g7
(g11
S'\x08\x98\x06?\x02\xfc\x1a@'
p81
tp82
Rp83
aaa(lp84
(lp85
S'../Data/sqlite_18.csv'
p86
aa(lp87
g7
(g11
S'\xdayC\xf5)o\x16@'
p88
tp89
Rp90
aaa(lp91
(lp92
g46
aa(lp93
g7
(g11
S'E\x9doi\xa1\x0e#@'
p94
tp95
Rp96
aaa(lp97
(lp98
g39
aa(lp99
g7
(g11
S'\xe8\x8c\xbe\xeb\x08[0@'
p100
tp101
Rp102
aaa(lp103
(lp104
g86
aa(lp105
g7
(g11
S'\xdayC\xf5)o\x16@'
p106
tp107
Rp108
aaa(lp109
(lp110
g5
aa(lp111
g7
(g11
S')\x80\xae\xdf"\x19$@'
p112
tp113
Rp114
aaa(lp115
(lp116
S'../Data/sqlite_19.csv'
p117
aa(lp118
g7
(g11
S'\xdfz\x7f \xba\x8f3@'
p119
tp120
Rp121
aaa(lp122
(lp123
g26
aa(lp124
g7
(g11
S'\x08\x98\x06?\x02\xfc\x1a@'
p125
tp126
Rp127
aaa(lp128
(lp129
g46
aa(lp130
g7
(g11
S'E\x9doi\xa1\x0e#@'
p131
tp132
Rp133
aaa(lp134
(lp135
g117
aa(lp136
g7
(g11
S'\xdfz\x7f \xba\x8f3@'
p137
tp138
Rp139
aaasS'spear'
p140
(lp141
(lp142
(lp143
S'../Data/spear_9.csv'
p144
aa(lp145
g7
(g11
S'\x00\x00\x00\x00\x00\x00\x00\x00'
p146
tp147
Rp148
aaa(lp149
(lp150
S'../Data/spear_1.csv'
p151
aa(lp152
g7
(g11
S'\xe7\xeb\xae\xb0Gz\xf1?'
p153
tp154
Rp155
aaa(lp156
(lp157
S'../Data/spear_7.csv'
p158
aa(lp159
g7
(g11
S'\x9a\x99\x99\x99\x99\x99\xe9?'
p160
tp161
Rp162
aaa(lp163
(lp164
g151
aa(lp165
g7
(g11
S'\xe7\xeb\xae\xb0Gz\xf1?'
p166
tp167
Rp168
aaa(lp169
(lp170
g151
aa(lp171
g7
(g11
S'\xe7\xeb\xae\xb0Gz\xf1?'
p172
tp173
Rp174
aaa(lp175
(lp176
g151
aa(lp177
g7
(g11
S'\xe7\xeb\xae\xb0Gz\xf1?'
p178
tp179
Rp180
aaa(lp181
(lp182
g158
aa(lp183
g7
(g11
S'\x9a\x99\x99\x99\x99\x99\xe9?'
p184
tp185
Rp186
aaa(lp187
(lp188
g158
aa(lp189
g7
(g11
S'\x9a\x99\x99\x99\x99\x99\xe9?'
p190
tp191
Rp192
aaa(lp193
(lp194
g158
aa(lp195
g7
(g11
S'\x9a\x99\x99\x99\x99\x99\xe9?'
p196
tp197
Rp198
aaa(lp199
(lp200
g151
aa(lp201
g7
(g11
S'\xe7\xeb\xae\xb0Gz\xf1?'
p202
tp203
Rp204
aaa(lp205
(lp206
g158
aa(lp207
g7
(g11
S'\x9a\x99\x99\x99\x99\x99\xe9?'
p208
tp209
Rp210
aaa(lp211
(lp212
g144
aa(lp213
g7
(g11
S'\x00\x00\x00\x00\x00\x00\x00\x00'
p214
tp215
Rp216
aaa(lp217
(lp218
g151
aa(lp219
g7
(g11
S'\xe7\xeb\xae\xb0Gz\xf1?'
p220
tp221
Rp222
aaa(lp223
(lp224
g151
aa(lp225
g7
(g11
S'\xe7\xeb\xae\xb0Gz\xf1?'
p226
tp227
Rp228
aaa(lp229
(lp230
g158
aa(lp231
g7
(g11
S'\x9a\x99\x99\x99\x99\x99\xe9?'
p232
tp233
Rp234
aaa(lp235
(lp236
g144
aa(lp237
g7
(g11
S'\x00\x00\x00\x00\x00\x00\x00\x00'
p238
tp239
Rp240
aaa(lp241
(lp242
g158
aa(lp243
g7
(g11
S'\x9a\x99\x99\x99\x99\x99\xe9?'
p244
tp245
Rp246
aaa(lp247
(lp248
g158
aa(lp249
g7
(g11
S'\x9a\x99\x99\x99\x99\x99\xe9?'
p250
tp251
Rp252
aaa(lp253
(lp254
g151
aa(lp255
g7
(g11
S'\xe7\xeb\xae\xb0Gz\xf1?'
p256
tp257
Rp258
aaa(lp259
(lp260
g151
aa(lp261
g7
(g11
S'\xe7\xeb\xae\xb0Gz\xf1?'
p262
tp263
Rp264
aaasS'sac'
p265
(lp266
(lp267
(lp268
S'../Data/sac_4.csv'
p269
aa(lp270
g7
(g11
S'nhK8J\x83\xee?'
p271
tp272
Rp273
aaa(lp274
(lp275
g269
aa(lp276
g7
(g11
S'nhK8J\x83\xee?'
p277
tp278
Rp279
aaa(lp280
(lp281
g269
aa(lp282
g7
(g11
S'nhK8J\x83\xee?'
p283
tp284
Rp285
aaa(lp286
(lp287
S'../Data/sac_6.csv'
p288
aa(lp289
g7
(g11
S'\xf9e\x0c\xb3>\x17\xef?'
p290
tp291
Rp292
aaa(lp293
(lp294
S'../Data/sac_2.csv'
p295
aa(lp296
g7
(g11
S'\xce\x1e\xcd\xa5\xed\xeeW@'
p297
tp298
Rp299
aaa(lp300
(lp301
g269
aa(lp302
g7
(g11
S'nhK8J\x83\xee?'
p303
tp304
Rp305
aaa(lp306
(lp307
S'../Data/sac_8.csv'
p308
aa(lp309
g7
(g11
S'N\xbd\xed\x96\xa4W\xeb?'
p310
tp311
Rp312
aaa(lp313
(lp314
g295
aa(lp315
g7
(g11
S'\xce\x1e\xcd\xa5\xed\xeeW@'
p316
tp317
Rp318
aaa(lp319
(lp320
g269
aa(lp321
g7
(g11
S'nhK8J\x83\xee?'
p322
tp323
Rp324
aaa(lp325
(lp326
g295
aa(lp327
g7
(g11
S'\xce\x1e\xcd\xa5\xed\xeeW@'
p328
tp329
Rp330
aaa(lp331
(lp332
S'../Data/sac_9.csv'
p333
aa(lp334
g7
(g11
S'\x87D\x8c\xe7\x97q\xe5?'
p335
tp336
Rp337
aaa(lp338
(lp339
g288
aa(lp340
g7
(g11
S'\xf9e\x0c\xb3>\x17\xef?'
p341
tp342
Rp343
aaa(lp344
(lp345
g295
aa(lp346
g7
(g11
S'\xce\x1e\xcd\xa5\xed\xeeW@'
p347
tp348
Rp349
aaa(lp350
(lp351
g333
aa(lp352
g7
(g11
S'\x87D\x8c\xe7\x97q\xe5?'
p353
tp354
Rp355
aaa(lp356
(lp357
g269
aa(lp358
g7
(g11
S'nhK8J\x83\xee?'
p359
tp360
Rp361
aaa(lp362
(lp363
g269
aa(lp364
g7
(g11
S'nhK8J\x83\xee?'
p365
tp366
Rp367
aaa(lp368
(lp369
g333
aa(lp370
g7
(g11
S'\x87D\x8c\xe7\x97q\xe5?'
p371
tp372
Rp373
aaa(lp374
(lp375
g269
aa(lp376
g7
(g11
S'nhK8J\x83\xee?'
p377
tp378
Rp379
aaa(lp380
(lp381
g295
aa(lp382
g7
(g11
S'\xce\x1e\xcd\xa5\xed\xeeW@'
p383
tp384
Rp385
aaa(lp386
(lp387
g295
aa(lp388
g7
(g11
S'\xce\x1e\xcd\xa5\xed\xeeW@'
p389
tp390
Rp391
aaasS'storm-obj2'
p392
(lp393
(lp394
(lp395
S'../Data/storm-obj2_feature9.csv'
p396
aa(lp397
g7
(g11
S'f/\x9d\xfc\x80{\xc5?'
p398
tp399
Rp400
aaa(lp401
(lp402
g396
aa(lp403
g7
(g11
S'f/\x9d\xfc\x80{\xc5?'
p404
tp405
Rp406
aaa(lp407
(lp408
g396
aa(lp409
g7
(g11
S'f/\x9d\xfc\x80{\xc5?'
p410
tp411
Rp412
aaa(lp413
(lp414
g396
aa(lp415
g7
(g11
S'f/\x9d\xfc\x80{\xc5?'
p416
tp417
Rp418
aaa(lp419
(lp420
g396
aa(lp421
g7
(g11
S'f/\x9d\xfc\x80{\xc5?'
p422
tp423
Rp424
aaa(lp425
(lp426
g396
aa(lp427
g7
(g11
S'f/\x9d\xfc\x80{\xc5?'
p428
tp429
Rp430
aaa(lp431
(lp432
g396
aa(lp433
g7
(g11
S'f/\x9d\xfc\x80{\xc5?'
p434
tp435
Rp436
aaa(lp437
(lp438
g396
aa(lp439
g7
(g11
S'f/\x9d\xfc\x80{\xc5?'
p440
tp441
Rp442
aaa(lp443
(lp444
g396
aa(lp445
g7
(g11
S'f/\x9d\xfc\x80{\xc5?'
p446
tp447
Rp448
aaa(lp449
(lp450
g396
aa(lp451
g7
(g11
S'f/\x9d\xfc\x80{\xc5?'
p452
tp453
Rp454
aaa(lp455
(lp456
g396
aa(lp457
g7
(g11
S'f/\x9d\xfc\x80{\xc5?'
p458
tp459
Rp460
aaa(lp461
(lp462
g396
aa(lp463
g7
(g11
S'f/\x9d\xfc\x80{\xc5?'
p464
tp465
Rp466
aaa(lp467
(lp468
g396
aa(lp469
g7
(g11
S'f/\x9d\xfc\x80{\xc5?'
p470
tp471
Rp472
aaa(lp473
(lp474
g396
aa(lp475
g7
(g11
S'f/\x9d\xfc\x80{\xc5?'
p476
tp477
Rp478
aaa(lp479
(lp480
g396
aa(lp481
g7
(g11
S'f/\x9d\xfc\x80{\xc5?'
p482
tp483
Rp484
aaa(lp485
(lp486
g396
aa(lp487
g7
(g11
S'f/\x9d\xfc\x80{\xc5?'
p488
tp489
Rp490
aaa(lp491
(lp492
g396
aa(lp493
g7
(g11
S'f/\x9d\xfc\x80{\xc5?'
p494
tp495
Rp496
aaa(lp497
(lp498
g396
aa(lp499
g7
(g11
S'f/\x9d\xfc\x80{\xc5?'
p500
tp501
Rp502
aaa(lp503
(lp504
g396
aa(lp505
g7
(g11
S'f/\x9d\xfc\x80{\xc5?'
p506
tp507
Rp508
aaa(lp509
(lp510
g396
aa(lp511
g7
(g11
S'f/\x9d\xfc\x80{\xc5?'
p512
tp513
Rp514
aaasS'storm-obj1'
p515
(lp516
(lp517
(lp518
S'../Data/storm-obj1_feature8.csv'
p519
aa(lp520
g7
(g11
S'\xf9@kZ\xe0\xd7%@'
p521
tp522
Rp523
aaa(lp524
(lp525
g519
aa(lp526
g7
(g11
S'\xf9@kZ\xe0\xd7%@'
p527
tp528
Rp529
aaa(lp530
(lp531
S'../Data/storm-obj1_feature9.csv'
p532
aa(lp533
g7
(g11
S'\x1a\xbe\xa1\xe0\x1f)<@'
p534
tp535
Rp536
aaa(lp537
(lp538
g532
aa(lp539
g7
(g11
S'\x1a\xbe\xa1\xe0\x1f)<@'
p540
tp541
Rp542
aaa(lp543
(lp544
g519
aa(lp545
g7
(g11
S'\xf9@kZ\xe0\xd7%@'
p546
tp547
Rp548
aaa(lp549
(lp550
g532
aa(lp551
g7
(g11
S'\x1a\xbe\xa1\xe0\x1f)<@'
p552
tp553
Rp554
aaa(lp555
(lp556
g519
aa(lp557
g7
(g11
S'\xf9@kZ\xe0\xd7%@'
p558
tp559
Rp560
aaa(lp561
(lp562
g532
aa(lp563
g7
(g11
S'\x1a\xbe\xa1\xe0\x1f)<@'
p564
tp565
Rp566
aaa(lp567
(lp568
g519
aa(lp569
g7
(g11
S'\xf9@kZ\xe0\xd7%@'
p570
tp571
Rp572
aaa(lp573
(lp574
g532
aa(lp575
g7
(g11
S'\x1a\xbe\xa1\xe0\x1f)<@'
p576
tp577
Rp578
aaa(lp579
(lp580
g519
aa(lp581
g7
(g11
S'\xf9@kZ\xe0\xd7%@'
p582
tp583
Rp584
aaa(lp585
(lp586
g519
aa(lp587
g7
(g11
S'\xf9@kZ\xe0\xd7%@'
p588
tp589
Rp590
aaa(lp591
(lp592
g532
aa(lp593
g7
(g11
S'\x1a\xbe\xa1\xe0\x1f)<@'
p594
tp595
Rp596
aaa(lp597
(lp598
g519
aa(lp599
g7
(g11
S'\xf9@kZ\xe0\xd7%@'
p600
tp601
Rp602
aaa(lp603
(lp604
g532
aa(lp605
g7
(g11
S'\x1a\xbe\xa1\xe0\x1f)<@'
p606
tp607
Rp608
aaa(lp609
(lp610
g519
aa(lp611
g7
(g11
S'\xf9@kZ\xe0\xd7%@'
p612
tp613
Rp614
aaa(lp615
(lp616
g532
aa(lp617
g7
(g11
S'\x1a\xbe\xa1\xe0\x1f)<@'
p618
tp619
Rp620
aaa(lp621
(lp622
g532
aa(lp623
g7
(g11
S'\x1a\xbe\xa1\xe0\x1f)<@'
p624
tp625
Rp626
aaa(lp627
(lp628
g519
aa(lp629
g7
(g11
S'\xf9@kZ\xe0\xd7%@'
p630
tp631
Rp632
aaa(lp633
(lp634
g519
aa(lp635
g7
(g11
S'\xf9@kZ\xe0\xd7%@'
p636
tp637
Rp638
aaasS'x264'
p639
(lp640
(lp641
(lp642
S'../Data/x264_3.csv'
p643
aa(lp644
g7
(g11
S'^c\xaf J\xf89@'
p645
tp646
Rp647
aaa(lp648
(lp649
S'../Data/x264_9.csv'
p650
aa(lp651
g7
(g11
S'\xc9n%F\x8e\xe0@@'
p652
tp653
Rp654
aaa(lp655
(lp656
S'../Data/x264_7.csv'
p657
aa(lp658
g7
(g11
S'hy\xc53\xf9 F@'
p659
tp660
Rp661
aaa(lp662
(lp663
g657
aa(lp664
g7
(g11
S'hy\xc53\xf9 F@'
p665
tp666
Rp667
aaa(lp668
(lp669
S'../Data/x264_6.csv'
p670
aa(lp671
g7
(g11
S'\xa0\x8c\x96\xbe`3D@'
p672
tp673
Rp674
aaa(lp675
(lp676
S'../Data/x264_11.csv'
p677
aa(lp678
g7
(g11
S'\x1cQ\xc7\xca#dE@'
p679
tp680
Rp681
aaa(lp682
(lp683
S'../Data/x264_14.csv'
p684
aa(lp685
g7
(g11
S'ff\xb2\x95\xb7\xf4;@'
p686
tp687
Rp688
aaa(lp689
(lp690
S'../Data/x264_2.csv'
p691
aa(lp692
g7
(g11
S'\x80\xdc\xb70\x90PI@'
p693
tp694
Rp695
aaa(lp696
(lp697
S'../Data/x264_15.csv'
p698
aa(lp699
g7
(g11
S'WH\xfe\xec\xe14:@'
p700
tp701
Rp702
aaa(lp703
(lp704
S'../Data/x264_8.csv'
p705
aa(lp706
g7
(g11
S'\x1cQ\xc7\xca#dE@'
p707
tp708
Rp709
aaa(lp710
(lp711
S'../Data/x264_10.csv'
p712
aa(lp713
g7
(g11
S'hy\xc53\xf9 F@'
p714
tp715
Rp716
aaa(lp717
(lp718
g677
aa(lp719
g7
(g11
S'\x1cQ\xc7\xca#dE@'
p720
tp721
Rp722
aaa(lp723
(lp724
g677
aa(lp725
g7
(g11
S'\x1cQ\xc7\xca#dE@'
p726
tp727
Rp728
aaa(lp729
(lp730
g677
aa(lp731
g7
(g11
S'\x1cQ\xc7\xca#dE@'
p732
tp733
Rp734
aaa(lp735
(lp736
g684
aa(lp737
g7
(g11
S'ff\xb2\x95\xb7\xf4;@'
p738
tp739
Rp740
aaa(lp741
(lp742
g712
aa(lp743
g7
(g11
S'hy\xc53\xf9 F@'
p744
tp745
Rp746
aaa(lp747
(lp748
S'../Data/x264_20.csv'
p749
aa(lp750
g7
(g11
S'\xc6,\xfc\xf1\x89rH@'
p751
tp752
Rp753
aaa(lp754
(lp755
g657
aa(lp756
g7
(g11
S'hy\xc53\xf9 F@'
p757
tp758
Rp759
aaa(lp760
(lp761
g712
aa(lp762
g7
(g11
S'hy\xc53\xf9 F@'
p763
tp764
Rp765
aaa(lp766
(lp767
g705
aa(lp768
g7
(g11
S'\x1cQ\xc7\xca#dE@'
p769
tp770
Rp771
aaas.