(dp0
S'sqlite'
p1
(lp2
(lp3
(lp4
S'../Data/sqlite_44.csv'
p5
aa(lp6
cnumpy.core.multiarray
scalar
p7
(cnumpy
dtype
p8
(S'f8'
p9
I0
I1
tp10
Rp11
(I3
S'<'
p12
NNNI-1
I-1
I0
tp13
bS'\x13}\x8f\xac\xf9\xdf\x18@'
p14
tp15
Rp16
aaa(lp17
(lp18
S'../Data/sqlite_19.csv'
p19
aa(lp20
g7
(g11
S'\xdfz\x7f \xba\x8f3@'
p21
tp22
Rp23
aaa(lp24
(lp25
S'../Data/sqlite_16.csv'
p26
aa(lp27
g7
(g11
S'\x08\x98\x06?\x02\xfc\x1a@'
p28
tp29
Rp30
aaa(lp31
(lp32
g19
aa(lp33
g7
(g11
S'\xdfz\x7f \xba\x8f3@'
p34
tp35
Rp36
aaa(lp37
(lp38
S'../Data/sqlite_59.csv'
p39
aa(lp40
g7
(g11
S'E\x9doi\xa1\x0e#@'
p41
tp42
Rp43
aaa(lp44
(lp45
g19
aa(lp46
g7
(g11
S'\xdfz\x7f \xba\x8f3@'
p47
tp48
Rp49
aaa(lp50
(lp51
g19
aa(lp52
g7
(g11
S'\xdfz\x7f \xba\x8f3@'
p53
tp54
Rp55
aaa(lp56
(lp57
g19
aa(lp58
g7
(g11
S'\xdfz\x7f \xba\x8f3@'
p59
tp60
Rp61
aaa(lp62
(lp63
g5
aa(lp64
g7
(g11
S'\x13}\x8f\xac\xf9\xdf\x18@'
p65
tp66
Rp67
aaa(lp68
(lp69
S'../Data/sqlite_18.csv'
p70
aa(lp71
g7
(g11
S'\xdayC\xf5)o\x16@'
p72
tp73
Rp74
aaa(lp75
(lp76
g26
aa(lp77
g7
(g11
S'\x08\x98\x06?\x02\xfc\x1a@'
p78
tp79
Rp80
aaa(lp81
(lp82
g5
aa(lp83
g7
(g11
S'\x13}\x8f\xac\xf9\xdf\x18@'
p84
tp85
Rp86
aaa(lp87
(lp88
S'../Data/sqlite_11.csv'
p89
aa(lp90
g7
(g11
S'\xe2\x11\x8c\xdd\xdfY-@'
p91
tp92
Rp93
aaa(lp94
(lp95
g26
aa(lp96
g7
(g11
S'\x08\x98\x06?\x02\xfc\x1a@'
p97
tp98
Rp99
aaa(lp100
(lp101
g5
aa(lp102
g7
(g11
S'\x13}\x8f\xac\xf9\xdf\x18@'
p103
tp104
Rp105
aaa(lp106
(lp107
g26
aa(lp108
g7
(g11
S'\x08\x98\x06?\x02\xfc\x1a@'
p109
tp110
Rp111
aaa(lp112
(lp113
g5
aa(lp114
g7
(g11
S'\x13}\x8f\xac\xf9\xdf\x18@'
p115
tp116
Rp117
aaa(lp118
(lp119
g5
aa(lp120
g7
(g11
S'\x13}\x8f\xac\xf9\xdf\x18@'
p121
tp122
Rp123
aaa(lp124
(lp125
g5
aa(lp126
g7
(g11
S'\x13}\x8f\xac\xf9\xdf\x18@'
p127
tp128
Rp129
aaa(lp130
(lp131
g5
aa(lp132
g7
(g11
S'\x13}\x8f\xac\xf9\xdf\x18@'
p133
tp134
Rp135
aaasS'spear'
p136
(lp137
(lp138
(lp139
S'../Data/spear_7.csv'
p140
aa(lp141
g7
(g11
S'\x9a\x99\x99\x99\x99\x99\xe9?'
p142
tp143
Rp144
aaa(lp145
(lp146
g140
aa(lp147
g7
(g11
S'\x9a\x99\x99\x99\x99\x99\xe9?'
p148
tp149
Rp150
aaa(lp151
(lp152
S'../Data/spear_1.csv'
p153
aa(lp154
g7
(g11
S'\xe7\xeb\xae\xb0Gz\xf1?'
p155
tp156
Rp157
aaa(lp158
(lp159
S'../Data/spear_0.csv'
p160
aa(lp161
g7
(g11
S'\x80\x88eY\x96e\xb9?'
p162
tp163
Rp164
aaa(lp165
(lp166
g140
aa(lp167
g7
(g11
S'\x9a\x99\x99\x99\x99\x99\xe9?'
p168
tp169
Rp170
aaa(lp171
(lp172
g140
aa(lp173
g7
(g11
S'\x9a\x99\x99\x99\x99\x99\xe9?'
p174
tp175
Rp176
aaa(lp177
(lp178
g140
aa(lp179
g7
(g11
S'\x9a\x99\x99\x99\x99\x99\xe9?'
p180
tp181
Rp182
aaa(lp183
(lp184
g140
aa(lp185
g7
(g11
S'\x9a\x99\x99\x99\x99\x99\xe9?'
p186
tp187
Rp188
aaa(lp189
(lp190
S'../Data/spear_6.csv'
p191
aa(lp192
g7
(g11
S'\x00\x00\x00\x00\x00\x00\x00\x00'
p193
tp194
Rp195
aaa(lp196
(lp197
g140
aa(lp198
g7
(g11
S'\x9a\x99\x99\x99\x99\x99\xe9?'
p199
tp200
Rp201
aaa(lp202
(lp203
g140
aa(lp204
g7
(g11
S'\x9a\x99\x99\x99\x99\x99\xe9?'
p205
tp206
Rp207
aaa(lp208
(lp209
S'../Data/spear_2.csv'
p210
aa(lp211
g7
(g11
S'\xfa\xc1\x15\xf7N\xb2\xf4?'
p212
tp213
Rp214
aaa(lp215
(lp216
g140
aa(lp217
g7
(g11
S'\x9a\x99\x99\x99\x99\x99\xe9?'
p218
tp219
Rp220
aaa(lp221
(lp222
S'../Data/spear_3.csv'
p223
aa(lp224
g7
(g11
S'3\xa8\x91|J\xd5\xf7?'
p225
tp226
Rp227
aaa(lp228
(lp229
g160
aa(lp230
g7
(g11
S'\x80\x88eY\x96e\xb9?'
p231
tp232
Rp233
aaa(lp234
(lp235
g153
aa(lp236
g7
(g11
S'\xe7\xeb\xae\xb0Gz\xf1?'
p237
tp238
Rp239
aaa(lp240
(lp241
g140
aa(lp242
g7
(g11
S'\x9a\x99\x99\x99\x99\x99\xe9?'
p243
tp244
Rp245
aaa(lp246
(lp247
g140
aa(lp248
g7
(g11
S'\x9a\x99\x99\x99\x99\x99\xe9?'
p249
tp250
Rp251
aaa(lp252
(lp253
g153
aa(lp254
g7
(g11
S'\xe7\xeb\xae\xb0Gz\xf1?'
p255
tp256
Rp257
aaa(lp258
(lp259
g140
aa(lp260
g7
(g11
S'\x9a\x99\x99\x99\x99\x99\xe9?'
p261
tp262
Rp263
aaasS'sac'
p264
(lp265
(lp266
(lp267
S'../Data/sac_4.csv'
p268
aa(lp269
g7
(g11
S'nhK8J\x83\xee?'
p270
tp271
Rp272
aaa(lp273
(lp274
S'../Data/sac_2.csv'
p275
aa(lp276
g7
(g11
S'\xce\x1e\xcd\xa5\xed\xeeW@'
p277
tp278
Rp279
aaa(lp280
(lp281
g275
aa(lp282
g7
(g11
S'\xce\x1e\xcd\xa5\xed\xeeW@'
p283
tp284
Rp285
aaa(lp286
(lp287
g268
aa(lp288
g7
(g11
S'nhK8J\x83\xee?'
p289
tp290
Rp291
aaa(lp292
(lp293
g268
aa(lp294
g7
(g11
S'nhK8J\x83\xee?'
p295
tp296
Rp297
aaa(lp298
(lp299
g268
aa(lp300
g7
(g11
S'nhK8J\x83\xee?'
p301
tp302
Rp303
aaa(lp304
(lp305
g268
aa(lp306
g7
(g11
S'nhK8J\x83\xee?'
p307
tp308
Rp309
aaa(lp310
(lp311
S'../Data/sac_7.csv'
p312
aa(lp313
g7
(g11
S'\xde\xc1\x98\xfc?\x02\xf3?'
p314
tp315
Rp316
aaa(lp317
(lp318
S'../Data/sac_6.csv'
p319
aa(lp320
g7
(g11
S'\xf9e\x0c\xb3>\x17\xef?'
p321
tp322
Rp323
aaa(lp324
(lp325
g275
aa(lp326
g7
(g11
S'\xce\x1e\xcd\xa5\xed\xeeW@'
p327
tp328
Rp329
aaa(lp330
(lp331
S'../Data/sac_9.csv'
p332
aa(lp333
g7
(g11
S'\x87D\x8c\xe7\x97q\xe5?'
p334
tp335
Rp336
aaa(lp337
(lp338
g275
aa(lp339
g7
(g11
S'\xce\x1e\xcd\xa5\xed\xeeW@'
p340
tp341
Rp342
aaa(lp343
(lp344
g275
aa(lp345
g7
(g11
S'\xce\x1e\xcd\xa5\xed\xeeW@'
p346
tp347
Rp348
aaa(lp349
(lp350
g275
aa(lp351
g7
(g11
S'\xce\x1e\xcd\xa5\xed\xeeW@'
p352
tp353
Rp354
aaa(lp355
(lp356
g275
aa(lp357
g7
(g11
S'\xce\x1e\xcd\xa5\xed\xeeW@'
p358
tp359
Rp360
aaa(lp361
(lp362
g275
aa(lp363
g7
(g11
S'\xce\x1e\xcd\xa5\xed\xeeW@'
p364
tp365
Rp366
aaa(lp367
(lp368
g275
aa(lp369
g7
(g11
S'\xce\x1e\xcd\xa5\xed\xeeW@'
p370
tp371
Rp372
aaa(lp373
(lp374
g268
aa(lp375
g7
(g11
S'nhK8J\x83\xee?'
p376
tp377
Rp378
aaa(lp379
(lp380
g275
aa(lp381
g7
(g11
S'\xce\x1e\xcd\xa5\xed\xeeW@'
p382
tp383
Rp384
aaa(lp385
(lp386
g268
aa(lp387
g7
(g11
S'nhK8J\x83\xee?'
p388
tp389
Rp390
aaasS'storm-obj2'
p391
(lp392
(lp393
(lp394
S'../Data/storm-obj2_feature9.csv'
p395
aa(lp396
g7
(g11
S'f/\x9d\xfc\x80{\xc5?'
p397
tp398
Rp399
aaa(lp400
(lp401
g395
aa(lp402
g7
(g11
S'f/\x9d\xfc\x80{\xc5?'
p403
tp404
Rp405
aaa(lp406
(lp407
g395
aa(lp408
g7
(g11
S'f/\x9d\xfc\x80{\xc5?'
p409
tp410
Rp411
aaa(lp412
(lp413
g395
aa(lp414
g7
(g11
S'f/\x9d\xfc\x80{\xc5?'
p415
tp416
Rp417
aaa(lp418
(lp419
g395
aa(lp420
g7
(g11
S'f/\x9d\xfc\x80{\xc5?'
p421
tp422
Rp423
aaa(lp424
(lp425
g395
aa(lp426
g7
(g11
S'f/\x9d\xfc\x80{\xc5?'
p427
tp428
Rp429
aaa(lp430
(lp431
g395
aa(lp432
g7
(g11
S'f/\x9d\xfc\x80{\xc5?'
p433
tp434
Rp435
aaa(lp436
(lp437
g395
aa(lp438
g7
(g11
S'f/\x9d\xfc\x80{\xc5?'
p439
tp440
Rp441
aaa(lp442
(lp443
g395
aa(lp444
g7
(g11
S'f/\x9d\xfc\x80{\xc5?'
p445
tp446
Rp447
aaa(lp448
(lp449
g395
aa(lp450
g7
(g11
S'f/\x9d\xfc\x80{\xc5?'
p451
tp452
Rp453
aaa(lp454
(lp455
g395
aa(lp456
g7
(g11
S'f/\x9d\xfc\x80{\xc5?'
p457
tp458
Rp459
aaa(lp460
(lp461
g395
aa(lp462
g7
(g11
S'f/\x9d\xfc\x80{\xc5?'
p463
tp464
Rp465
aaa(lp466
(lp467
g395
aa(lp468
g7
(g11
S'f/\x9d\xfc\x80{\xc5?'
p469
tp470
Rp471
aaa(lp472
(lp473
g395
aa(lp474
g7
(g11
S'f/\x9d\xfc\x80{\xc5?'
p475
tp476
Rp477
aaa(lp478
(lp479
g395
aa(lp480
g7
(g11
S'f/\x9d\xfc\x80{\xc5?'
p481
tp482
Rp483
aaa(lp484
(lp485
g395
aa(lp486
g7
(g11
S'f/\x9d\xfc\x80{\xc5?'
p487
tp488
Rp489
aaa(lp490
(lp491
g395
aa(lp492
g7
(g11
S'f/\x9d\xfc\x80{\xc5?'
p493
tp494
Rp495
aaa(lp496
(lp497
g395
aa(lp498
g7
(g11
S'f/\x9d\xfc\x80{\xc5?'
p499
tp500
Rp501
aaa(lp502
(lp503
g395
aa(lp504
g7
(g11
S'f/\x9d\xfc\x80{\xc5?'
p505
tp506
Rp507
aaa(lp508
(lp509
g395
aa(lp510
g7
(g11
S'f/\x9d\xfc\x80{\xc5?'
p511
tp512
Rp513
aaasS'storm-obj1'
p514
(lp515
(lp516
(lp517
S'../Data/storm-obj1_feature9.csv'
p518
aa(lp519
g7
(g11
S'\x1a\xbe\xa1\xe0\x1f)<@'
p520
tp521
Rp522
aaa(lp523
(lp524
S'../Data/storm-obj1_feature8.csv'
p525
aa(lp526
g7
(g11
S'\xf9@kZ\xe0\xd7%@'
p527
tp528
Rp529
aaa(lp530
(lp531
g525
aa(lp532
g7
(g11
S'\xf9@kZ\xe0\xd7%@'
p533
tp534
Rp535
aaa(lp536
(lp537
g518
aa(lp538
g7
(g11
S'\x1a\xbe\xa1\xe0\x1f)<@'
p539
tp540
Rp541
aaa(lp542
(lp543
g525
aa(lp544
g7
(g11
S'\xf9@kZ\xe0\xd7%@'
p545
tp546
Rp547
aaa(lp548
(lp549
g518
aa(lp550
g7
(g11
S'\x1a\xbe\xa1\xe0\x1f)<@'
p551
tp552
Rp553
aaa(lp554
(lp555
g518
aa(lp556
g7
(g11
S'\x1a\xbe\xa1\xe0\x1f)<@'
p557
tp558
Rp559
aaa(lp560
(lp561
g525
aa(lp562
g7
(g11
S'\xf9@kZ\xe0\xd7%@'
p563
tp564
Rp565
aaa(lp566
(lp567
g525
aa(lp568
g7
(g11
S'\xf9@kZ\xe0\xd7%@'
p569
tp570
Rp571
aaa(lp572
(lp573
g518
aa(lp574
g7
(g11
S'\x1a\xbe\xa1\xe0\x1f)<@'
p575
tp576
Rp577
aaa(lp578
(lp579
g518
aa(lp580
g7
(g11
S'\x1a\xbe\xa1\xe0\x1f)<@'
p581
tp582
Rp583
aaa(lp584
(lp585
g518
aa(lp586
g7
(g11
S'\x1a\xbe\xa1\xe0\x1f)<@'
p587
tp588
Rp589
aaa(lp590
(lp591
g518
aa(lp592
g7
(g11
S'\x1a\xbe\xa1\xe0\x1f)<@'
p593
tp594
Rp595
aaa(lp596
(lp597
g525
aa(lp598
g7
(g11
S'\xf9@kZ\xe0\xd7%@'
p599
tp600
Rp601
aaa(lp602
(lp603
g518
aa(lp604
g7
(g11
S'\x1a\xbe\xa1\xe0\x1f)<@'
p605
tp606
Rp607
aaa(lp608
(lp609
g525
aa(lp610
g7
(g11
S'\xf9@kZ\xe0\xd7%@'
p611
tp612
Rp613
aaa(lp614
(lp615
g518
aa(lp616
g7
(g11
S'\x1a\xbe\xa1\xe0\x1f)<@'
p617
tp618
Rp619
aaa(lp620
(lp621
g518
aa(lp622
g7
(g11
S'\x1a\xbe\xa1\xe0\x1f)<@'
p623
tp624
Rp625
aaa(lp626
(lp627
g518
aa(lp628
g7
(g11
S'\x1a\xbe\xa1\xe0\x1f)<@'
p629
tp630
Rp631
aaa(lp632
(lp633
g518
aa(lp634
g7
(g11
S'\x1a\xbe\xa1\xe0\x1f)<@'
p635
tp636
Rp637
aaasS'x264'
p638
(lp639
(lp640
(lp641
S'../Data/x264_5.csv'
p642
aa(lp643
g7
(g11
S'\xb9\x82\x8d\xbd\xc2\x92E@'
p644
tp645
Rp646
aaa(lp647
(lp648
S'../Data/x264_9.csv'
p649
aa(lp650
g7
(g11
S'\xc9n%F\x8e\xe0@@'
p651
tp652
Rp653
aaa(lp654
(lp655
S'../Data/x264_0.csv'
p656
aa(lp657
g7
(g11
S'\x15G\xa2\xa3K\xf2:@'
p658
tp659
Rp660
aaa(lp661
(lp662
S'../Data/x264_4.csv'
p663
aa(lp664
g7
(g11
S'\xb9\x82\x8d\xbd\xc2\x92E@'
p665
tp666
Rp667
aaa(lp668
(lp669
g656
aa(lp670
g7
(g11
S'\x15G\xa2\xa3K\xf2:@'
p671
tp672
Rp673
aaa(lp674
(lp675
S'../Data/x264_2.csv'
p676
aa(lp677
g7
(g11
S'\x80\xdc\xb70\x90PI@'
p678
tp679
Rp680
aaa(lp681
(lp682
S'../Data/x264_3.csv'
p683
aa(lp684
g7
(g11
S'^c\xaf J\xf89@'
p685
tp686
Rp687
aaa(lp688
(lp689
S'../Data/x264_10.csv'
p690
aa(lp691
g7
(g11
S'hy\xc53\xf9 F@'
p692
tp693
Rp694
aaa(lp695
(lp696
S'../Data/x264_14.csv'
p697
aa(lp698
g7
(g11
S'ff\xb2\x95\xb7\xf4;@'
p699
tp700
Rp701
aaa(lp702
(lp703
g683
aa(lp704
g7
(g11
S'^c\xaf J\xf89@'
p705
tp706
Rp707
aaa(lp708
(lp709
S'../Data/x264_11.csv'
p710
aa(lp711
g7
(g11
S'\x1cQ\xc7\xca#dE@'
p712
tp713
Rp714
aaa(lp715
(lp716
g676
aa(lp717
g7
(g11
S'\x80\xdc\xb70\x90PI@'
p718
tp719
Rp720
aaa(lp721
(lp722
g697
aa(lp723
g7
(g11
S'ff\xb2\x95\xb7\xf4;@'
p724
tp725
Rp726
aaa(lp727
(lp728
g656
aa(lp729
g7
(g11
S'\x15G\xa2\xa3K\xf2:@'
p730
tp731
Rp732
aaa(lp733
(lp734
g656
aa(lp735
g7
(g11
S'\x15G\xa2\xa3K\xf2:@'
p736
tp737
Rp738
aaa(lp739
(lp740
S'../Data/x264_7.csv'
p741
aa(lp742
g7
(g11
S'hy\xc53\xf9 F@'
p743
tp744
Rp745
aaa(lp746
(lp747
g656
aa(lp748
g7
(g11
S'\x15G\xa2\xa3K\xf2:@'
p749
tp750
Rp751
aaa(lp752
(lp753
g741
aa(lp754
g7
(g11
S'hy\xc53\xf9 F@'
p755
tp756
Rp757
aaa(lp758
(lp759
g676
aa(lp760
g7
(g11
S'\x80\xdc\xb70\x90PI@'
p761
tp762
Rp763
aaa(lp764
(lp765
g741
aa(lp766
g7
(g11
S'hy\xc53\xf9 F@'
p767
tp768
Rp769
aaas.