(dp0
S'sqlite'
p1
(lp2
(lp3
(lp4
S'../Data/sqlite_19.csv'
p5
aa(lp6
cnumpy.core.multiarray
scalar
p7
(cnumpy
dtype
p8
(S'f8'
p9
I0
I1
tp10
Rp11
(I3
S'<'
p12
NNNI-1
I-1
I0
tp13
bS'\xdfz\x7f \xba\x8f3@'
p14
tp15
Rp16
aaa(lp17
(lp18
S'../Data/sqlite_45.csv'
p19
aa(lp20
g7
(g11
S'\xa6|\xe4u\xcd\xce\x1d@'
p21
tp22
Rp23
aaa(lp24
(lp25
S'../Data/sqlite_44.csv'
p26
aa(lp27
g7
(g11
S'\x13}\x8f\xac\xf9\xdf\x18@'
p28
tp29
Rp30
aaa(lp31
(lp32
S'../Data/sqlite_16.csv'
p33
aa(lp34
g7
(g11
S'\x08\x98\x06?\x02\xfc\x1a@'
p35
tp36
Rp37
aaa(lp38
(lp39
g5
aa(lp40
g7
(g11
S'\xdfz\x7f \xba\x8f3@'
p41
tp42
Rp43
aaa(lp44
(lp45
g26
aa(lp46
g7
(g11
S'\x13}\x8f\xac\xf9\xdf\x18@'
p47
tp48
Rp49
aaa(lp50
(lp51
g5
aa(lp52
g7
(g11
S'\xdfz\x7f \xba\x8f3@'
p53
tp54
Rp55
aaa(lp56
(lp57
g5
aa(lp58
g7
(g11
S'\xdfz\x7f \xba\x8f3@'
p59
tp60
Rp61
aaa(lp62
(lp63
S'../Data/sqlite_59.csv'
p64
aa(lp65
g7
(g11
S'E\x9doi\xa1\x0e#@'
p66
tp67
Rp68
aaa(lp69
(lp70
S'../Data/sqlite_18.csv'
p71
aa(lp72
g7
(g11
S'\xdayC\xf5)o\x16@'
p73
tp74
Rp75
aaa(lp76
(lp77
g5
aa(lp78
g7
(g11
S'\xdfz\x7f \xba\x8f3@'
p79
tp80
Rp81
aaa(lp82
(lp83
S'../Data/sqlite_73.csv'
p84
aa(lp85
g7
(g11
S'|P\xb9\xc1\xa7\xae1@'
p86
tp87
Rp88
aaa(lp89
(lp90
g33
aa(lp91
g7
(g11
S'\x08\x98\x06?\x02\xfc\x1a@'
p92
tp93
Rp94
aaa(lp95
(lp96
g5
aa(lp97
g7
(g11
S'\xdfz\x7f \xba\x8f3@'
p98
tp99
Rp100
aaa(lp101
(lp102
S'../Data/sqlite_17.csv'
p103
aa(lp104
g7
(g11
S'\x08\x98\x06?\x02\xfc\x1a@'
p105
tp106
Rp107
aaa(lp108
(lp109
g71
aa(lp110
g7
(g11
S'\xdayC\xf5)o\x16@'
p111
tp112
Rp113
aaa(lp114
(lp115
g5
aa(lp116
g7
(g11
S'\xdfz\x7f \xba\x8f3@'
p117
tp118
Rp119
aaa(lp120
(lp121
S'../Data/sqlite_52.csv'
p122
aa(lp123
g7
(g11
S'\xe8\x8c\xbe\xeb\x08[0@'
p124
tp125
Rp126
aaa(lp127
(lp128
g5
aa(lp129
g7
(g11
S'\xdfz\x7f \xba\x8f3@'
p130
tp131
Rp132
aaa(lp133
(lp134
g26
aa(lp135
g7
(g11
S'\x13}\x8f\xac\xf9\xdf\x18@'
p136
tp137
Rp138
aaasS'spear'
p139
(lp140
(lp141
(lp142
S'../Data/spear_1.csv'
p143
aa(lp144
g7
(g11
S'\xe7\xeb\xae\xb0Gz\xf1?'
p145
tp146
Rp147
aaa(lp148
(lp149
S'../Data/spear_7.csv'
p150
aa(lp151
g7
(g11
S'\x9a\x99\x99\x99\x99\x99\xe9?'
p152
tp153
Rp154
aaa(lp155
(lp156
g150
aa(lp157
g7
(g11
S'\x9a\x99\x99\x99\x99\x99\xe9?'
p158
tp159
Rp160
aaa(lp161
(lp162
g150
aa(lp163
g7
(g11
S'\x9a\x99\x99\x99\x99\x99\xe9?'
p164
tp165
Rp166
aaa(lp167
(lp168
g150
aa(lp169
g7
(g11
S'\x9a\x99\x99\x99\x99\x99\xe9?'
p170
tp171
Rp172
aaa(lp173
(lp174
g143
aa(lp175
g7
(g11
S'\xe7\xeb\xae\xb0Gz\xf1?'
p176
tp177
Rp178
aaa(lp179
(lp180
S'../Data/spear_8.csv'
p181
aa(lp182
g7
(g11
S'\xe4\x82\x0c@\xeb\xef\xb9?'
p183
tp184
Rp185
aaa(lp186
(lp187
S'../Data/spear_9.csv'
p188
aa(lp189
g7
(g11
S'\x00\x00\x00\x00\x00\x00\x00\x00'
p190
tp191
Rp192
aaa(lp193
(lp194
g143
aa(lp195
g7
(g11
S'\xe7\xeb\xae\xb0Gz\xf1?'
p196
tp197
Rp198
aaa(lp199
(lp200
g143
aa(lp201
g7
(g11
S'\xe7\xeb\xae\xb0Gz\xf1?'
p202
tp203
Rp204
aaa(lp205
(lp206
g150
aa(lp207
g7
(g11
S'\x9a\x99\x99\x99\x99\x99\xe9?'
p208
tp209
Rp210
aaa(lp211
(lp212
g150
aa(lp213
g7
(g11
S'\x9a\x99\x99\x99\x99\x99\xe9?'
p214
tp215
Rp216
aaa(lp217
(lp218
g150
aa(lp219
g7
(g11
S'\x9a\x99\x99\x99\x99\x99\xe9?'
p220
tp221
Rp222
aaa(lp223
(lp224
g150
aa(lp225
g7
(g11
S'\x9a\x99\x99\x99\x99\x99\xe9?'
p226
tp227
Rp228
aaa(lp229
(lp230
g150
aa(lp231
g7
(g11
S'\x9a\x99\x99\x99\x99\x99\xe9?'
p232
tp233
Rp234
aaa(lp235
(lp236
g150
aa(lp237
g7
(g11
S'\x9a\x99\x99\x99\x99\x99\xe9?'
p238
tp239
Rp240
aaa(lp241
(lp242
g150
aa(lp243
g7
(g11
S'\x9a\x99\x99\x99\x99\x99\xe9?'
p244
tp245
Rp246
aaa(lp247
(lp248
g150
aa(lp249
g7
(g11
S'\x9a\x99\x99\x99\x99\x99\xe9?'
p250
tp251
Rp252
aaa(lp253
(lp254
g150
aa(lp255
g7
(g11
S'\x9a\x99\x99\x99\x99\x99\xe9?'
p256
tp257
Rp258
aaa(lp259
(lp260
S'../Data/spear_6.csv'
p261
aa(lp262
g7
(g11
S'\x00\x00\x00\x00\x00\x00\x00\x00'
p263
tp264
Rp265
aaasS'sac'
p266
(lp267
(lp268
(lp269
S'../Data/sac_4.csv'
p270
aa(lp271
g7
(g11
S'nhK8J\x83\xee?'
p272
tp273
Rp274
aaa(lp275
(lp276
S'../Data/sac_2.csv'
p277
aa(lp278
g7
(g11
S'\xce\x1e\xcd\xa5\xed\xeeW@'
p279
tp280
Rp281
aaa(lp282
(lp283
g270
aa(lp284
g7
(g11
S'nhK8J\x83\xee?'
p285
tp286
Rp287
aaa(lp288
(lp289
g270
aa(lp290
g7
(g11
S'nhK8J\x83\xee?'
p291
tp292
Rp293
aaa(lp294
(lp295
g270
aa(lp296
g7
(g11
S'nhK8J\x83\xee?'
p297
tp298
Rp299
aaa(lp300
(lp301
g277
aa(lp302
g7
(g11
S'\xce\x1e\xcd\xa5\xed\xeeW@'
p303
tp304
Rp305
aaa(lp306
(lp307
g277
aa(lp308
g7
(g11
S'\xce\x1e\xcd\xa5\xed\xeeW@'
p309
tp310
Rp311
aaa(lp312
(lp313
g270
aa(lp314
g7
(g11
S'nhK8J\x83\xee?'
p315
tp316
Rp317
aaa(lp318
(lp319
g277
aa(lp320
g7
(g11
S'\xce\x1e\xcd\xa5\xed\xeeW@'
p321
tp322
Rp323
aaa(lp324
(lp325
g270
aa(lp326
g7
(g11
S'nhK8J\x83\xee?'
p327
tp328
Rp329
aaa(lp330
(lp331
g270
aa(lp332
g7
(g11
S'nhK8J\x83\xee?'
p333
tp334
Rp335
aaa(lp336
(lp337
g270
aa(lp338
g7
(g11
S'nhK8J\x83\xee?'
p339
tp340
Rp341
aaa(lp342
(lp343
g270
aa(lp344
g7
(g11
S'nhK8J\x83\xee?'
p345
tp346
Rp347
aaa(lp348
(lp349
g277
aa(lp350
g7
(g11
S'\xce\x1e\xcd\xa5\xed\xeeW@'
p351
tp352
Rp353
aaa(lp354
(lp355
g277
aa(lp356
g7
(g11
S'\xce\x1e\xcd\xa5\xed\xeeW@'
p357
tp358
Rp359
aaa(lp360
(lp361
S'../Data/sac_9.csv'
p362
aa(lp363
g7
(g11
S'\x87D\x8c\xe7\x97q\xe5?'
p364
tp365
Rp366
aaa(lp367
(lp368
g277
aa(lp369
g7
(g11
S'\xce\x1e\xcd\xa5\xed\xeeW@'
p370
tp371
Rp372
aaa(lp373
(lp374
g277
aa(lp375
g7
(g11
S'\xce\x1e\xcd\xa5\xed\xeeW@'
p376
tp377
Rp378
aaa(lp379
(lp380
S'../Data/sac_8.csv'
p381
aa(lp382
g7
(g11
S'N\xbd\xed\x96\xa4W\xeb?'
p383
tp384
Rp385
aaa(lp386
(lp387
S'../Data/sac_6.csv'
p388
aa(lp389
g7
(g11
S'\xf9e\x0c\xb3>\x17\xef?'
p390
tp391
Rp392
aaasS'storm-obj2'
p393
(lp394
(lp395
(lp396
S'../Data/storm-obj2_feature9.csv'
p397
aa(lp398
g7
(g11
S'f/\x9d\xfc\x80{\xc5?'
p399
tp400
Rp401
aaa(lp402
(lp403
g397
aa(lp404
g7
(g11
S'f/\x9d\xfc\x80{\xc5?'
p405
tp406
Rp407
aaa(lp408
(lp409
g397
aa(lp410
g7
(g11
S'f/\x9d\xfc\x80{\xc5?'
p411
tp412
Rp413
aaa(lp414
(lp415
g397
aa(lp416
g7
(g11
S'f/\x9d\xfc\x80{\xc5?'
p417
tp418
Rp419
aaa(lp420
(lp421
g397
aa(lp422
g7
(g11
S'f/\x9d\xfc\x80{\xc5?'
p423
tp424
Rp425
aaa(lp426
(lp427
g397
aa(lp428
g7
(g11
S'f/\x9d\xfc\x80{\xc5?'
p429
tp430
Rp431
aaa(lp432
(lp433
g397
aa(lp434
g7
(g11
S'f/\x9d\xfc\x80{\xc5?'
p435
tp436
Rp437
aaa(lp438
(lp439
g397
aa(lp440
g7
(g11
S'f/\x9d\xfc\x80{\xc5?'
p441
tp442
Rp443
aaa(lp444
(lp445
g397
aa(lp446
g7
(g11
S'f/\x9d\xfc\x80{\xc5?'
p447
tp448
Rp449
aaa(lp450
(lp451
g397
aa(lp452
g7
(g11
S'f/\x9d\xfc\x80{\xc5?'
p453
tp454
Rp455
aaa(lp456
(lp457
g397
aa(lp458
g7
(g11
S'f/\x9d\xfc\x80{\xc5?'
p459
tp460
Rp461
aaa(lp462
(lp463
g397
aa(lp464
g7
(g11
S'f/\x9d\xfc\x80{\xc5?'
p465
tp466
Rp467
aaa(lp468
(lp469
g397
aa(lp470
g7
(g11
S'f/\x9d\xfc\x80{\xc5?'
p471
tp472
Rp473
aaa(lp474
(lp475
g397
aa(lp476
g7
(g11
S'f/\x9d\xfc\x80{\xc5?'
p477
tp478
Rp479
aaa(lp480
(lp481
g397
aa(lp482
g7
(g11
S'f/\x9d\xfc\x80{\xc5?'
p483
tp484
Rp485
aaa(lp486
(lp487
g397
aa(lp488
g7
(g11
S'f/\x9d\xfc\x80{\xc5?'
p489
tp490
Rp491
aaa(lp492
(lp493
g397
aa(lp494
g7
(g11
S'f/\x9d\xfc\x80{\xc5?'
p495
tp496
Rp497
aaa(lp498
(lp499
g397
aa(lp500
g7
(g11
S'f/\x9d\xfc\x80{\xc5?'
p501
tp502
Rp503
aaa(lp504
(lp505
g397
aa(lp506
g7
(g11
S'f/\x9d\xfc\x80{\xc5?'
p507
tp508
Rp509
aaa(lp510
(lp511
g397
aa(lp512
g7
(g11
S'f/\x9d\xfc\x80{\xc5?'
p513
tp514
Rp515
aaasS'storm-obj1'
p516
(lp517
(lp518
(lp519
S'../Data/storm-obj1_feature9.csv'
p520
aa(lp521
g7
(g11
S'\x1a\xbe\xa1\xe0\x1f)<@'
p522
tp523
Rp524
aaa(lp525
(lp526
g520
aa(lp527
g7
(g11
S'\x1a\xbe\xa1\xe0\x1f)<@'
p528
tp529
Rp530
aaa(lp531
(lp532
S'../Data/storm-obj1_feature8.csv'
p533
aa(lp534
g7
(g11
S'\xf9@kZ\xe0\xd7%@'
p535
tp536
Rp537
aaa(lp538
(lp539
g520
aa(lp540
g7
(g11
S'\x1a\xbe\xa1\xe0\x1f)<@'
p541
tp542
Rp543
aaa(lp544
(lp545
g520
aa(lp546
g7
(g11
S'\x1a\xbe\xa1\xe0\x1f)<@'
p547
tp548
Rp549
aaa(lp550
(lp551
g533
aa(lp552
g7
(g11
S'\xf9@kZ\xe0\xd7%@'
p553
tp554
Rp555
aaa(lp556
(lp557
g520
aa(lp558
g7
(g11
S'\x1a\xbe\xa1\xe0\x1f)<@'
p559
tp560
Rp561
aaa(lp562
(lp563
g533
aa(lp564
g7
(g11
S'\xf9@kZ\xe0\xd7%@'
p565
tp566
Rp567
aaa(lp568
(lp569
g533
aa(lp570
g7
(g11
S'\xf9@kZ\xe0\xd7%@'
p571
tp572
Rp573
aaa(lp574
(lp575
g533
aa(lp576
g7
(g11
S'\xf9@kZ\xe0\xd7%@'
p577
tp578
Rp579
aaa(lp580
(lp581
g520
aa(lp582
g7
(g11
S'\x1a\xbe\xa1\xe0\x1f)<@'
p583
tp584
Rp585
aaa(lp586
(lp587
g533
aa(lp588
g7
(g11
S'\xf9@kZ\xe0\xd7%@'
p589
tp590
Rp591
aaa(lp592
(lp593
g520
aa(lp594
g7
(g11
S'\x1a\xbe\xa1\xe0\x1f)<@'
p595
tp596
Rp597
aaa(lp598
(lp599
g520
aa(lp600
g7
(g11
S'\x1a\xbe\xa1\xe0\x1f)<@'
p601
tp602
Rp603
aaa(lp604
(lp605
g533
aa(lp606
g7
(g11
S'\xf9@kZ\xe0\xd7%@'
p607
tp608
Rp609
aaa(lp610
(lp611
g520
aa(lp612
g7
(g11
S'\x1a\xbe\xa1\xe0\x1f)<@'
p613
tp614
Rp615
aaa(lp616
(lp617
g533
aa(lp618
g7
(g11
S'\xf9@kZ\xe0\xd7%@'
p619
tp620
Rp621
aaa(lp622
(lp623
g533
aa(lp624
g7
(g11
S'\xf9@kZ\xe0\xd7%@'
p625
tp626
Rp627
aaa(lp628
(lp629
g520
aa(lp630
g7
(g11
S'\x1a\xbe\xa1\xe0\x1f)<@'
p631
tp632
Rp633
aaa(lp634
(lp635
g520
aa(lp636
g7
(g11
S'\x1a\xbe\xa1\xe0\x1f)<@'
p637
tp638
Rp639
aaasS'x264'
p640
(lp641
(lp642
(lp643
S'../Data/x264_5.csv'
p644
aa(lp645
g7
(g11
S'\xb9\x82\x8d\xbd\xc2\x92E@'
p646
tp647
Rp648
aaa(lp649
(lp650
S'../Data/x264_4.csv'
p651
aa(lp652
g7
(g11
S'\xb9\x82\x8d\xbd\xc2\x92E@'
p653
tp654
Rp655
aaa(lp656
(lp657
S'../Data/x264_14.csv'
p658
aa(lp659
g7
(g11
S'ff\xb2\x95\xb7\xf4;@'
p660
tp661
Rp662
aaa(lp663
(lp664
S'../Data/x264_7.csv'
p665
aa(lp666
g7
(g11
S'hy\xc53\xf9 F@'
p667
tp668
Rp669
aaa(lp670
(lp671
S'../Data/x264_13.csv'
p672
aa(lp673
g7
(g11
S'<\xa0\xd1>\xbb\x0c;@'
p674
tp675
Rp676
aaa(lp677
(lp678
g644
aa(lp679
g7
(g11
S'\xb9\x82\x8d\xbd\xc2\x92E@'
p680
tp681
Rp682
aaa(lp683
(lp684
S'../Data/x264_18.csv'
p685
aa(lp686
g7
(g11
S'^c\xaf J\xf89@'
p687
tp688
Rp689
aaa(lp690
(lp691
g685
aa(lp692
g7
(g11
S'^c\xaf J\xf89@'
p693
tp694
Rp695
aaa(lp696
(lp697
g644
aa(lp698
g7
(g11
S'\xb9\x82\x8d\xbd\xc2\x92E@'
p699
tp700
Rp701
aaa(lp702
(lp703
S'../Data/x264_0.csv'
p704
aa(lp705
g7
(g11
S'\x15G\xa2\xa3K\xf2:@'
p706
tp707
Rp708
aaa(lp709
(lp710
g651
aa(lp711
g7
(g11
S'\xb9\x82\x8d\xbd\xc2\x92E@'
p712
tp713
Rp714
aaa(lp715
(lp716
S'../Data/x264_2.csv'
p717
aa(lp718
g7
(g11
S'\x80\xdc\xb70\x90PI@'
p719
tp720
Rp721
aaa(lp722
(lp723
g672
aa(lp724
g7
(g11
S'<\xa0\xd1>\xbb\x0c;@'
p725
tp726
Rp727
aaa(lp728
(lp729
S'../Data/x264_11.csv'
p730
aa(lp731
g7
(g11
S'\x1cQ\xc7\xca#dE@'
p732
tp733
Rp734
aaa(lp735
(lp736
g704
aa(lp737
g7
(g11
S'\x15G\xa2\xa3K\xf2:@'
p738
tp739
Rp740
aaa(lp741
(lp742
g672
aa(lp743
g7
(g11
S'<\xa0\xd1>\xbb\x0c;@'
p744
tp745
Rp746
aaa(lp747
(lp748
g651
aa(lp749
g7
(g11
S'\xb9\x82\x8d\xbd\xc2\x92E@'
p750
tp751
Rp752
aaa(lp753
(lp754
S'../Data/x264_3.csv'
p755
aa(lp756
g7
(g11
S'^c\xaf J\xf89@'
p757
tp758
Rp759
aaa(lp760
(lp761
g730
aa(lp762
g7
(g11
S'\x1cQ\xc7\xca#dE@'
p763
tp764
Rp765
aaa(lp766
(lp767
g644
aa(lp768
g7
(g11
S'\xb9\x82\x8d\xbd\xc2\x92E@'
p769
tp770
Rp771
aaas.