(dp0
S'sqlite'
p1
(lp2
(lp3
(lp4
S'../Data/sqlite_17.csv'
p5
aa(lp6
cnumpy.core.multiarray
scalar
p7
(cnumpy
dtype
p8
(S'f8'
p9
I0
I1
tp10
Rp11
(I3
S'<'
p12
NNNI-1
I-1
I0
tp13
bS'\x98\x1f\xba\x04s\xc1\xeb?'
p14
tp15
Rp16
aaa(lp17
(lp18
S'../Data/sqlite_16.csv'
p19
aa(lp20
g7
(g11
S'\x10\xb6\x16-R\x16\x0f@'
p21
tp22
Rp23
aaa(lp24
(lp25
g5
aa(lp26
g7
(g11
S'\x98\x1f\xba\x04s\xc1\xeb?'
p27
tp28
Rp29
aaa(lp30
(lp31
S'../Data/sqlite_45.csv'
p32
aa(lp33
g7
(g11
S'\xd4\xe32\x92r\xd3\x0b@'
p34
tp35
Rp36
aaa(lp37
(lp38
S'../Data/sqlite_79.csv'
p39
aa(lp40
g7
(g11
S'TJ\x86\x1e\\\xf5\x16@'
p41
tp42
Rp43
aaa(lp44
(lp45
S'../Data/sqlite_59.csv'
p46
aa(lp47
g7
(g11
S'\xd4|\xf2\xde\xd5\xc5\x00@'
p48
tp49
Rp50
aaa(lp51
(lp52
S'../Data/sqlite_44.csv'
p53
aa(lp54
g7
(g11
S'\xe0r:1|\xd6\x01@'
p55
tp56
Rp57
aaa(lp58
(lp59
S'../Data/sqlite_10.csv'
p60
aa(lp61
g7
(g11
S'\x15\xf2,\xa9U;\x13@'
p62
tp63
Rp64
aaa(lp65
(lp66
S'../Data/sqlite_94.csv'
p67
aa(lp68
g7
(g11
S'.\x9b\x95\xb9\xcdA@@'
p69
tp70
Rp71
aaa(lp72
(lp73
g5
aa(lp74
g7
(g11
S'\x98\x1f\xba\x04s\xc1\xeb?'
p75
tp76
Rp77
aaa(lp78
(lp79
S'../Data/sqlite_19.csv'
p80
aa(lp81
g7
(g11
S'T\x93\xe0\x98/\xce\x00@'
p82
tp83
Rp84
aaa(lp85
(lp86
g80
aa(lp87
g7
(g11
S'T\x93\xe0\x98/\xce\x00@'
p88
tp89
Rp90
aaa(lp91
(lp92
g19
aa(lp93
g7
(g11
S'\x10\xb6\x16-R\x16\x0f@'
p94
tp95
Rp96
aaa(lp97
(lp98
g32
aa(lp99
g7
(g11
S'\xd4\xe32\x92r\xd3\x0b@'
p100
tp101
Rp102
aaa(lp103
(lp104
S'../Data/sqlite_11.csv'
p105
aa(lp106
g7
(g11
S'z/1,\xbc\xfd\x1a@'
p107
tp108
Rp109
aaa(lp110
(lp111
g46
aa(lp112
g7
(g11
S'\xd4|\xf2\xde\xd5\xc5\x00@'
p113
tp114
Rp115
aaa(lp116
(lp117
g53
aa(lp118
g7
(g11
S'\xe0r:1|\xd6\x01@'
p119
tp120
Rp121
aaa(lp122
(lp123
g53
aa(lp124
g7
(g11
S'\xe0r:1|\xd6\x01@'
p125
tp126
Rp127
aaa(lp128
(lp129
g19
aa(lp130
g7
(g11
S'\x10\xb6\x16-R\x16\x0f@'
p131
tp132
Rp133
aaa(lp134
(lp135
g80
aa(lp136
g7
(g11
S'T\x93\xe0\x98/\xce\x00@'
p137
tp138
Rp139
aaa(lp140
(lp141
g105
aa(lp142
g7
(g11
S'z/1,\xbc\xfd\x1a@'
p143
tp144
Rp145
aaa(lp146
(lp147
g46
aa(lp148
g7
(g11
S'\xd4|\xf2\xde\xd5\xc5\x00@'
p149
tp150
Rp151
aaa(lp152
(lp153
g46
aa(lp154
g7
(g11
S'\xd4|\xf2\xde\xd5\xc5\x00@'
p155
tp156
Rp157
aaa(lp158
(lp159
S'../Data/sqlite_52.csv'
p160
aa(lp161
g7
(g11
S'd~p=\x9b\xef\x1d@'
p162
tp163
Rp164
aaa(lp165
(lp166
g5
aa(lp167
g7
(g11
S'\x98\x1f\xba\x04s\xc1\xeb?'
p168
tp169
Rp170
aaa(lp171
(lp172
g160
aa(lp173
g7
(g11
S'd~p=\x9b\xef\x1d@'
p174
tp175
Rp176
aaa(lp177
(lp178
g53
aa(lp179
g7
(g11
S'\xe0r:1|\xd6\x01@'
p180
tp181
Rp182
aaa(lp183
(lp184
S'../Data/sqlite_18.csv'
p185
aa(lp186
g7
(g11
S'\xb1\xb7\x00\xb4n{2@'
p187
tp188
Rp189
aaa(lp190
(lp191
g19
aa(lp192
g7
(g11
S'\x10\xb6\x16-R\x16\x0f@'
p193
tp194
Rp195
aaa(lp196
(lp197
g19
aa(lp198
g7
(g11
S'\x10\xb6\x16-R\x16\x0f@'
p199
tp200
Rp201
aaasS'spear'
p202
(lp203
(lp204
(lp205
S'../Data/spear_7.csv'
p206
aa(lp207
g7
(g11
S'\xf4\x01\x8a/\x0bl\xb9?'
p208
tp209
Rp210
aaa(lp211
(lp212
S'../Data/spear_1.csv'
p213
aa(lp214
g7
(g11
S'\xf4\x01\x8a/\x0bl\xb9?'
p215
tp216
Rp217
aaa(lp218
(lp219
g206
aa(lp220
g7
(g11
S'\xf4\x01\x8a/\x0bl\xb9?'
p221
tp222
Rp223
aaa(lp224
(lp225
S'../Data/spear_9.csv'
p226
aa(lp227
g7
(g11
S'\xf4\x01\x8a/\x0bl\xb9?'
p228
tp229
Rp230
aaa(lp231
(lp232
g206
aa(lp233
g7
(g11
S'\xf4\x01\x8a/\x0bl\xb9?'
p234
tp235
Rp236
aaa(lp237
(lp238
g213
aa(lp239
g7
(g11
S'\xf4\x01\x8a/\x0bl\xb9?'
p240
tp241
Rp242
aaa(lp243
(lp244
g226
aa(lp245
g7
(g11
S'\xf4\x01\x8a/\x0bl\xb9?'
p246
tp247
Rp248
aaa(lp249
(lp250
g213
aa(lp251
g7
(g11
S'\xf4\x01\x8a/\x0bl\xb9?'
p252
tp253
Rp254
aaa(lp255
(lp256
g226
aa(lp257
g7
(g11
S'\xf4\x01\x8a/\x0bl\xb9?'
p258
tp259
Rp260
aaa(lp261
(lp262
g206
aa(lp263
g7
(g11
S'\xf4\x01\x8a/\x0bl\xb9?'
p264
tp265
Rp266
aaa(lp267
(lp268
g213
aa(lp269
g7
(g11
S'\xf4\x01\x8a/\x0bl\xb9?'
p270
tp271
Rp272
aaa(lp273
(lp274
g213
aa(lp275
g7
(g11
S'\xf4\x01\x8a/\x0bl\xb9?'
p276
tp277
Rp278
aaa(lp279
(lp280
g206
aa(lp281
g7
(g11
S'\xf4\x01\x8a/\x0bl\xb9?'
p282
tp283
Rp284
aaa(lp285
(lp286
g213
aa(lp287
g7
(g11
S'\xf4\x01\x8a/\x0bl\xb9?'
p288
tp289
Rp290
aaa(lp291
(lp292
g206
aa(lp293
g7
(g11
S'\xf4\x01\x8a/\x0bl\xb9?'
p294
tp295
Rp296
aaa(lp297
(lp298
g213
aa(lp299
g7
(g11
S'\xf4\x01\x8a/\x0bl\xb9?'
p300
tp301
Rp302
aaa(lp303
(lp304
g206
aa(lp305
g7
(g11
S'\xf4\x01\x8a/\x0bl\xb9?'
p306
tp307
Rp308
aaa(lp309
(lp310
g206
aa(lp311
g7
(g11
S'\xf4\x01\x8a/\x0bl\xb9?'
p312
tp313
Rp314
aaa(lp315
(lp316
g206
aa(lp317
g7
(g11
S'\xf4\x01\x8a/\x0bl\xb9?'
p318
tp319
Rp320
aaa(lp321
(lp322
g206
aa(lp323
g7
(g11
S'\xf4\x01\x8a/\x0bl\xb9?'
p324
tp325
Rp326
aaa(lp327
(lp328
g213
aa(lp329
g7
(g11
S'\xf4\x01\x8a/\x0bl\xb9?'
p330
tp331
Rp332
aaa(lp333
(lp334
g226
aa(lp335
g7
(g11
S'\xf4\x01\x8a/\x0bl\xb9?'
p336
tp337
Rp338
aaa(lp339
(lp340
g226
aa(lp341
g7
(g11
S'\xf4\x01\x8a/\x0bl\xb9?'
p342
tp343
Rp344
aaa(lp345
(lp346
g213
aa(lp347
g7
(g11
S'\xf4\x01\x8a/\x0bl\xb9?'
p348
tp349
Rp350
aaa(lp351
(lp352
g213
aa(lp353
g7
(g11
S'\xf4\x01\x8a/\x0bl\xb9?'
p354
tp355
Rp356
aaa(lp357
(lp358
g206
aa(lp359
g7
(g11
S'\xf4\x01\x8a/\x0bl\xb9?'
p360
tp361
Rp362
aaa(lp363
(lp364
g206
aa(lp365
g7
(g11
S'\xf4\x01\x8a/\x0bl\xb9?'
p366
tp367
Rp368
aaa(lp369
(lp370
g206
aa(lp371
g7
(g11
S'\xf4\x01\x8a/\x0bl\xb9?'
p372
tp373
Rp374
aaa(lp375
(lp376
g206
aa(lp377
g7
(g11
S'\xf4\x01\x8a/\x0bl\xb9?'
p378
tp379
Rp380
aaa(lp381
(lp382
g206
aa(lp383
g7
(g11
S'\xf4\x01\x8a/\x0bl\xb9?'
p384
tp385
Rp386
aaasS'sac'
p387
(lp388
(lp389
(lp390
S'../Data/sac_4.csv'
p391
aa(lp392
g7
(g11
S'f\xfeA\x82\xddq\xe4?'
p393
tp394
Rp395
aaa(lp396
(lp397
S'../Data/sac_2.csv'
p398
aa(lp399
g7
(g11
S'\x00\x00\x00\x00\x00\x00Y@'
p400
tp401
Rp402
aaa(lp403
(lp404
S'../Data/sac_9.csv'
p405
aa(lp406
g7
(g11
S'\x8e\x08\x1a\x03\x9b\xca\x12@'
p407
tp408
Rp409
aaa(lp410
(lp411
g391
aa(lp412
g7
(g11
S'f\xfeA\x82\xddq\xe4?'
p413
tp414
Rp415
aaa(lp416
(lp417
g391
aa(lp418
g7
(g11
S'f\xfeA\x82\xddq\xe4?'
p419
tp420
Rp421
aaa(lp422
(lp423
g398
aa(lp424
g7
(g11
S'\x00\x00\x00\x00\x00\x00Y@'
p425
tp426
Rp427
aaa(lp428
(lp429
g405
aa(lp430
g7
(g11
S'\x8e\x08\x1a\x03\x9b\xca\x12@'
p431
tp432
Rp433
aaa(lp434
(lp435
g391
aa(lp436
g7
(g11
S'f\xfeA\x82\xddq\xe4?'
p437
tp438
Rp439
aaa(lp440
(lp441
g398
aa(lp442
g7
(g11
S'\x00\x00\x00\x00\x00\x00Y@'
p443
tp444
Rp445
aaa(lp446
(lp447
g398
aa(lp448
g7
(g11
S'\x00\x00\x00\x00\x00\x00Y@'
p449
tp450
Rp451
aaa(lp452
(lp453
g391
aa(lp454
g7
(g11
S'f\xfeA\x82\xddq\xe4?'
p455
tp456
Rp457
aaa(lp458
(lp459
g391
aa(lp460
g7
(g11
S'f\xfeA\x82\xddq\xe4?'
p461
tp462
Rp463
aaa(lp464
(lp465
g391
aa(lp466
g7
(g11
S'f\xfeA\x82\xddq\xe4?'
p467
tp468
Rp469
aaa(lp470
(lp471
g391
aa(lp472
g7
(g11
S'f\xfeA\x82\xddq\xe4?'
p473
tp474
Rp475
aaa(lp476
(lp477
g391
aa(lp478
g7
(g11
S'f\xfeA\x82\xddq\xe4?'
p479
tp480
Rp481
aaa(lp482
(lp483
g391
aa(lp484
g7
(g11
S'f\xfeA\x82\xddq\xe4?'
p485
tp486
Rp487
aaa(lp488
(lp489
g391
aa(lp490
g7
(g11
S'f\xfeA\x82\xddq\xe4?'
p491
tp492
Rp493
aaa(lp494
(lp495
g391
aa(lp496
g7
(g11
S'f\xfeA\x82\xddq\xe4?'
p497
tp498
Rp499
aaa(lp500
(lp501
g398
aa(lp502
g7
(g11
S'\x00\x00\x00\x00\x00\x00Y@'
p503
tp504
Rp505
aaa(lp506
(lp507
g391
aa(lp508
g7
(g11
S'f\xfeA\x82\xddq\xe4?'
p509
tp510
Rp511
aaa(lp512
(lp513
g405
aa(lp514
g7
(g11
S'\x8e\x08\x1a\x03\x9b\xca\x12@'
p515
tp516
Rp517
aaa(lp518
(lp519
g391
aa(lp520
g7
(g11
S'f\xfeA\x82\xddq\xe4?'
p521
tp522
Rp523
aaa(lp524
(lp525
g391
aa(lp526
g7
(g11
S'f\xfeA\x82\xddq\xe4?'
p527
tp528
Rp529
aaa(lp530
(lp531
g398
aa(lp532
g7
(g11
S'\x00\x00\x00\x00\x00\x00Y@'
p533
tp534
Rp535
aaa(lp536
(lp537
g405
aa(lp538
g7
(g11
S'\x8e\x08\x1a\x03\x9b\xca\x12@'
p539
tp540
Rp541
aaa(lp542
(lp543
g405
aa(lp544
g7
(g11
S'\x8e\x08\x1a\x03\x9b\xca\x12@'
p545
tp546
Rp547
aaa(lp548
(lp549
g391
aa(lp550
g7
(g11
S'f\xfeA\x82\xddq\xe4?'
p551
tp552
Rp553
aaa(lp554
(lp555
g391
aa(lp556
g7
(g11
S'f\xfeA\x82\xddq\xe4?'
p557
tp558
Rp559
aaa(lp560
(lp561
g398
aa(lp562
g7
(g11
S'\x00\x00\x00\x00\x00\x00Y@'
p563
tp564
Rp565
aaa(lp566
(lp567
g398
aa(lp568
g7
(g11
S'\x00\x00\x00\x00\x00\x00Y@'
p569
tp570
Rp571
aaasS'storm-obj2'
p572
(lp573
(lp574
(lp575
S'../Data/storm-obj2_feature9.csv'
p576
aa(lp577
g7
(g11
S'\x00\x00\x00\x00\x00\x00\x00\x00'
p578
tp579
Rp580
aaa(lp581
(lp582
g576
aa(lp583
g7
(g11
S'\x00\x00\x00\x00\x00\x00\x00\x00'
p584
tp585
Rp586
aaa(lp587
(lp588
g576
aa(lp589
g7
(g11
S'\x00\x00\x00\x00\x00\x00\x00\x00'
p590
tp591
Rp592
aaa(lp593
(lp594
g576
aa(lp595
g7
(g11
S'\x00\x00\x00\x00\x00\x00\x00\x00'
p596
tp597
Rp598
aaa(lp599
(lp600
g576
aa(lp601
g7
(g11
S'\x00\x00\x00\x00\x00\x00\x00\x00'
p602
tp603
Rp604
aaa(lp605
(lp606
g576
aa(lp607
g7
(g11
S'\x00\x00\x00\x00\x00\x00\x00\x00'
p608
tp609
Rp610
aaa(lp611
(lp612
g576
aa(lp613
g7
(g11
S'\x00\x00\x00\x00\x00\x00\x00\x00'
p614
tp615
Rp616
aaa(lp617
(lp618
g576
aa(lp619
g7
(g11
S'\x00\x00\x00\x00\x00\x00\x00\x00'
p620
tp621
Rp622
aaa(lp623
(lp624
g576
aa(lp625
g7
(g11
S'\x00\x00\x00\x00\x00\x00\x00\x00'
p626
tp627
Rp628
aaa(lp629
(lp630
g576
aa(lp631
g7
(g11
S'\x00\x00\x00\x00\x00\x00\x00\x00'
p632
tp633
Rp634
aaa(lp635
(lp636
g576
aa(lp637
g7
(g11
S'\x00\x00\x00\x00\x00\x00\x00\x00'
p638
tp639
Rp640
aaa(lp641
(lp642
g576
aa(lp643
g7
(g11
S'\x00\x00\x00\x00\x00\x00\x00\x00'
p644
tp645
Rp646
aaa(lp647
(lp648
g576
aa(lp649
g7
(g11
S'\x00\x00\x00\x00\x00\x00\x00\x00'
p650
tp651
Rp652
aaa(lp653
(lp654
g576
aa(lp655
g7
(g11
S'\x00\x00\x00\x00\x00\x00\x00\x00'
p656
tp657
Rp658
aaa(lp659
(lp660
g576
aa(lp661
g7
(g11
S'\x00\x00\x00\x00\x00\x00\x00\x00'
p662
tp663
Rp664
aaa(lp665
(lp666
g576
aa(lp667
g7
(g11
S'\x00\x00\x00\x00\x00\x00\x00\x00'
p668
tp669
Rp670
aaa(lp671
(lp672
g576
aa(lp673
g7
(g11
S'\x00\x00\x00\x00\x00\x00\x00\x00'
p674
tp675
Rp676
aaa(lp677
(lp678
g576
aa(lp679
g7
(g11
S'\x00\x00\x00\x00\x00\x00\x00\x00'
p680
tp681
Rp682
aaa(lp683
(lp684
g576
aa(lp685
g7
(g11
S'\x00\x00\x00\x00\x00\x00\x00\x00'
p686
tp687
Rp688
aaa(lp689
(lp690
g576
aa(lp691
g7
(g11
S'\x00\x00\x00\x00\x00\x00\x00\x00'
p692
tp693
Rp694
aaa(lp695
(lp696
g576
aa(lp697
g7
(g11
S'\x00\x00\x00\x00\x00\x00\x00\x00'
p698
tp699
Rp700
aaa(lp701
(lp702
g576
aa(lp703
g7
(g11
S'\x00\x00\x00\x00\x00\x00\x00\x00'
p704
tp705
Rp706
aaa(lp707
(lp708
g576
aa(lp709
g7
(g11
S'\x00\x00\x00\x00\x00\x00\x00\x00'
p710
tp711
Rp712
aaa(lp713
(lp714
g576
aa(lp715
g7
(g11
S'\x00\x00\x00\x00\x00\x00\x00\x00'
p716
tp717
Rp718
aaa(lp719
(lp720
g576
aa(lp721
g7
(g11
S'\x00\x00\x00\x00\x00\x00\x00\x00'
p722
tp723
Rp724
aaa(lp725
(lp726
g576
aa(lp727
g7
(g11
S'\x00\x00\x00\x00\x00\x00\x00\x00'
p728
tp729
Rp730
aaa(lp731
(lp732
g576
aa(lp733
g7
(g11
S'\x00\x00\x00\x00\x00\x00\x00\x00'
p734
tp735
Rp736
aaa(lp737
(lp738
g576
aa(lp739
g7
(g11
S'\x00\x00\x00\x00\x00\x00\x00\x00'
p740
tp741
Rp742
aaa(lp743
(lp744
g576
aa(lp745
g7
(g11
S'\x00\x00\x00\x00\x00\x00\x00\x00'
p746
tp747
Rp748
aaa(lp749
(lp750
g576
aa(lp751
g7
(g11
S'\x00\x00\x00\x00\x00\x00\x00\x00'
p752
tp753
Rp754
aaasS'storm-obj1'
p755
(lp756
(lp757
(lp758
S'../Data/storm-obj1_feature8.csv'
p759
aa(lp760
g7
(g11
S'\xf0\x96\x98JL%\x02@'
p761
tp762
Rp763
aaa(lp764
(lp765
g759
aa(lp766
g7
(g11
S'\xf0\x96\x98JL%\x02@'
p767
tp768
Rp769
aaa(lp770
(lp771
g759
aa(lp772
g7
(g11
S'\xf0\x96\x98JL%\x02@'
p773
tp774
Rp775
aaa(lp776
(lp777
g759
aa(lp778
g7
(g11
S'\xf0\x96\x98JL%\x02@'
p779
tp780
Rp781
aaa(lp782
(lp783
g759
aa(lp784
g7
(g11
S'\xf0\x96\x98JL%\x02@'
p785
tp786
Rp787
aaa(lp788
(lp789
S'../Data/storm-obj1_feature9.csv'
p790
aa(lp791
g7
(g11
S'\xad\x88\x03\xf1-qI@'
p792
tp793
Rp794
aaa(lp795
(lp796
g759
aa(lp797
g7
(g11
S'\xf0\x96\x98JL%\x02@'
p798
tp799
Rp800
aaa(lp801
(lp802
g759
aa(lp803
g7
(g11
S'\xf0\x96\x98JL%\x02@'
p804
tp805
Rp806
aaa(lp807
(lp808
g790
aa(lp809
g7
(g11
S'\xad\x88\x03\xf1-qI@'
p810
tp811
Rp812
aaa(lp813
(lp814
g759
aa(lp815
g7
(g11
S'\xf0\x96\x98JL%\x02@'
p816
tp817
Rp818
aaa(lp819
(lp820
g759
aa(lp821
g7
(g11
S'\xf0\x96\x98JL%\x02@'
p822
tp823
Rp824
aaa(lp825
(lp826
g790
aa(lp827
g7
(g11
S'\xad\x88\x03\xf1-qI@'
p828
tp829
Rp830
aaa(lp831
(lp832
g759
aa(lp833
g7
(g11
S'\xf0\x96\x98JL%\x02@'
p834
tp835
Rp836
aaa(lp837
(lp838
g759
aa(lp839
g7
(g11
S'\xf0\x96\x98JL%\x02@'
p840
tp841
Rp842
aaa(lp843
(lp844
g759
aa(lp845
g7
(g11
S'\xf0\x96\x98JL%\x02@'
p846
tp847
Rp848
aaa(lp849
(lp850
g759
aa(lp851
g7
(g11
S'\xf0\x96\x98JL%\x02@'
p852
tp853
Rp854
aaa(lp855
(lp856
g759
aa(lp857
g7
(g11
S'\xf0\x96\x98JL%\x02@'
p858
tp859
Rp860
aaa(lp861
(lp862
g759
aa(lp863
g7
(g11
S'\xf0\x96\x98JL%\x02@'
p864
tp865
Rp866
aaa(lp867
(lp868
g759
aa(lp869
g7
(g11
S'\xf0\x96\x98JL%\x02@'
p870
tp871
Rp872
aaa(lp873
(lp874
g790
aa(lp875
g7
(g11
S'\xad\x88\x03\xf1-qI@'
p876
tp877
Rp878
aaa(lp879
(lp880
g759
aa(lp881
g7
(g11
S'\xf0\x96\x98JL%\x02@'
p882
tp883
Rp884
aaa(lp885
(lp886
g790
aa(lp887
g7
(g11
S'\xad\x88\x03\xf1-qI@'
p888
tp889
Rp890
aaa(lp891
(lp892
g759
aa(lp893
g7
(g11
S'\xf0\x96\x98JL%\x02@'
p894
tp895
Rp896
aaa(lp897
(lp898
g790
aa(lp899
g7
(g11
S'\xad\x88\x03\xf1-qI@'
p900
tp901
Rp902
aaa(lp903
(lp904
g759
aa(lp905
g7
(g11
S'\xf0\x96\x98JL%\x02@'
p906
tp907
Rp908
aaa(lp909
(lp910
g790
aa(lp911
g7
(g11
S'\xad\x88\x03\xf1-qI@'
p912
tp913
Rp914
aaa(lp915
(lp916
S'../Data/storm-obj1_feature7.csv'
p917
aa(lp918
g7
(g11
S'\xd7\xa5`\xf3\xcc@(@'
p919
tp920
Rp921
aaa(lp922
(lp923
g759
aa(lp924
g7
(g11
S'\xf0\x96\x98JL%\x02@'
p925
tp926
Rp927
aaa(lp928
(lp929
g790
aa(lp930
g7
(g11
S'\xad\x88\x03\xf1-qI@'
p931
tp932
Rp933
aaa(lp934
(lp935
g790
aa(lp936
g7
(g11
S'\xad\x88\x03\xf1-qI@'
p937
tp938
Rp939
aaasS'x264'
p940
(lp941
(lp942
(lp943
S'../Data/x264_7.csv'
p944
aa(lp945
g7
(g11
S'\xaa\xee\xd0\x8a\xa3\x9c\xed?'
p946
tp947
Rp948
aaa(lp949
(lp950
S'../Data/x264_6.csv'
p951
aa(lp952
g7
(g11
S'\x97&u\xa9ld\x01@'
p953
tp954
Rp955
aaa(lp956
(lp957
S'../Data/x264_9.csv'
p958
aa(lp959
g7
(g11
S'\x9c^\xf9)\xdba\xd2?'
p960
tp961
Rp962
aaa(lp963
(lp964
g944
aa(lp965
g7
(g11
S'\xaa\xee\xd0\x8a\xa3\x9c\xed?'
p966
tp967
Rp968
aaa(lp969
(lp970
S'../Data/x264_8.csv'
p971
aa(lp972
g7
(g11
S'\xea\x02\xd7\x92\xaa-\xf8?'
p973
tp974
Rp975
aaa(lp976
(lp977
g971
aa(lp978
g7
(g11
S'\xea\x02\xd7\x92\xaa-\xf8?'
p979
tp980
Rp981
aaa(lp982
(lp983
S'../Data/x264_16.csv'
p984
aa(lp985
g7
(g11
S'\x8e^L\x9e\xd0\xc5\x01@'
p986
tp987
Rp988
aaa(lp989
(lp990
S'../Data/x264_11.csv'
p991
aa(lp992
g7
(g11
S'\xea\x02\xd7\x92\xaa-\xf8?'
p993
tp994
Rp995
aaa(lp996
(lp997
S'../Data/x264_10.csv'
p998
aa(lp999
g7
(g11
S'\xaa\xee\xd0\x8a\xa3\x9c\xed?'
p1000
tp1001
Rp1002
aaa(lp1003
(lp1004
g958
aa(lp1005
g7
(g11
S'\x9c^\xf9)\xdba\xd2?'
p1006
tp1007
Rp1008
aaa(lp1009
(lp1010
g991
aa(lp1011
g7
(g11
S'\xea\x02\xd7\x92\xaa-\xf8?'
p1012
tp1013
Rp1014
aaa(lp1015
(lp1016
g971
aa(lp1017
g7
(g11
S'\xea\x02\xd7\x92\xaa-\xf8?'
p1018
tp1019
Rp1020
aaa(lp1021
(lp1022
g998
aa(lp1023
g7
(g11
S'\xaa\xee\xd0\x8a\xa3\x9c\xed?'
p1024
tp1025
Rp1026
aaa(lp1027
(lp1028
g991
aa(lp1029
g7
(g11
S'\xea\x02\xd7\x92\xaa-\xf8?'
p1030
tp1031
Rp1032
aaa(lp1033
(lp1034
g958
aa(lp1035
g7
(g11
S'\x9c^\xf9)\xdba\xd2?'
p1036
tp1037
Rp1038
aaa(lp1039
(lp1040
S'../Data/x264_3.csv'
p1041
aa(lp1042
g7
(g11
S'\xf5\xde\xdf\xd3\x8f\x9d\x1e@'
p1043
tp1044
Rp1045
aaa(lp1046
(lp1047
g991
aa(lp1048
g7
(g11
S'\xea\x02\xd7\x92\xaa-\xf8?'
p1049
tp1050
Rp1051
aaa(lp1052
(lp1053
g951
aa(lp1054
g7
(g11
S'\x97&u\xa9ld\x01@'
p1055
tp1056
Rp1057
aaa(lp1058
(lp1059
g958
aa(lp1060
g7
(g11
S'\x9c^\xf9)\xdba\xd2?'
p1061
tp1062
Rp1063
aaa(lp1064
(lp1065
S'../Data/x264_18.csv'
p1066
aa(lp1067
g7
(g11
S'\x9c^\xf9)\xdba\xd2?'
p1068
tp1069
Rp1070
aaa(lp1071
(lp1072
g958
aa(lp1073
g7
(g11
S'\x9c^\xf9)\xdba\xd2?'
p1074
tp1075
Rp1076
aaa(lp1077
(lp1078
S'../Data/x264_4.csv'
p1079
aa(lp1080
g7
(g11
S'\x8e^L\x9e\xd0\xc5\x01@'
p1081
tp1082
Rp1083
aaa(lp1084
(lp1085
g1066
aa(lp1086
g7
(g11
S'\x9c^\xf9)\xdba\xd2?'
p1087
tp1088
Rp1089
aaa(lp1090
(lp1091
g944
aa(lp1092
g7
(g11
S'\xaa\xee\xd0\x8a\xa3\x9c\xed?'
p1093
tp1094
Rp1095
aaa(lp1096
(lp1097
S'../Data/x264_19.csv'
p1098
aa(lp1099
g7
(g11
S'E\r\xb7\x94\x08\xd5\x16@'
p1100
tp1101
Rp1102
aaa(lp1103
(lp1104
g991
aa(lp1105
g7
(g11
S'\xea\x02\xd7\x92\xaa-\xf8?'
p1106
tp1107
Rp1108
aaa(lp1109
(lp1110
g998
aa(lp1111
g7
(g11
S'\xaa\xee\xd0\x8a\xa3\x9c\xed?'
p1112
tp1113
Rp1114
aaa(lp1115
(lp1116
g971
aa(lp1117
g7
(g11
S'\xea\x02\xd7\x92\xaa-\xf8?'
p1118
tp1119
Rp1120
aaa(lp1121
(lp1122
g944
aa(lp1123
g7
(g11
S'\xaa\xee\xd0\x8a\xa3\x9c\xed?'
p1124
tp1125
Rp1126
aaa(lp1127
(lp1128
g958
aa(lp1129
g7
(g11
S'\x9c^\xf9)\xdba\xd2?'
p1130
tp1131
Rp1132
aaas.