(dp0
S'sqlite'
p1
(lp2
(lp3
(lp4
S'../Data/sqlite_18.csv'
p5
aa(lp6
cnumpy.core.multiarray
scalar
p7
(cnumpy
dtype
p8
(S'f8'
p9
I0
I1
tp10
Rp11
(I3
S'<'
p12
NNNI-1
I-1
I0
tp13
bS'\xb1\xb7\x00\xb4n{2@'
p14
tp15
Rp16
aaa(lp17
(lp18
S'../Data/sqlite_11.csv'
p19
aa(lp20
g7
(g11
S'z/1,\xbc\xfd\x1a@'
p21
tp22
Rp23
aaa(lp24
(lp25
g5
aa(lp26
g7
(g11
S'\xb1\xb7\x00\xb4n{2@'
p27
tp28
Rp29
aaa(lp30
(lp31
S'../Data/sqlite_59.csv'
p32
aa(lp33
g7
(g11
S'\xd4|\xf2\xde\xd5\xc5\x00@'
p34
tp35
Rp36
aaa(lp37
(lp38
S'../Data/sqlite_19.csv'
p39
aa(lp40
g7
(g11
S'T\x93\xe0\x98/\xce\x00@'
p41
tp42
Rp43
aaa(lp44
(lp45
g39
aa(lp46
g7
(g11
S'T\x93\xe0\x98/\xce\x00@'
p47
tp48
Rp49
aaa(lp50
(lp51
S'../Data/sqlite_45.csv'
p52
aa(lp53
g7
(g11
S'\xd4\xe32\x92r\xd3\x0b@'
p54
tp55
Rp56
aaa(lp57
(lp58
g5
aa(lp59
g7
(g11
S'\xb1\xb7\x00\xb4n{2@'
p60
tp61
Rp62
aaa(lp63
(lp64
S'../Data/sqlite_10.csv'
p65
aa(lp66
g7
(g11
S'\x15\xf2,\xa9U;\x13@'
p67
tp68
Rp69
aaa(lp70
(lp71
g19
aa(lp72
g7
(g11
S'z/1,\xbc\xfd\x1a@'
p73
tp74
Rp75
aaa(lp76
(lp77
S'../Data/sqlite_16.csv'
p78
aa(lp79
g7
(g11
S'\x10\xb6\x16-R\x16\x0f@'
p80
tp81
Rp82
aaa(lp83
(lp84
g39
aa(lp85
g7
(g11
S'T\x93\xe0\x98/\xce\x00@'
p86
tp87
Rp88
aaa(lp89
(lp90
g52
aa(lp91
g7
(g11
S'\xd4\xe32\x92r\xd3\x0b@'
p92
tp93
Rp94
aaa(lp95
(lp96
g39
aa(lp97
g7
(g11
S'T\x93\xe0\x98/\xce\x00@'
p98
tp99
Rp100
aaa(lp101
(lp102
g52
aa(lp103
g7
(g11
S'\xd4\xe32\x92r\xd3\x0b@'
p104
tp105
Rp106
aaa(lp107
(lp108
g5
aa(lp109
g7
(g11
S'\xb1\xb7\x00\xb4n{2@'
p110
tp111
Rp112
aaa(lp113
(lp114
g39
aa(lp115
g7
(g11
S'T\x93\xe0\x98/\xce\x00@'
p116
tp117
Rp118
aaa(lp119
(lp120
g65
aa(lp121
g7
(g11
S'\x15\xf2,\xa9U;\x13@'
p122
tp123
Rp124
aaa(lp125
(lp126
g65
aa(lp127
g7
(g11
S'\x15\xf2,\xa9U;\x13@'
p128
tp129
Rp130
aaa(lp131
(lp132
S'../Data/sqlite_17.csv'
p133
aa(lp134
g7
(g11
S'\x98\x1f\xba\x04s\xc1\xeb?'
p135
tp136
Rp137
aaasS'spear'
p138
(lp139
(lp140
(lp141
S'../Data/spear_7.csv'
p142
aa(lp143
g7
(g11
S'\xf4\x01\x8a/\x0bl\xb9?'
p144
tp145
Rp146
aaa(lp147
(lp148
g142
aa(lp149
g7
(g11
S'\xf4\x01\x8a/\x0bl\xb9?'
p150
tp151
Rp152
aaa(lp153
(lp154
g142
aa(lp155
g7
(g11
S'\xf4\x01\x8a/\x0bl\xb9?'
p156
tp157
Rp158
aaa(lp159
(lp160
g142
aa(lp161
g7
(g11
S'\xf4\x01\x8a/\x0bl\xb9?'
p162
tp163
Rp164
aaa(lp165
(lp166
g142
aa(lp167
g7
(g11
S'\xf4\x01\x8a/\x0bl\xb9?'
p168
tp169
Rp170
aaa(lp171
(lp172
g142
aa(lp173
g7
(g11
S'\xf4\x01\x8a/\x0bl\xb9?'
p174
tp175
Rp176
aaa(lp177
(lp178
S'../Data/spear_1.csv'
p179
aa(lp180
g7
(g11
S'\xf4\x01\x8a/\x0bl\xb9?'
p181
tp182
Rp183
aaa(lp184
(lp185
S'../Data/spear_9.csv'
p186
aa(lp187
g7
(g11
S'\xf4\x01\x8a/\x0bl\xb9?'
p188
tp189
Rp190
aaa(lp191
(lp192
g142
aa(lp193
g7
(g11
S'\xf4\x01\x8a/\x0bl\xb9?'
p194
tp195
Rp196
aaa(lp197
(lp198
g142
aa(lp199
g7
(g11
S'\xf4\x01\x8a/\x0bl\xb9?'
p200
tp201
Rp202
aaa(lp203
(lp204
g142
aa(lp205
g7
(g11
S'\xf4\x01\x8a/\x0bl\xb9?'
p206
tp207
Rp208
aaa(lp209
(lp210
g142
aa(lp211
g7
(g11
S'\xf4\x01\x8a/\x0bl\xb9?'
p212
tp213
Rp214
aaa(lp215
(lp216
g142
aa(lp217
g7
(g11
S'\xf4\x01\x8a/\x0bl\xb9?'
p218
tp219
Rp220
aaa(lp221
(lp222
g179
aa(lp223
g7
(g11
S'\xf4\x01\x8a/\x0bl\xb9?'
p224
tp225
Rp226
aaa(lp227
(lp228
g179
aa(lp229
g7
(g11
S'\xf4\x01\x8a/\x0bl\xb9?'
p230
tp231
Rp232
aaa(lp233
(lp234
g179
aa(lp235
g7
(g11
S'\xf4\x01\x8a/\x0bl\xb9?'
p236
tp237
Rp238
aaa(lp239
(lp240
g142
aa(lp241
g7
(g11
S'\xf4\x01\x8a/\x0bl\xb9?'
p242
tp243
Rp244
aaa(lp245
(lp246
g186
aa(lp247
g7
(g11
S'\xf4\x01\x8a/\x0bl\xb9?'
p248
tp249
Rp250
aaa(lp251
(lp252
g142
aa(lp253
g7
(g11
S'\xf4\x01\x8a/\x0bl\xb9?'
p254
tp255
Rp256
aaa(lp257
(lp258
g142
aa(lp259
g7
(g11
S'\xf4\x01\x8a/\x0bl\xb9?'
p260
tp261
Rp262
aaasS'sac'
p263
(lp264
(lp265
(lp266
S'../Data/sac_2.csv'
p267
aa(lp268
g7
(g11
S'\x00\x00\x00\x00\x00\x00Y@'
p269
tp270
Rp271
aaa(lp272
(lp273
S'../Data/sac_8.csv'
p274
aa(lp275
g7
(g11
S'oZ\x1e\x8c\xd9\x85\xec?'
p276
tp277
Rp278
aaa(lp279
(lp280
S'../Data/sac_4.csv'
p281
aa(lp282
g7
(g11
S'f\xfeA\x82\xddq\xe4?'
p283
tp284
Rp285
aaa(lp286
(lp287
g281
aa(lp288
g7
(g11
S'f\xfeA\x82\xddq\xe4?'
p289
tp290
Rp291
aaa(lp292
(lp293
g281
aa(lp294
g7
(g11
S'f\xfeA\x82\xddq\xe4?'
p295
tp296
Rp297
aaa(lp298
(lp299
g281
aa(lp300
g7
(g11
S'f\xfeA\x82\xddq\xe4?'
p301
tp302
Rp303
aaa(lp304
(lp305
S'../Data/sac_6.csv'
p306
aa(lp307
g7
(g11
S'@%4\xe3y@\xd2?'
p308
tp309
Rp310
aaa(lp311
(lp312
g281
aa(lp313
g7
(g11
S'f\xfeA\x82\xddq\xe4?'
p314
tp315
Rp316
aaa(lp317
(lp318
g281
aa(lp319
g7
(g11
S'f\xfeA\x82\xddq\xe4?'
p320
tp321
Rp322
aaa(lp323
(lp324
g267
aa(lp325
g7
(g11
S'\x00\x00\x00\x00\x00\x00Y@'
p326
tp327
Rp328
aaa(lp329
(lp330
S'../Data/sac_9.csv'
p331
aa(lp332
g7
(g11
S'\x8e\x08\x1a\x03\x9b\xca\x12@'
p333
tp334
Rp335
aaa(lp336
(lp337
g306
aa(lp338
g7
(g11
S'@%4\xe3y@\xd2?'
p339
tp340
Rp341
aaa(lp342
(lp343
g331
aa(lp344
g7
(g11
S'\x8e\x08\x1a\x03\x9b\xca\x12@'
p345
tp346
Rp347
aaa(lp348
(lp349
g281
aa(lp350
g7
(g11
S'f\xfeA\x82\xddq\xe4?'
p351
tp352
Rp353
aaa(lp354
(lp355
g281
aa(lp356
g7
(g11
S'f\xfeA\x82\xddq\xe4?'
p357
tp358
Rp359
aaa(lp360
(lp361
g267
aa(lp362
g7
(g11
S'\x00\x00\x00\x00\x00\x00Y@'
p363
tp364
Rp365
aaa(lp366
(lp367
g267
aa(lp368
g7
(g11
S'\x00\x00\x00\x00\x00\x00Y@'
p369
tp370
Rp371
aaa(lp372
(lp373
g267
aa(lp374
g7
(g11
S'\x00\x00\x00\x00\x00\x00Y@'
p375
tp376
Rp377
aaa(lp378
(lp379
g306
aa(lp380
g7
(g11
S'\x1a\xd2\x82\xa7\x94\x0e\xd2?'
p381
tp382
Rp383
aaa(lp384
(lp385
g306
aa(lp386
g7
(g11
S'\x1a\xd2\x82\xa7\x94\x0e\xd2?'
p387
tp388
Rp389
aaasS'storm-obj2'
p390
(lp391
(lp392
(lp393
S'../Data/storm-obj2_feature9.csv'
p394
aa(lp395
g7
(g11
S'\x00\x00\x00\x00\x00\x00\x00\x00'
p396
tp397
Rp398
aaa(lp399
(lp400
g394
aa(lp401
g7
(g11
S'\x00\x00\x00\x00\x00\x00\x00\x00'
p402
tp403
Rp404
aaa(lp405
(lp406
g394
aa(lp407
g7
(g11
S'\x00\x00\x00\x00\x00\x00\x00\x00'
p408
tp409
Rp410
aaa(lp411
(lp412
g394
aa(lp413
g7
(g11
S'\x00\x00\x00\x00\x00\x00\x00\x00'
p414
tp415
Rp416
aaa(lp417
(lp418
g394
aa(lp419
g7
(g11
S'\x00\x00\x00\x00\x00\x00\x00\x00'
p420
tp421
Rp422
aaa(lp423
(lp424
g394
aa(lp425
g7
(g11
S'\x00\x00\x00\x00\x00\x00\x00\x00'
p426
tp427
Rp428
aaa(lp429
(lp430
g394
aa(lp431
g7
(g11
S'\x00\x00\x00\x00\x00\x00\x00\x00'
p432
tp433
Rp434
aaa(lp435
(lp436
g394
aa(lp437
g7
(g11
S'\x00\x00\x00\x00\x00\x00\x00\x00'
p438
tp439
Rp440
aaa(lp441
(lp442
g394
aa(lp443
g7
(g11
S'\x00\x00\x00\x00\x00\x00\x00\x00'
p444
tp445
Rp446
aaa(lp447
(lp448
g394
aa(lp449
g7
(g11
S'\x00\x00\x00\x00\x00\x00\x00\x00'
p450
tp451
Rp452
aaa(lp453
(lp454
g394
aa(lp455
g7
(g11
S'\x00\x00\x00\x00\x00\x00\x00\x00'
p456
tp457
Rp458
aaa(lp459
(lp460
g394
aa(lp461
g7
(g11
S'\x00\x00\x00\x00\x00\x00\x00\x00'
p462
tp463
Rp464
aaa(lp465
(lp466
g394
aa(lp467
g7
(g11
S'\x00\x00\x00\x00\x00\x00\x00\x00'
p468
tp469
Rp470
aaa(lp471
(lp472
g394
aa(lp473
g7
(g11
S'\x00\x00\x00\x00\x00\x00\x00\x00'
p474
tp475
Rp476
aaa(lp477
(lp478
g394
aa(lp479
g7
(g11
S'\x00\x00\x00\x00\x00\x00\x00\x00'
p480
tp481
Rp482
aaa(lp483
(lp484
g394
aa(lp485
g7
(g11
S'\x00\x00\x00\x00\x00\x00\x00\x00'
p486
tp487
Rp488
aaa(lp489
(lp490
g394
aa(lp491
g7
(g11
S'\x00\x00\x00\x00\x00\x00\x00\x00'
p492
tp493
Rp494
aaa(lp495
(lp496
g394
aa(lp497
g7
(g11
S'\x00\x00\x00\x00\x00\x00\x00\x00'
p498
tp499
Rp500
aaa(lp501
(lp502
g394
aa(lp503
g7
(g11
S'\x00\x00\x00\x00\x00\x00\x00\x00'
p504
tp505
Rp506
aaa(lp507
(lp508
g394
aa(lp509
g7
(g11
S'\x00\x00\x00\x00\x00\x00\x00\x00'
p510
tp511
Rp512
aaasS'storm-obj1'
p513
(lp514
(lp515
(lp516
S'../Data/storm-obj1_feature9.csv'
p517
aa(lp518
g7
(g11
S'\xad\x88\x03\xf1-qI@'
p519
tp520
Rp521
aaa(lp522
(lp523
S'../Data/storm-obj1_feature8.csv'
p524
aa(lp525
g7
(g11
S'\xf0\x96\x98JL%\x02@'
p526
tp527
Rp528
aaa(lp529
(lp530
g517
aa(lp531
g7
(g11
S'\xad\x88\x03\xf1-qI@'
p532
tp533
Rp534
aaa(lp535
(lp536
g524
aa(lp537
g7
(g11
S'\xf0\x96\x98JL%\x02@'
p538
tp539
Rp540
aaa(lp541
(lp542
g517
aa(lp543
g7
(g11
S'\xad\x88\x03\xf1-qI@'
p544
tp545
Rp546
aaa(lp547
(lp548
g524
aa(lp549
g7
(g11
S'\xf0\x96\x98JL%\x02@'
p550
tp551
Rp552
aaa(lp553
(lp554
g524
aa(lp555
g7
(g11
S'\xf0\x96\x98JL%\x02@'
p556
tp557
Rp558
aaa(lp559
(lp560
g517
aa(lp561
g7
(g11
S'\xad\x88\x03\xf1-qI@'
p562
tp563
Rp564
aaa(lp565
(lp566
g524
aa(lp567
g7
(g11
S'\xf0\x96\x98JL%\x02@'
p568
tp569
Rp570
aaa(lp571
(lp572
g524
aa(lp573
g7
(g11
S'\xf0\x96\x98JL%\x02@'
p574
tp575
Rp576
aaa(lp577
(lp578
g517
aa(lp579
g7
(g11
S'\xad\x88\x03\xf1-qI@'
p580
tp581
Rp582
aaa(lp583
(lp584
g524
aa(lp585
g7
(g11
S'\xf0\x96\x98JL%\x02@'
p586
tp587
Rp588
aaa(lp589
(lp590
g524
aa(lp591
g7
(g11
S'\xf0\x96\x98JL%\x02@'
p592
tp593
Rp594
aaa(lp595
(lp596
g517
aa(lp597
g7
(g11
S'\xad\x88\x03\xf1-qI@'
p598
tp599
Rp600
aaa(lp601
(lp602
g517
aa(lp603
g7
(g11
S'\xad\x88\x03\xf1-qI@'
p604
tp605
Rp606
aaa(lp607
(lp608
g524
aa(lp609
g7
(g11
S'\xf0\x96\x98JL%\x02@'
p610
tp611
Rp612
aaa(lp613
(lp614
g524
aa(lp615
g7
(g11
S'\xf0\x96\x98JL%\x02@'
p616
tp617
Rp618
aaa(lp619
(lp620
g524
aa(lp621
g7
(g11
S'\xf0\x96\x98JL%\x02@'
p622
tp623
Rp624
aaa(lp625
(lp626
g517
aa(lp627
g7
(g11
S'\xad\x88\x03\xf1-qI@'
p628
tp629
Rp630
aaa(lp631
(lp632
g524
aa(lp633
g7
(g11
S'\xf0\x96\x98JL%\x02@'
p634
tp635
Rp636
aaasS'x264'
p637
(lp638
(lp639
(lp640
S'../Data/x264_9.csv'
p641
aa(lp642
g7
(g11
S'\x9c^\xf9)\xdba\xd2?'
p643
tp644
Rp645
aaa(lp646
(lp647
S'../Data/x264_7.csv'
p648
aa(lp649
g7
(g11
S'\xaa\xee\xd0\x8a\xa3\x9c\xed?'
p650
tp651
Rp652
aaa(lp653
(lp654
S'../Data/x264_14.csv'
p655
aa(lp656
g7
(g11
S'\x1f\xc46\xafo\xcf:@'
p657
tp658
Rp659
aaa(lp660
(lp661
S'../Data/x264_6.csv'
p662
aa(lp663
g7
(g11
S'\x97&u\xa9ld\x01@'
p664
tp665
Rp666
aaa(lp667
(lp668
S'../Data/x264_0.csv'
p669
aa(lp670
g7
(g11
S'\x97\xbf\xd5\x92\xfbo<@'
p671
tp672
Rp673
aaa(lp674
(lp675
g641
aa(lp676
g7
(g11
S'\x9c^\xf9)\xdba\xd2?'
p677
tp678
Rp679
aaa(lp680
(lp681
S'../Data/x264_11.csv'
p682
aa(lp683
g7
(g11
S'\xea\x02\xd7\x92\xaa-\xf8?'
p684
tp685
Rp686
aaa(lp687
(lp688
S'../Data/x264_3.csv'
p689
aa(lp690
g7
(g11
S'\xf5\xde\xdf\xd3\x8f\x9d\x1e@'
p691
tp692
Rp693
aaa(lp694
(lp695
g648
aa(lp696
g7
(g11
S'\xaa\xee\xd0\x8a\xa3\x9c\xed?'
p697
tp698
Rp699
aaa(lp700
(lp701
S'../Data/x264_10.csv'
p702
aa(lp703
g7
(g11
S'\xaa\xee\xd0\x8a\xa3\x9c\xed?'
p704
tp705
Rp706
aaa(lp707
(lp708
g648
aa(lp709
g7
(g11
S'\xaa\xee\xd0\x8a\xa3\x9c\xed?'
p710
tp711
Rp712
aaa(lp713
(lp714
S'../Data/x264_17.csv'
p715
aa(lp716
g7
(g11
S'>\x98\x82\x97S\xf0*@'
p717
tp718
Rp719
aaa(lp720
(lp721
g715
aa(lp722
g7
(g11
S'>\x98\x82\x97S\xf0*@'
p723
tp724
Rp725
aaa(lp726
(lp727
g682
aa(lp728
g7
(g11
S'\xea\x02\xd7\x92\xaa-\xf8?'
p729
tp730
Rp731
aaa(lp732
(lp733
g682
aa(lp734
g7
(g11
S'\xea\x02\xd7\x92\xaa-\xf8?'
p735
tp736
Rp737
aaa(lp738
(lp739
g648
aa(lp740
g7
(g11
S'\xaa\xee\xd0\x8a\xa3\x9c\xed?'
p741
tp742
Rp743
aaa(lp744
(lp745
g648
aa(lp746
g7
(g11
S'\xaa\xee\xd0\x8a\xa3\x9c\xed?'
p747
tp748
Rp749
aaa(lp750
(lp751
S'../Data/x264_8.csv'
p752
aa(lp753
g7
(g11
S'\xea\x02\xd7\x92\xaa-\xf8?'
p754
tp755
Rp756
aaa(lp757
(lp758
g702
aa(lp759
g7
(g11
S'\xaa\xee\xd0\x8a\xa3\x9c\xed?'
p760
tp761
Rp762
aaa(lp763
(lp764
g655
aa(lp765
g7
(g11
S'\x1f\xc46\xafo\xcf:@'
p766
tp767
Rp768
aaas.