(dp0
S'sqlite'
p1
(lp2
(lp3
(lp4
S'../Data/sqlite_44.csv'
p5
aa(lp6
cnumpy.core.multiarray
scalar
p7
(cnumpy
dtype
p8
(S'f8'
p9
I0
I1
tp10
Rp11
(I3
S'<'
p12
NNNI-1
I-1
I0
tp13
bS'\xe0r:1|\xd6\x01@'
p14
tp15
Rp16
aaa(lp17
(lp18
S'../Data/sqlite_19.csv'
p19
aa(lp20
g7
(g11
S'T\x93\xe0\x98/\xce\x00@'
p21
tp22
Rp23
aaa(lp24
(lp25
S'../Data/sqlite_59.csv'
p26
aa(lp27
g7
(g11
S'\xd4|\xf2\xde\xd5\xc5\x00@'
p28
tp29
Rp30
aaa(lp31
(lp32
S'../Data/sqlite_97.csv'
p33
aa(lp34
g7
(g11
S'\x81\xb2\x89\xb3Wf\x1f@'
p35
tp36
Rp37
aaa(lp38
(lp39
S'../Data/sqlite_17.csv'
p40
aa(lp41
g7
(g11
S'\x98\x1f\xba\x04s\xc1\xeb?'
p42
tp43
Rp44
aaa(lp45
(lp46
g19
aa(lp47
g7
(g11
S'T\x93\xe0\x98/\xce\x00@'
p48
tp49
Rp50
aaa(lp51
(lp52
S'../Data/sqlite_18.csv'
p53
aa(lp54
g7
(g11
S'\xb1\xb7\x00\xb4n{2@'
p55
tp56
Rp57
aaa(lp58
(lp59
S'../Data/sqlite_45.csv'
p60
aa(lp61
g7
(g11
S'\xd4\xe32\x92r\xd3\x0b@'
p62
tp63
Rp64
aaa(lp65
(lp66
g19
aa(lp67
g7
(g11
S'T\x93\xe0\x98/\xce\x00@'
p68
tp69
Rp70
aaa(lp71
(lp72
g60
aa(lp73
g7
(g11
S'\xd4\xe32\x92r\xd3\x0b@'
p74
tp75
Rp76
aaa(lp77
(lp78
S'../Data/sqlite_16.csv'
p79
aa(lp80
g7
(g11
S'\x10\xb6\x16-R\x16\x0f@'
p81
tp82
Rp83
aaa(lp84
(lp85
g5
aa(lp86
g7
(g11
S'\xe0r:1|\xd6\x01@'
p87
tp88
Rp89
aaa(lp90
(lp91
g53
aa(lp92
g7
(g11
S'\xb1\xb7\x00\xb4n{2@'
p93
tp94
Rp95
aaa(lp96
(lp97
g40
aa(lp98
g7
(g11
S'\x98\x1f\xba\x04s\xc1\xeb?'
p99
tp100
Rp101
aaa(lp102
(lp103
g5
aa(lp104
g7
(g11
S'\xe0r:1|\xd6\x01@'
p105
tp106
Rp107
aaa(lp108
(lp109
g19
aa(lp110
g7
(g11
S'T\x93\xe0\x98/\xce\x00@'
p111
tp112
Rp113
aaa(lp114
(lp115
g79
aa(lp116
g7
(g11
S'\x10\xb6\x16-R\x16\x0f@'
p117
tp118
Rp119
aaa(lp120
(lp121
g60
aa(lp122
g7
(g11
S'\xd4\xe32\x92r\xd3\x0b@'
p123
tp124
Rp125
aaa(lp126
(lp127
g26
aa(lp128
g7
(g11
S'\xd4|\xf2\xde\xd5\xc5\x00@'
p129
tp130
Rp131
aaa(lp132
(lp133
g60
aa(lp134
g7
(g11
S'\xd4\xe32\x92r\xd3\x0b@'
p135
tp136
Rp137
aaa(lp138
(lp139
g26
aa(lp140
g7
(g11
S'\xd4|\xf2\xde\xd5\xc5\x00@'
p141
tp142
Rp143
aaa(lp144
(lp145
g79
aa(lp146
g7
(g11
S'\x10\xb6\x16-R\x16\x0f@'
p147
tp148
Rp149
aaa(lp150
(lp151
g26
aa(lp152
g7
(g11
S'\xd4|\xf2\xde\xd5\xc5\x00@'
p153
tp154
Rp155
aaa(lp156
(lp157
S'../Data/sqlite_10.csv'
p158
aa(lp159
g7
(g11
S'\x15\xf2,\xa9U;\x13@'
p160
tp161
Rp162
aaa(lp163
(lp164
g79
aa(lp165
g7
(g11
S'\x10\xb6\x16-R\x16\x0f@'
p166
tp167
Rp168
aaa(lp169
(lp170
S'../Data/sqlite_73.csv'
p171
aa(lp172
g7
(g11
S'\xd2\xb62\xbe\xeb\xbb\x07@'
p173
tp174
Rp175
aaa(lp176
(lp177
g26
aa(lp178
g7
(g11
S'\xd4|\xf2\xde\xd5\xc5\x00@'
p179
tp180
Rp181
aaa(lp182
(lp183
S'../Data/sqlite_52.csv'
p184
aa(lp185
g7
(g11
S'd~p=\x9b\xef\x1d@'
p186
tp187
Rp188
aaa(lp189
(lp190
g26
aa(lp191
g7
(g11
S'\xd4|\xf2\xde\xd5\xc5\x00@'
p192
tp193
Rp194
aaa(lp195
(lp196
S'../Data/sqlite_11.csv'
p197
aa(lp198
g7
(g11
S'z/1,\xbc\xfd\x1a@'
p199
tp200
Rp201
aaasS'spear'
p202
(lp203
(lp204
(lp205
S'../Data/spear_7.csv'
p206
aa(lp207
g7
(g11
S'\xf4\x01\x8a/\x0bl\xb9?'
p208
tp209
Rp210
aaa(lp211
(lp212
S'../Data/spear_1.csv'
p213
aa(lp214
g7
(g11
S'\xf4\x01\x8a/\x0bl\xb9?'
p215
tp216
Rp217
aaa(lp218
(lp219
g206
aa(lp220
g7
(g11
S'\xf4\x01\x8a/\x0bl\xb9?'
p221
tp222
Rp223
aaa(lp224
(lp225
g206
aa(lp226
g7
(g11
S'\xf4\x01\x8a/\x0bl\xb9?'
p227
tp228
Rp229
aaa(lp230
(lp231
g206
aa(lp232
g7
(g11
S'\xf4\x01\x8a/\x0bl\xb9?'
p233
tp234
Rp235
aaa(lp236
(lp237
S'../Data/spear_5.csv'
p238
aa(lp239
g7
(g11
S'8G\x16\xf1\t\xa4\xd2?'
p240
tp241
Rp242
aaa(lp243
(lp244
g206
aa(lp245
g7
(g11
S'\xf4\x01\x8a/\x0bl\xb9?'
p246
tp247
Rp248
aaa(lp249
(lp250
g206
aa(lp251
g7
(g11
S'\xf4\x01\x8a/\x0bl\xb9?'
p252
tp253
Rp254
aaa(lp255
(lp256
g213
aa(lp257
g7
(g11
S'\xf4\x01\x8a/\x0bl\xb9?'
p258
tp259
Rp260
aaa(lp261
(lp262
g206
aa(lp263
g7
(g11
S'\xf4\x01\x8a/\x0bl\xb9?'
p264
tp265
Rp266
aaa(lp267
(lp268
g213
aa(lp269
g7
(g11
S'\xf4\x01\x8a/\x0bl\xb9?'
p270
tp271
Rp272
aaa(lp273
(lp274
g206
aa(lp275
g7
(g11
S'\xf4\x01\x8a/\x0bl\xb9?'
p276
tp277
Rp278
aaa(lp279
(lp280
g206
aa(lp281
g7
(g11
S'\xf4\x01\x8a/\x0bl\xb9?'
p282
tp283
Rp284
aaa(lp285
(lp286
S'../Data/spear_9.csv'
p287
aa(lp288
g7
(g11
S'\xf4\x01\x8a/\x0bl\xb9?'
p289
tp290
Rp291
aaa(lp292
(lp293
g206
aa(lp294
g7
(g11
S'\xf4\x01\x8a/\x0bl\xb9?'
p295
tp296
Rp297
aaa(lp298
(lp299
g206
aa(lp300
g7
(g11
S'\xf4\x01\x8a/\x0bl\xb9?'
p301
tp302
Rp303
aaa(lp304
(lp305
g206
aa(lp306
g7
(g11
S'\xf4\x01\x8a/\x0bl\xb9?'
p307
tp308
Rp309
aaa(lp310
(lp311
g213
aa(lp312
g7
(g11
S'\xf4\x01\x8a/\x0bl\xb9?'
p313
tp314
Rp315
aaa(lp316
(lp317
g206
aa(lp318
g7
(g11
S'\xf4\x01\x8a/\x0bl\xb9?'
p319
tp320
Rp321
aaa(lp322
(lp323
g206
aa(lp324
g7
(g11
S'\xf4\x01\x8a/\x0bl\xb9?'
p325
tp326
Rp327
aaa(lp328
(lp329
g213
aa(lp330
g7
(g11
S'\xf4\x01\x8a/\x0bl\xb9?'
p331
tp332
Rp333
aaa(lp334
(lp335
g206
aa(lp336
g7
(g11
S'\xf4\x01\x8a/\x0bl\xb9?'
p337
tp338
Rp339
aaa(lp340
(lp341
g206
aa(lp342
g7
(g11
S'\xf4\x01\x8a/\x0bl\xb9?'
p343
tp344
Rp345
aaa(lp346
(lp347
S'../Data/spear_0.csv'
p348
aa(lp349
g7
(g11
S'\x95F\xf3\xb9\xfex\xb9?'
p350
tp351
Rp352
aaa(lp353
(lp354
g206
aa(lp355
g7
(g11
S'\xf4\x01\x8a/\x0bl\xb9?'
p356
tp357
Rp358
aaa(lp359
(lp360
g287
aa(lp361
g7
(g11
S'\xf4\x01\x8a/\x0bl\xb9?'
p362
tp363
Rp364
aaa(lp365
(lp366
g213
aa(lp367
g7
(g11
S'\xf4\x01\x8a/\x0bl\xb9?'
p368
tp369
Rp370
aaa(lp371
(lp372
g206
aa(lp373
g7
(g11
S'\xf4\x01\x8a/\x0bl\xb9?'
p374
tp375
Rp376
aaa(lp377
(lp378
g206
aa(lp379
g7
(g11
S'\xf4\x01\x8a/\x0bl\xb9?'
p380
tp381
Rp382
aaa(lp383
(lp384
g213
aa(lp385
g7
(g11
S'\xf4\x01\x8a/\x0bl\xb9?'
p386
tp387
Rp388
aaasS'sac'
p389
(lp390
(lp391
(lp392
S'../Data/sac_4.csv'
p393
aa(lp394
g7
(g11
S'f\xfeA\x82\xddq\xe4?'
p395
tp396
Rp397
aaa(lp398
(lp399
S'../Data/sac_9.csv'
p400
aa(lp401
g7
(g11
S'\x8e\x08\x1a\x03\x9b\xca\x12@'
p402
tp403
Rp404
aaa(lp405
(lp406
S'../Data/sac_2.csv'
p407
aa(lp408
g7
(g11
S'\x00\x00\x00\x00\x00\x00Y@'
p409
tp410
Rp411
aaa(lp412
(lp413
g400
aa(lp414
g7
(g11
S'\x8e\x08\x1a\x03\x9b\xca\x12@'
p415
tp416
Rp417
aaa(lp418
(lp419
g407
aa(lp420
g7
(g11
S'\x00\x00\x00\x00\x00\x00Y@'
p421
tp422
Rp423
aaa(lp424
(lp425
g407
aa(lp426
g7
(g11
S'\x00\x00\x00\x00\x00\x00Y@'
p427
tp428
Rp429
aaa(lp430
(lp431
g400
aa(lp432
g7
(g11
S'\x8e\x08\x1a\x03\x9b\xca\x12@'
p433
tp434
Rp435
aaa(lp436
(lp437
g400
aa(lp438
g7
(g11
S'\x8e\x08\x1a\x03\x9b\xca\x12@'
p439
tp440
Rp441
aaa(lp442
(lp443
g407
aa(lp444
g7
(g11
S'\x00\x00\x00\x00\x00\x00Y@'
p445
tp446
Rp447
aaa(lp448
(lp449
g407
aa(lp450
g7
(g11
S'\x00\x00\x00\x00\x00\x00Y@'
p451
tp452
Rp453
aaa(lp454
(lp455
g393
aa(lp456
g7
(g11
S'f\xfeA\x82\xddq\xe4?'
p457
tp458
Rp459
aaa(lp460
(lp461
g407
aa(lp462
g7
(g11
S'\x00\x00\x00\x00\x00\x00Y@'
p463
tp464
Rp465
aaa(lp466
(lp467
g393
aa(lp468
g7
(g11
S'f\xfeA\x82\xddq\xe4?'
p469
tp470
Rp471
aaa(lp472
(lp473
g407
aa(lp474
g7
(g11
S'\x00\x00\x00\x00\x00\x00Y@'
p475
tp476
Rp477
aaa(lp478
(lp479
g407
aa(lp480
g7
(g11
S'\x00\x00\x00\x00\x00\x00Y@'
p481
tp482
Rp483
aaa(lp484
(lp485
g393
aa(lp486
g7
(g11
S'f\xfeA\x82\xddq\xe4?'
p487
tp488
Rp489
aaa(lp490
(lp491
g407
aa(lp492
g7
(g11
S'\x00\x00\x00\x00\x00\x00Y@'
p493
tp494
Rp495
aaa(lp496
(lp497
g393
aa(lp498
g7
(g11
S'f\xfeA\x82\xddq\xe4?'
p499
tp500
Rp501
aaa(lp502
(lp503
g393
aa(lp504
g7
(g11
S'f\xfeA\x82\xddq\xe4?'
p505
tp506
Rp507
aaa(lp508
(lp509
g393
aa(lp510
g7
(g11
S'f\xfeA\x82\xddq\xe4?'
p511
tp512
Rp513
aaa(lp514
(lp515
g393
aa(lp516
g7
(g11
S'f\xfeA\x82\xddq\xe4?'
p517
tp518
Rp519
aaa(lp520
(lp521
g407
aa(lp522
g7
(g11
S'\x00\x00\x00\x00\x00\x00Y@'
p523
tp524
Rp525
aaa(lp526
(lp527
S'../Data/sac_6.csv'
p528
aa(lp529
g7
(g11
S'\x1a\xd2\x82\xa7\x94\x0e\xd2?'
p530
tp531
Rp532
aaa(lp533
(lp534
g528
aa(lp535
g7
(g11
S'@%4\xe3y@\xd2?'
p536
tp537
Rp538
aaa(lp539
(lp540
g393
aa(lp541
g7
(g11
S'f\xfeA\x82\xddq\xe4?'
p542
tp543
Rp544
aaa(lp545
(lp546
g393
aa(lp547
g7
(g11
S'f\xfeA\x82\xddq\xe4?'
p548
tp549
Rp550
aaa(lp551
(lp552
S'../Data/sac_8.csv'
p553
aa(lp554
g7
(g11
S'oZ\x1e\x8c\xd9\x85\xec?'
p555
tp556
Rp557
aaa(lp558
(lp559
g393
aa(lp560
g7
(g11
S'f\xfeA\x82\xddq\xe4?'
p561
tp562
Rp563
aaa(lp564
(lp565
g393
aa(lp566
g7
(g11
S'f\xfeA\x82\xddq\xe4?'
p567
tp568
Rp569
aaa(lp570
(lp571
g393
aa(lp572
g7
(g11
S'f\xfeA\x82\xddq\xe4?'
p573
tp574
Rp575
aaasS'storm-obj2'
p576
(lp577
(lp578
(lp579
S'../Data/storm-obj2_feature9.csv'
p580
aa(lp581
g7
(g11
S'\x00\x00\x00\x00\x00\x00\x00\x00'
p582
tp583
Rp584
aaa(lp585
(lp586
g580
aa(lp587
g7
(g11
S'\x00\x00\x00\x00\x00\x00\x00\x00'
p588
tp589
Rp590
aaa(lp591
(lp592
g580
aa(lp593
g7
(g11
S'\x00\x00\x00\x00\x00\x00\x00\x00'
p594
tp595
Rp596
aaa(lp597
(lp598
g580
aa(lp599
g7
(g11
S'\x00\x00\x00\x00\x00\x00\x00\x00'
p600
tp601
Rp602
aaa(lp603
(lp604
g580
aa(lp605
g7
(g11
S'\x00\x00\x00\x00\x00\x00\x00\x00'
p606
tp607
Rp608
aaa(lp609
(lp610
g580
aa(lp611
g7
(g11
S'\x00\x00\x00\x00\x00\x00\x00\x00'
p612
tp613
Rp614
aaa(lp615
(lp616
g580
aa(lp617
g7
(g11
S'\x00\x00\x00\x00\x00\x00\x00\x00'
p618
tp619
Rp620
aaa(lp621
(lp622
g580
aa(lp623
g7
(g11
S'\x00\x00\x00\x00\x00\x00\x00\x00'
p624
tp625
Rp626
aaa(lp627
(lp628
g580
aa(lp629
g7
(g11
S'\x00\x00\x00\x00\x00\x00\x00\x00'
p630
tp631
Rp632
aaa(lp633
(lp634
g580
aa(lp635
g7
(g11
S'\x00\x00\x00\x00\x00\x00\x00\x00'
p636
tp637
Rp638
aaa(lp639
(lp640
g580
aa(lp641
g7
(g11
S'\x00\x00\x00\x00\x00\x00\x00\x00'
p642
tp643
Rp644
aaa(lp645
(lp646
g580
aa(lp647
g7
(g11
S'\x00\x00\x00\x00\x00\x00\x00\x00'
p648
tp649
Rp650
aaa(lp651
(lp652
g580
aa(lp653
g7
(g11
S'\x00\x00\x00\x00\x00\x00\x00\x00'
p654
tp655
Rp656
aaa(lp657
(lp658
g580
aa(lp659
g7
(g11
S'\x00\x00\x00\x00\x00\x00\x00\x00'
p660
tp661
Rp662
aaa(lp663
(lp664
g580
aa(lp665
g7
(g11
S'\x00\x00\x00\x00\x00\x00\x00\x00'
p666
tp667
Rp668
aaa(lp669
(lp670
g580
aa(lp671
g7
(g11
S'\x00\x00\x00\x00\x00\x00\x00\x00'
p672
tp673
Rp674
aaa(lp675
(lp676
g580
aa(lp677
g7
(g11
S'\x00\x00\x00\x00\x00\x00\x00\x00'
p678
tp679
Rp680
aaa(lp681
(lp682
g580
aa(lp683
g7
(g11
S'\x00\x00\x00\x00\x00\x00\x00\x00'
p684
tp685
Rp686
aaa(lp687
(lp688
g580
aa(lp689
g7
(g11
S'\x00\x00\x00\x00\x00\x00\x00\x00'
p690
tp691
Rp692
aaa(lp693
(lp694
g580
aa(lp695
g7
(g11
S'\x00\x00\x00\x00\x00\x00\x00\x00'
p696
tp697
Rp698
aaa(lp699
(lp700
g580
aa(lp701
g7
(g11
S'\x00\x00\x00\x00\x00\x00\x00\x00'
p702
tp703
Rp704
aaa(lp705
(lp706
g580
aa(lp707
g7
(g11
S'\x00\x00\x00\x00\x00\x00\x00\x00'
p708
tp709
Rp710
aaa(lp711
(lp712
g580
aa(lp713
g7
(g11
S'\x00\x00\x00\x00\x00\x00\x00\x00'
p714
tp715
Rp716
aaa(lp717
(lp718
g580
aa(lp719
g7
(g11
S'\x00\x00\x00\x00\x00\x00\x00\x00'
p720
tp721
Rp722
aaa(lp723
(lp724
g580
aa(lp725
g7
(g11
S'\x00\x00\x00\x00\x00\x00\x00\x00'
p726
tp727
Rp728
aaa(lp729
(lp730
g580
aa(lp731
g7
(g11
S'\x00\x00\x00\x00\x00\x00\x00\x00'
p732
tp733
Rp734
aaa(lp735
(lp736
g580
aa(lp737
g7
(g11
S'\x00\x00\x00\x00\x00\x00\x00\x00'
p738
tp739
Rp740
aaa(lp741
(lp742
g580
aa(lp743
g7
(g11
S'\x00\x00\x00\x00\x00\x00\x00\x00'
p744
tp745
Rp746
aaa(lp747
(lp748
g580
aa(lp749
g7
(g11
S'\x00\x00\x00\x00\x00\x00\x00\x00'
p750
tp751
Rp752
aaa(lp753
(lp754
g580
aa(lp755
g7
(g11
S'\x00\x00\x00\x00\x00\x00\x00\x00'
p756
tp757
Rp758
aaasS'storm-obj1'
p759
(lp760
(lp761
(lp762
S'../Data/storm-obj1_feature9.csv'
p763
aa(lp764
g7
(g11
S'\xad\x88\x03\xf1-qI@'
p765
tp766
Rp767
aaa(lp768
(lp769
S'../Data/storm-obj1_feature8.csv'
p770
aa(lp771
g7
(g11
S'\xf0\x96\x98JL%\x02@'
p772
tp773
Rp774
aaa(lp775
(lp776
g770
aa(lp777
g7
(g11
S'\xf0\x96\x98JL%\x02@'
p778
tp779
Rp780
aaa(lp781
(lp782
g770
aa(lp783
g7
(g11
S'\xf0\x96\x98JL%\x02@'
p784
tp785
Rp786
aaa(lp787
(lp788
g770
aa(lp789
g7
(g11
S'\xf0\x96\x98JL%\x02@'
p790
tp791
Rp792
aaa(lp793
(lp794
g763
aa(lp795
g7
(g11
S'\xad\x88\x03\xf1-qI@'
p796
tp797
Rp798
aaa(lp799
(lp800
g763
aa(lp801
g7
(g11
S'\xad\x88\x03\xf1-qI@'
p802
tp803
Rp804
aaa(lp805
(lp806
g770
aa(lp807
g7
(g11
S'\xf0\x96\x98JL%\x02@'
p808
tp809
Rp810
aaa(lp811
(lp812
g763
aa(lp813
g7
(g11
S'\xad\x88\x03\xf1-qI@'
p814
tp815
Rp816
aaa(lp817
(lp818
g770
aa(lp819
g7
(g11
S'\xf0\x96\x98JL%\x02@'
p820
tp821
Rp822
aaa(lp823
(lp824
g770
aa(lp825
g7
(g11
S'\xf0\x96\x98JL%\x02@'
p826
tp827
Rp828
aaa(lp829
(lp830
g770
aa(lp831
g7
(g11
S'\xf0\x96\x98JL%\x02@'
p832
tp833
Rp834
aaa(lp835
(lp836
g770
aa(lp837
g7
(g11
S'\xf0\x96\x98JL%\x02@'
p838
tp839
Rp840
aaa(lp841
(lp842
g763
aa(lp843
g7
(g11
S'\xad\x88\x03\xf1-qI@'
p844
tp845
Rp846
aaa(lp847
(lp848
g770
aa(lp849
g7
(g11
S'\xf0\x96\x98JL%\x02@'
p850
tp851
Rp852
aaa(lp853
(lp854
g770
aa(lp855
g7
(g11
S'\xf0\x96\x98JL%\x02@'
p856
tp857
Rp858
aaa(lp859
(lp860
g770
aa(lp861
g7
(g11
S'\xf0\x96\x98JL%\x02@'
p862
tp863
Rp864
aaa(lp865
(lp866
g763
aa(lp867
g7
(g11
S'\xad\x88\x03\xf1-qI@'
p868
tp869
Rp870
aaa(lp871
(lp872
g770
aa(lp873
g7
(g11
S'\xf0\x96\x98JL%\x02@'
p874
tp875
Rp876
aaa(lp877
(lp878
g770
aa(lp879
g7
(g11
S'\xf0\x96\x98JL%\x02@'
p880
tp881
Rp882
aaa(lp883
(lp884
g770
aa(lp885
g7
(g11
S'\xf0\x96\x98JL%\x02@'
p886
tp887
Rp888
aaa(lp889
(lp890
g770
aa(lp891
g7
(g11
S'\xf0\x96\x98JL%\x02@'
p892
tp893
Rp894
aaa(lp895
(lp896
g770
aa(lp897
g7
(g11
S'\xf0\x96\x98JL%\x02@'
p898
tp899
Rp900
aaa(lp901
(lp902
g770
aa(lp903
g7
(g11
S'\xf0\x96\x98JL%\x02@'
p904
tp905
Rp906
aaa(lp907
(lp908
g770
aa(lp909
g7
(g11
S'\xf0\x96\x98JL%\x02@'
p910
tp911
Rp912
aaa(lp913
(lp914
g770
aa(lp915
g7
(g11
S'\xf0\x96\x98JL%\x02@'
p916
tp917
Rp918
aaa(lp919
(lp920
g770
aa(lp921
g7
(g11
S'\xf0\x96\x98JL%\x02@'
p922
tp923
Rp924
aaa(lp925
(lp926
g770
aa(lp927
g7
(g11
S'\xf0\x96\x98JL%\x02@'
p928
tp929
Rp930
aaa(lp931
(lp932
g770
aa(lp933
g7
(g11
S'\xf0\x96\x98JL%\x02@'
p934
tp935
Rp936
aaa(lp937
(lp938
g770
aa(lp939
g7
(g11
S'\xf0\x96\x98JL%\x02@'
p940
tp941
Rp942
aaasS'x264'
p943
(lp944
(lp945
(lp946
S'../Data/x264_2.csv'
p947
aa(lp948
g7
(g11
S'\x8e^L\x9e\xd0\xc5\x01@'
p949
tp950
Rp951
aaa(lp952
(lp953
S'../Data/x264_18.csv'
p954
aa(lp955
g7
(g11
S'\x9c^\xf9)\xdba\xd2?'
p956
tp957
Rp958
aaa(lp959
(lp960
g954
aa(lp961
g7
(g11
S'\x9c^\xf9)\xdba\xd2?'
p962
tp963
Rp964
aaa(lp965
(lp966
S'../Data/x264_14.csv'
p967
aa(lp968
g7
(g11
S'\x1f\xc46\xafo\xcf:@'
p969
tp970
Rp971
aaa(lp972
(lp973
S'../Data/x264_7.csv'
p974
aa(lp975
g7
(g11
S'\xaa\xee\xd0\x8a\xa3\x9c\xed?'
p976
tp977
Rp978
aaa(lp979
(lp980
S'../Data/x264_12.csv'
p981
aa(lp982
g7
(g11
S'\x0b\x84\x1eX\x84Q*@'
p983
tp984
Rp985
aaa(lp986
(lp987
S'../Data/x264_3.csv'
p988
aa(lp989
g7
(g11
S'\xf5\xde\xdf\xd3\x8f\x9d\x1e@'
p990
tp991
Rp992
aaa(lp993
(lp994
S'../Data/x264_10.csv'
p995
aa(lp996
g7
(g11
S'\xaa\xee\xd0\x8a\xa3\x9c\xed?'
p997
tp998
Rp999
aaa(lp1000
(lp1001
g974
aa(lp1002
g7
(g11
S'\xaa\xee\xd0\x8a\xa3\x9c\xed?'
p1003
tp1004
Rp1005
aaa(lp1006
(lp1007
S'../Data/x264_8.csv'
p1008
aa(lp1009
g7
(g11
S'\xea\x02\xd7\x92\xaa-\xf8?'
p1010
tp1011
Rp1012
aaa(lp1013
(lp1014
g995
aa(lp1015
g7
(g11
S'\xaa\xee\xd0\x8a\xa3\x9c\xed?'
p1016
tp1017
Rp1018
aaa(lp1019
(lp1020
S'../Data/x264_0.csv'
p1021
aa(lp1022
g7
(g11
S'\x97\xbf\xd5\x92\xfbo<@'
p1023
tp1024
Rp1025
aaa(lp1026
(lp1027
S'../Data/x264_1.csv'
p1028
aa(lp1029
g7
(g11
S'\xea\x02\xd7\x92\xaa-\xf8?'
p1030
tp1031
Rp1032
aaa(lp1033
(lp1034
S'../Data/x264_20.csv'
p1035
aa(lp1036
g7
(g11
S'\x00\x91\xa8l\x7f\xb5\x0c@'
p1037
tp1038
Rp1039
aaa(lp1040
(lp1041
S'../Data/x264_6.csv'
p1042
aa(lp1043
g7
(g11
S'\x97&u\xa9ld\x01@'
p1044
tp1045
Rp1046
aaa(lp1047
(lp1048
g995
aa(lp1049
g7
(g11
S'\xaa\xee\xd0\x8a\xa3\x9c\xed?'
p1050
tp1051
Rp1052
aaa(lp1053
(lp1054
g1042
aa(lp1055
g7
(g11
S'\x97&u\xa9ld\x01@'
p1056
tp1057
Rp1058
aaa(lp1059
(lp1060
S'../Data/x264_13.csv'
p1061
aa(lp1062
g7
(g11
S'd\x85\x0e\xcd\xae\xc0(@'
p1063
tp1064
Rp1065
aaa(lp1066
(lp1067
g967
aa(lp1068
g7
(g11
S'\x1f\xc46\xafo\xcf:@'
p1069
tp1070
Rp1071
aaa(lp1072
(lp1073
g1021
aa(lp1074
g7
(g11
S'\x97\xbf\xd5\x92\xfbo<@'
p1075
tp1076
Rp1077
aaa(lp1078
(lp1079
g974
aa(lp1080
g7
(g11
S'\xaa\xee\xd0\x8a\xa3\x9c\xed?'
p1081
tp1082
Rp1083
aaa(lp1084
(lp1085
g967
aa(lp1086
g7
(g11
S'\x1f\xc46\xafo\xcf:@'
p1087
tp1088
Rp1089
aaa(lp1090
(lp1091
g1042
aa(lp1092
g7
(g11
S'\x97&u\xa9ld\x01@'
p1093
tp1094
Rp1095
aaa(lp1096
(lp1097
S'../Data/x264_11.csv'
p1098
aa(lp1099
g7
(g11
S'\xea\x02\xd7\x92\xaa-\xf8?'
p1100
tp1101
Rp1102
aaa(lp1103
(lp1104
S'../Data/x264_9.csv'
p1105
aa(lp1106
g7
(g11
S'\x9c^\xf9)\xdba\xd2?'
p1107
tp1108
Rp1109
aaa(lp1110
(lp1111
g1098
aa(lp1112
g7
(g11
S'\xea\x02\xd7\x92\xaa-\xf8?'
p1113
tp1114
Rp1115
aaa(lp1116
(lp1117
g1105
aa(lp1118
g7
(g11
S'\x9c^\xf9)\xdba\xd2?'
p1119
tp1120
Rp1121
aaa(lp1122
(lp1123
g1021
aa(lp1124
g7
(g11
S'\x97\xbf\xd5\x92\xfbo<@'
p1125
tp1126
Rp1127
aaa(lp1128
(lp1129
g1105
aa(lp1130
g7
(g11
S'\x9c^\xf9)\xdba\xd2?'
p1131
tp1132
Rp1133
aaa(lp1134
(lp1135
g995
aa(lp1136
g7
(g11
S'\xaa\xee\xd0\x8a\xa3\x9c\xed?'
p1137
tp1138
Rp1139
aaas.