(dp0
S'sac_9'
p1
(dp2
S'sac_7'
p3
(dp4
S'rank'
p5
(lp6
cnumpy.core.multiarray
scalar
p7
(cnumpy
dtype
p8
(S'f8'
p9
I0
I1
tp10
Rp11
(I3
S'<'
p12
NNNI-1
I-1
I0
tp13
bS"'\x0cqP8P\x02@"
p14
tp15
Rp16
ag7
(g11
S"'\x0cqP8P\x02@"
p17
tp18
Rp19
ag7
(g11
S"'\x0cqP8P\x02@"
p20
tp21
Rp22
assS'sac_6'
p23
(dp24
S'rank'
p25
(lp26
g7
(g11
S'Zd\xceB!S\xfa?'
p27
tp28
Rp29
ag7
(g11
S'Zd\xceB!S\xfa?'
p30
tp31
Rp32
ag7
(g11
S'Zd\xceB!S\xfa?'
p33
tp34
Rp35
assS'sac_5'
p36
(dp37
S'rank'
p38
(lp39
g7
(g11
S'\t\x8b\xfb\xdd\x19m\x1c@'
p40
tp41
Rp42
ag7
(g11
S'\t\x8b\xfb\xdd\x19m\x1c@'
p43
tp44
Rp45
ag7
(g11
S'\t\x8b\xfb\xdd\x19m\x1c@'
p46
tp47
Rp48
assS'sac_4'
p49
(dp50
S'rank'
p51
(lp52
g7
(g11
S'\xf2R7\x88\x03# @'
p53
tp54
Rp55
ag7
(g11
S'\xf2R7\x88\x03# @'
p56
tp57
Rp58
ag7
(g11
S'\xf2R7\x88\x03# @'
p59
tp60
Rp61
assS'sac_8'
p62
(dp63
S'rank'
p64
(lp65
g7
(g11
S'\xb8,\x8b\xf3C\n\x01@'
p66
tp67
Rp68
ag7
(g11
S'\xb8,\x8b\xf3C\n\x01@'
p69
tp70
Rp71
ag7
(g11
S'\xb8,\x8b\xf3C\n\x01@'
p72
tp73
Rp74
asssS'sac_8'
p75
(dp76
S'sac_7'
p77
(dp78
S'rank'
p79
(lp80
g7
(g11
S'BNB\xea\x92\xbf\xe7?'
p81
tp82
Rp83
ag7
(g11
S'BNB\xea\x92\xbf\xe7?'
p84
tp85
Rp86
ag7
(g11
S'BNB\xea\x92\xbf\xe7?'
p87
tp88
Rp89
assS'sac_6'
p90
(dp91
S'rank'
p92
(lp93
g7
(g11
S'N3\xfd\x16\x10\xa6\xf0?'
p94
tp95
Rp96
ag7
(g11
S'N3\xfd\x16\x10\xa6\xf0?'
p97
tp98
Rp99
ag7
(g11
S'N3\xfd\x16\x10\xa6\xf0?'
p100
tp101
Rp102
assS'sac_5'
p103
(dp104
S'rank'
p105
(lp106
g7
(g11
S'\xc5\x92\x9f\xc1\xe0\xa0\x11@'
p107
tp108
Rp109
ag7
(g11
S'\xc5\x92\x9f\xc1\xe0\xa0\x11@'
p110
tp111
Rp112
ag7
(g11
S'\xc5\x92\x9f\xc1\xe0\xa0\x11@'
p113
tp114
Rp115
assS'sac_4'
p116
(dp117
S'rank'
p118
(lp119
g7
(g11
S'g\xb0>x{\xf4\xd8?'
p120
tp121
Rp122
ag7
(g11
S'g\xb0>x{\xf4\xd8?'
p123
tp124
Rp125
ag7
(g11
S'g\xb0>x{\xf4\xd8?'
p126
tp127
Rp128
assS'sac_9'
p129
(dp130
S'rank'
p131
(lp132
g7
(g11
S':\xcb\xe9\x00:?\x1f@'
p133
tp134
Rp135
ag7
(g11
S':\xcb\xe9\x00:?\x1f@'
p136
tp137
Rp138
ag7
(g11
S':\xcb\xe9\x00:?\x1f@'
p139
tp140
Rp141
asssS'sac_7'
p142
(dp143
S'sac_6'
p144
(dp145
S'rank'
p146
(lp147
g7
(g11
S'\x00\x18\x07\xfc>\x1a\xef?'
p148
tp149
Rp150
ag7
(g11
S'\x00\x18\x07\xfc>\x1a\xef?'
p151
tp152
Rp153
ag7
(g11
S'\x00\x18\x07\xfc>\x1a\xef?'
p154
tp155
Rp156
assS'sac_5'
p157
(dp158
S'rank'
p159
(lp160
g7
(g11
S"g\xfb.i'\x8e\x13@"
p161
tp162
Rp163
ag7
(g11
S"g\xfb.i'\x8e\x13@"
p164
tp165
Rp166
ag7
(g11
S"g\xfb.i'\x8e\x13@"
p167
tp168
Rp169
assS'sac_4'
p170
(dp171
S'rank'
p172
(lp173
g7
(g11
S'\x91H\xcdm\xe7\xdf\xea?'
p174
tp175
Rp176
ag7
(g11
S'\x91H\xcdm\xe7\xdf\xea?'
p177
tp178
Rp179
ag7
(g11
S'\x91H\xcdm\xe7\xdf\xea?'
p180
tp181
Rp182
assS'sac_9'
p183
(dp184
S'rank'
p185
(lp186
g7
(g11
S'\x95>\xb7\xe1`\xd0#@'
p187
tp188
Rp189
ag7
(g11
S'\x95>\xb7\xe1`\xd0#@'
p190
tp191
Rp192
ag7
(g11
S'\x95>\xb7\xe1`\xd0#@'
p193
tp194
Rp195
assS'sac_8'
p196
(dp197
S'rank'
p198
(lp199
g7
(g11
S',3\xfa\x94F6\xd6?'
p200
tp201
Rp202
ag7
(g11
S',3\xfa\x94F6\xd6?'
p203
tp204
Rp205
ag7
(g11
S',3\xfa\x94F6\xd6?'
p206
tp207
Rp208
asssS'sac_6'
p209
(dp210
S'sac_7'
p211
(dp212
S'rank'
p213
(lp214
g7
(g11
S'\x07\xb8\xa8iv\x88\xd1?'
p215
tp216
Rp217
ag7
(g11
S'\x07\xb8\xa8iv\x88\xd1?'
p218
tp219
Rp220
ag7
(g11
S'\x07\xb8\xa8iv\x88\xd1?'
p221
tp222
Rp223
assS'sac_5'
p224
(dp225
S'rank'
p226
(lp227
g7
(g11
S'lM\xafTQ\x9e\x11@'
p228
tp229
Rp230
ag7
(g11
S'lM\xafTQ\x9e\x11@'
p231
tp232
Rp233
ag7
(g11
S'lM\xafTQ\x9e\x11@'
p234
tp235
Rp236
assS'sac_4'
p237
(dp238
S'rank'
p239
(lp240
g7
(g11
S'm;\xb0\x82\x0f\t\xc7?'
p241
tp242
Rp243
ag7
(g11
S'm;\xb0\x82\x0f\t\xc7?'
p244
tp245
Rp246
ag7
(g11
S'm;\xb0\x82\x0f\t\xc7?'
p247
tp248
Rp249
assS'sac_9'
p250
(dp251
S'rank'
p252
(lp253
g7
(g11
S'\x0c\x90;5\xcd\x96\xd4?'
p254
tp255
Rp256
ag7
(g11
S'\x0c\x90;5\xcd\x96\xd4?'
p257
tp258
Rp259
ag7
(g11
S'\x0c\x90;5\xcd\x96\xd4?'
p260
tp261
Rp262
assS'sac_8'
p263
(dp264
S'rank'
p265
(lp266
g7
(g11
S'\xc1!\x84\xcf3\x18\xc1?'
p267
tp268
Rp269
ag7
(g11
S'\xc1!\x84\xcf3\x18\xc1?'
p270
tp271
Rp272
ag7
(g11
S'\xc1!\x84\xcf3\x18\xc1?'
p273
tp274
Rp275
asssS'sac_5'
p276
(dp277
S'sac_7'
p278
(dp279
S'rank'
p280
(lp281
g7
(g11
S'@\xcd\x85QJ\xf4\x1e@'
p282
tp283
Rp284
ag7
(g11
S'@\xcd\x85QJ\xf4\x1e@'
p285
tp286
Rp287
ag7
(g11
S'@\xcd\x85QJ\xf4\x1e@'
p288
tp289
Rp290
assS'sac_6'
p291
(dp292
S'rank'
p293
(lp294
g7
(g11
S'X\x04 !\x93\x9a%@'
p295
tp296
Rp297
ag7
(g11
S'X\x04 !\x93\x9a%@'
p298
tp299
Rp300
ag7
(g11
S'X\x04 !\x93\x9a%@'
p301
tp302
Rp303
assS'sac_4'
p304
(dp305
S'rank'
p306
(lp307
g7
(g11
S'\xee\xf7i\xef#\xb2$@'
p308
tp309
Rp310
ag7
(g11
S'\xee\xf7i\xef#\xb2$@'
p311
tp312
Rp313
ag7
(g11
S'\xee\xf7i\xef#\xb2$@'
p314
tp315
Rp316
assS'sac_9'
p317
(dp318
S'rank'
p319
(lp320
g7
(g11
S'\x00\x00\x00\x00\x00\x00Y@'
p321
tp322
Rp323
ag7
(g11
S'\x00\x00\x00\x00\x00\x00Y@'
p324
tp325
Rp326
ag7
(g11
S'\x00\x00\x00\x00\x00\x00Y@'
p327
tp328
Rp329
assS'sac_8'
p330
(dp331
S'rank'
p332
(lp333
g7
(g11
S'\x00\x00\x00\x00\x00\x00Y@'
p334
tp335
Rp336
ag7
(g11
S'\x00\x00\x00\x00\x00\x00Y@'
p337
tp338
Rp339
ag7
(g11
S'\x00\x00\x00\x00\x00\x00Y@'
p340
tp341
Rp342
asssS'sac_4'
p343
(dp344
S'sac_7'
p345
(dp346
S'rank'
p347
(lp348
g7
(g11
S"\xf9\xeacz0'\xb1?"
p349
tp350
Rp351
ag7
(g11
S"\xf9\xeacz0'\xb1?"
p352
tp353
Rp354
ag7
(g11
S"\xf9\xeacz0'\xb1?"
p355
tp356
Rp357
assS'sac_6'
p358
(dp359
S'rank'
p360
(lp361
g7
(g11
S'\x13\xc9\x7f\xe4*\xc1\xee?'
p362
tp363
Rp364
ag7
(g11
S'\x13\xc9\x7f\xe4*\xc1\xee?'
p365
tp366
Rp367
ag7
(g11
S'\x13\xc9\x7f\xe4*\xc1\xee?'
p368
tp369
Rp370
assS'sac_5'
p371
(dp372
S'rank'
p373
(lp374
g7
(g11
S'^@I0>M\x11@'
p375
tp376
Rp377
ag7
(g11
S'^@I0>M\x11@'
p378
tp379
Rp380
ag7
(g11
S'^@I0>M\x11@'
p381
tp382
Rp383
assS'sac_9'
p384
(dp385
S'rank'
p386
(lp387
g7
(g11
S'\x92wL\x03s\x8f\x1f@'
p388
tp389
Rp390
ag7
(g11
S'\x92wL\x03s\x8f\x1f@'
p391
tp392
Rp393
ag7
(g11
S'\x92wL\x03s\x8f\x1f@'
p394
tp395
Rp396
assS'sac_8'
p397
(dp398
S'rank'
p399
(lp400
g7
(g11
S'\x88W}v\xce)\x93?'
p401
tp402
Rp403
ag7
(g11
S'\x88W}v\xce)\x93?'
p404
tp405
Rp406
ag7
(g11
S'\x88W}v\xce)\x93?'
p407
tp408
Rp409
asss.