(dp0
S'../../Data/sqlite_79.csv'
p1
(dp2
S'../../Data/sqlite_44.csv'
p3
(dp4
I10
(lp5
cnumpy.core.multiarray
scalar
p6
(cnumpy
dtype
p7
(S'f8'
p8
I0
I1
tp9
Rp10
(I3
S'<'
p11
NNNI-1
I-1
I0
tp12
bS'\xef\xca\n\x9b\x03\x89\x06@'
p13
tp14
Rp15
ag6
(g10
S'\x8cb\xe4\x84\xdeP\xf3?'
p16
tp17
Rp18
ag6
(g10
S'\x8cb\xe4\x84\xdeP\xf3?'
p19
tp20
Rp21
asss.