(dp0
S'../../Data/sqlite_94.csv'
p1
(dp2
S'../../Data/sqlite_16.csv'
p3
(dp4
I10
(lp5
cnumpy.core.multiarray
scalar
p6
(cnumpy
dtype
p7
(S'f8'
p8
I0
I1
tp9
Rp10
(I3
S'<'
p11
NNNI-1
I-1
I0
tp12
bS'\xe7R\x11\xec\xb5\x81B@'
p13
tp14
Rp15
ag6
(g10
S'\x9d\xf0\xd9\xff\x88\x1f\x1c@'
p16
tp17
Rp18
ag6
(g10
S'.\x04\xeeI\x07\xc7\x06@'
p19
tp20
Rp21
asss.