(dp0
S'../../Data/sqlite_52.csv'
p1
(dp2
S'../../Data/sqlite_96.csv'
p3
(dp4
I10
(lp5
cnumpy.core.multiarray
scalar
p6
(cnumpy
dtype
p7
(S'f8'
p8
I0
I1
tp9
Rp10
(I3
S'<'
p11
NNNI-1
I-1
I0
tp12
bS'M\xde\xafP._\xcf?'
p13
tp14
Rp15
ag6
(g10
S'M\xde\xafP._\xcf?'
p16
tp17
Rp18
ag6
(g10
S'M\xde\xafP._\xcf?'
p19
tp20
Rp21
ag6
(g10
S'M\xde\xafP._\xcf?'
p22
tp23
Rp24
ag6
(g10
S'M\xde\xafP._\xcf?'
p25
tp26
Rp27
ag6
(g10
S'M\xde\xafP._\xcf?'
p28
tp29
Rp30
ag6
(g10
S'M\xde\xafP._\xcf?'
p31
tp32
Rp33
ag6
(g10
S'M\xde\xafP._\xcf?'
p34
tp35
Rp36
ag6
(g10
S'M\xde\xafP._\xcf?'
p37
tp38
Rp39
ag6
(g10
S'M\xde\xafP._\xcf?'
p40
tp41
Rp42
ag6
(g10
S'M\xde\xafP._\xcf?'
p43
tp44
Rp45
ag6
(g10
S'M\xde\xafP._\xcf?'
p46
tp47
Rp48
ag6
(g10
S'M\xde\xafP._\xcf?'
p49
tp50
Rp51
ag6
(g10
S'M\xde\xafP._\xcf?'
p52
tp53
Rp54
ag6
(g10
S'M\xde\xafP._\xcf?'
p55
tp56
Rp57
ag6
(g10
S'M\xde\xafP._\xcf?'
p58
tp59
Rp60
ag6
(g10
S'M\xde\xafP._\xcf?'
p61
tp62
Rp63
ag6
(g10
S'M\xde\xafP._\xcf?'
p64
tp65
Rp66
ag6
(g10
S'M\xde\xafP._\xcf?'
p67
tp68
Rp69
ag6
(g10
S'M\xde\xafP._\xcf?'
p70
tp71
Rp72
ag6
(g10
S'M\xde\xafP._\xcf?'
p73
tp74
Rp75
ag6
(g10
S'M\xde\xafP._\xcf?'
p76
tp77
Rp78
ag6
(g10
S'M\xde\xafP._\xcf?'
p79
tp80
Rp81
ag6
(g10
S'M\xde\xafP._\xcf?'
p82
tp83
Rp84
ag6
(g10
S'M\xde\xafP._\xcf?'
p85
tp86
Rp87
ag6
(g10
S'M\xde\xafP._\xcf?'
p88
tp89
Rp90
ag6
(g10
S'M\xde\xafP._\xcf?'
p91
tp92
Rp93
ag6
(g10
S'M\xde\xafP._\xcf?'
p94
tp95
Rp96
ag6
(g10
S'M\xde\xafP._\xcf?'
p97
tp98
Rp99
ag6
(g10
S'M\xde\xafP._\xcf?'
p100
tp101
Rp102
asss.