(dp0
S'../../Data/sqlite_97.csv'
p1
(dp2
S'../../Data/sqlite_19.csv'
p3
(dp4
I10
(lp5
cnumpy.core.multiarray
scalar
p6
(cnumpy
dtype
p7
(S'f8'
p8
I0
I1
tp9
Rp10
(I3
S'<'
p11
NNNI-1
I-1
I0
tp12
bS'\xdf\x18\xf8#\xfdV\x16@'
p13
tp14
Rp15
ag6
(g10
S'\xdf\x18\xf8#\xfdV\x16@'
p16
tp17
Rp18
ag6
(g10
S'\xe8\xd3\xe9\xd6\xfc\xb0\x18@'
p19
tp20
Rp21
asss.