(dp0
S'../../Data/sqlite_17.csv'
p1
(dp2
S'../../Data/sqlite_73.csv'
p3
(dp4
I90
(lp5
cnumpy.core.multiarray
scalar
p6
(cnumpy
dtype
p7
(S'f8'
p8
I0
I1
tp9
Rp10
(I3
S'<'
p11
NNNI-1
I-1
I0
tp12
bS'\xa4V\xe9. U\xef?'
p13
tp14
Rp15
ag6
(g10
S'\xa4V\xe9. U\xef?'
p16
tp17
Rp18
ag6
(g10
S'\xa4V\xe9. U\xef?'
p19
tp20
Rp21
ag6
(g10
S'\xa4V\xe9. U\xef?'
p22
tp23
Rp24
ag6
(g10
S'\xa4V\xe9. U\xef?'
p25
tp26
Rp27
ag6
(g10
S'\xa4V\xe9. U\xef?'
p28
tp29
Rp30
ag6
(g10
S'\xa4V\xe9. U\xef?'
p31
tp32
Rp33
ag6
(g10
S'\xa4V\xe9. U\xef?'
p34
tp35
Rp36
ag6
(g10
S'\xa4V\xe9. U\xef?'
p37
tp38
Rp39
ag6
(g10
S'].\xa9\xb5L\xab0@'
p40
tp41
Rp42
ag6
(g10
S'\xa4V\xe9. U\xef?'
p43
tp44
Rp45
ag6
(g10
S'\xa4V\xe9. U\xef?'
p46
tp47
Rp48
ag6
(g10
S'\xa4V\xe9. U\xef?'
p49
tp50
Rp51
ag6
(g10
S'\xa4V\xe9. U\xef?'
p52
tp53
Rp54
ag6
(g10
S'\xa4V\xe9. U\xef?'
p55
tp56
Rp57
ag6
(g10
S'\xa4V\xe9. U\xef?'
p58
tp59
Rp60
ag6
(g10
S'\xa4V\xe9. U\xef?'
p61
tp62
Rp63
ag6
(g10
S'\xa4V\xe9. U\xef?'
p64
tp65
Rp66
ag6
(g10
S'\xa4V\xe9. U\xef?'
p67
tp68
Rp69
ag6
(g10
S'\xa4V\xe9. U\xef?'
p70
tp71
Rp72
ag6
(g10
S'\xa4V\xe9. U\xef?'
p73
tp74
Rp75
ag6
(g10
S'\xa4V\xe9. U\xef?'
p76
tp77
Rp78
ag6
(g10
S'\xa4V\xe9. U\xef?'
p79
tp80
Rp81
ag6
(g10
S'\xa4V\xe9. U\xef?'
p82
tp83
Rp84
ag6
(g10
S'\xa4V\xe9. U\xef?'
p85
tp86
Rp87
ag6
(g10
S'\xa4V\xe9. U\xef?'
p88
tp89
Rp90
ag6
(g10
S'\xa4V\xe9. U\xef?'
p91
tp92
Rp93
ag6
(g10
S'].\xa9\xb5L\xab0@'
p94
tp95
Rp96
ag6
(g10
S'\xa4V\xe9. U\xef?'
p97
tp98
Rp99
ag6
(g10
S'\xa4V\xe9. U\xef?'
p100
tp101
Rp102
asss.