(dp0
S'../Data/sqlite_73.csv'
p1
(dp2
S'../Data/sqlite_37.csv'
p3
(dp4
F0.4
(dp5
S'rank'
p6
(dp7
S'bellwether'
p8
(lp9
cnumpy.core.multiarray
scalar
p10
(cnumpy
dtype
p11
(S'f8'
p12
I0
I1
tp13
Rp14
(I3
S'<'
p15
NNNI-1
I-1
I0
tp16
bS'\x80RAAA\x81B@'
p17
tp18
Rp19
ag10
(g14
S'>\xca\xa0\xa0\xa0 ?@'
p20
tp21
Rp22
ag10
(g14
S'\x80RAAA\x81B@'
p23
tp24
Rp25
ag10
(g14
S'\x80RAAA\x81B@'
p26
tp27
Rp28
ag10
(g14
S'\x80RAAA\x81B@'
p29
tp30
Rp31
ag10
(g14
S'\x80RAAA\x81B@'
p32
tp33
Rp34
ag10
(g14
S'\x80RAAA\x81B@'
p35
tp36
Rp37
ag10
(g14
S'\x80RAAA\x81B@'
p38
tp39
Rp40
ag10
(g14
S'\x80RAAA\x81B@'
p41
tp42
Rp43
ag10
(g14
S'V\xfb\xeb\xeb\xebk@@'
p44
tp45
Rp46
ag10
(g14
S'\x80RAAA\x81B@'
p47
tp48
Rp49
ag10
(g14
S'H\xd2\xa5\xa5\xa5%>@'
p50
tp51
Rp52
ag10
(g14
S'\x80RAAA\x81B@'
p53
tp54
Rp55
ag10
(g14
S'\x07\xbe\xff\xff\xff\xff(@'
p56
tp57
Rp58
ag10
(g14
S'\x80RAAA\x81B@'
p59
tp60
Rp61
ag10
(g14
S'\x1c\xcb\xcd\xcd\xcd\rP@'
p62
tp63
Rp64
ag10
(g14
S'I\xbc\xa5\xa5\xa5\xa5A@'
p65
tp66
Rp67
ag10
(g14
S'\x80RAAA\x81B@'
p68
tp69
Rp70
ag10
(g14
S'O\x85\xa5\xa5\xa5\xa51@'
p71
tp72
Rp73
ag10
(g14
S'\x80RAAA\x81B@'
p74
tp75
Rp76
asS'target'
p77
(lp78
g10
(g14
S'X=----@@'
p79
tp80
Rp81
ag10
(g14
S'S\xb4"###"@'
p82
tp83
Rp84
ag10
(g14
S'\x92xKKK\xcb6@'
p85
tp86
Rp87
ag10
(g14
S'\xbfV____\x1f@'
p88
tp89
Rp90
ag10
(g14
S'\xcf\xd7\xe6\xe6\xe6fA@'
p91
tp92
Rp93
ag10
(g14
S'A\xa9\xa0\xa0\xa0\xa0B@'
p94
tp95
Rp96
ag10
(g14
S'\xdf\xb3\xeb\xeb\xeb\xeb,@'
p97
tp98
Rp99
ag10
(g14
S'P*((((A@'
p100
tp101
Rp102
ag10
(g14
S'\xc8iddd\xe4A@'
p103
tp104
Rp105
ag10
(g14
S'\xb6\xa6\x9b\x9b\x9b\x9bC@'
p106
tp107
Rp108
ag10
(g14
S'Q\xcf\xaa\xaa\xaa\xaa0@'
p109
tp110
Rp111
ag10
(g14
S'H\x0c####"@'
p112
tp113
Rp114
ag10
(g14
S'\x01\xa5\x82\x82\x82\x82(@'
p115
tp116
Rp117
ag10
(g14
S'\xd3\xb6\xe6\xe6\xe6\xe6=@'
p118
tp119
Rp120
ag10
(g14
S'W\x98\xaa\xaa\xaa\xaa@@'
p121
tp122
Rp123
ag10
(g14
S'8\x96\x9b\x9b\x9b{P@'
p124
tp125
Rp126
ag10
(g14
S'X=----@@'
p127
tp128
Rp129
ag10
(g14
S'\xb1zZZZ\xda3@'
p130
tp131
Rp132
ag10
(g14
S'\xb1zZZZ\xda3@'
p133
tp134
Rp135
ag10
(g14
S'x?<<<|C@'
p136
tp137
Rp138
asssss.