(dp0
S'../Data/sqlite_73.csv'
p1
(dp2
S'../Data/sqlite_37.csv'
p3
(dp4
F0.05
(dp5
S'rank'
p6
(dp7
S'bellwether'
p8
(lp9
cnumpy.core.multiarray
scalar
p10
(cnumpy
dtype
p11
(S'f8'
p12
I0
I1
tp13
Rp14
(I3
S'<'
p15
NNNI-1
I-1
I0
tp16
bS'O\x85\xa5\xa5\xa5\xa51@'
p17
tp18
Rp19
ag10
(g14
S'\x80RAAA\x81B@'
p20
tp21
Rp22
ag10
(g14
S'\x80RAAA\x81B@'
p23
tp24
Rp25
ag10
(g14
S'V\xfb\xeb\xeb\xebk@@'
p26
tp27
Rp28
ag10
(g14
S'\x80RAAA\x81B@'
p29
tp30
Rp31
ag10
(g14
S'\x80RAAA\x81B@'
p32
tp33
Rp34
ag10
(g14
S'O\x85\xa5\xa5\xa5\xa51@'
p35
tp36
Rp37
ag10
(g14
S'\x80RAAA\x81B@'
p38
tp39
Rp40
ag10
(g14
S'\x80RAAA\x81B@'
p41
tp42
Rp43
ag10
(g14
S'\x80RAAA\x81B@'
p44
tp45
Rp46
ag10
(g14
S'\x80RAAA\x81B@'
p47
tp48
Rp49
ag10
(g14
S'\x80RAAA\x81B@'
p50
tp51
Rp52
ag10
(g14
S'O\x85\xa5\xa5\xa5\xa51@'
p53
tp54
Rp55
ag10
(g14
S'\x80RAAA\x81B@'
p56
tp57
Rp58
ag10
(g14
S'\x80RAAA\x81B@'
p59
tp60
Rp61
ag10
(g14
S'\x80RAAA\x81B@'
p62
tp63
Rp64
ag10
(g14
S'\x80RAAA\x81B@'
p65
tp66
Rp67
ag10
(g14
S'\x80RAAA\x81B@'
p68
tp69
Rp70
ag10
(g14
S'\x80RAAA\x81B@'
p71
tp72
Rp73
ag10
(g14
S'\x80RAAA\x81B@'
p74
tp75
Rp76
ag10
(g14
S'\x80RAAA\x81B@'
p77
tp78
Rp79
ag10
(g14
S'\x80RAAA\x81B@'
p80
tp81
Rp82
ag10
(g14
S'\x80RAAA\x81B@'
p83
tp84
Rp85
ag10
(g14
S'\x80RAAA\x81B@'
p86
tp87
Rp88
ag10
(g14
S'\x80RAAA\x81B@'
p89
tp90
Rp91
ag10
(g14
S'\x80RAAA\x81B@'
p92
tp93
Rp94
ag10
(g14
S'\x80RAAA\x81B@'
p95
tp96
Rp97
ag10
(g14
S'\x80RAAA\x81B@'
p98
tp99
Rp100
ag10
(g14
S'\x80RAAA\x81B@'
p101
tp102
Rp103
ag10
(g14
S'O\x85\xa5\xa5\xa5\xa51@'
p104
tp105
Rp106
ag10
(g14
S'\x80RAAA\x81B@'
p107
tp108
Rp109
ag10
(g14
S'\x80RAAA\x81B@'
p110
tp111
Rp112
ag10
(g14
S'\x80RAAA\x81B@'
p113
tp114
Rp115
ag10
(g14
S'\x80RAAA\x81B@'
p116
tp117
Rp118
ag10
(g14
S'\x80RAAA\x81B@'
p119
tp120
Rp121
ag10
(g14
S'\x80RAAA\x81B@'
p122
tp123
Rp124
ag10
(g14
S'\x80RAAA\x81B@'
p125
tp126
Rp127
ag10
(g14
S'\x80RAAA\x81B@'
p128
tp129
Rp130
ag10
(g14
S'\x80RAAA\x81B@'
p131
tp132
Rp133
ag10
(g14
S'\x80RAAA\x81B@'
p134
tp135
Rp136
asS'target'
p137
(lp138
g10
(g14
S'\x0e\x97\x87\x87\x87\x87\x17@'
p139
tp140
Rp141
ag10
(g14
S'\xc5tdddd\x1e@'
p142
tp143
Rp144
ag10
(g14
S'\xff\xb5\xfa\xfa\xfa\xfa)@'
p145
tp146
Rp147
ag10
(g14
S'\xf0\xde}}}}\x19@'
p148
tp149
Rp150
ag10
(g14
S'\x1e]\x8c\x8c\x8c\x8c&@'
p151
tp152
Rp153
ag10
(g14
S'M\x9b\xa5\xa5\xa5\xa5!@'
p154
tp155
Rp156
ag10
(g14
S'Z2---- @'
p157
tp158
Rp159
ag10
(g14
S'G"####"@'
p160
tp161
Rp162
ag10
(g14
S'W\xa3\xaa\xaa\xaa\xaa @'
p163
tp164
Rp165
ag10
(g14
S'"L\x14\x14\x14\x14%@'
p166
tp167
Rp168
ag10
(g14
S'\xbfV____\x1f@'
p169
tp170
Rp171
ag10
(g14
S'A\xa9\xa0\xa0\xa0\xa0"@'
p172
tp173
Rp174
ag10
(g14
S'\xff\xb5\xfa\xfa\xfa\xfa)@'
p175
tp176
Rp177
ag10
(g14
S'.\x99\x96\x96\x96\x96\x14@'
p178
tp179
Rp180
ag10
(g14
S'\x01\xa5\x82\x82\x82\x82(@'
p181
tp182
Rp183
ag10
(g14
S'\xd2fiiii\x1d@'
p184
tp185
Rp186
ag10
(g14
S'\xbfV____\x1f@'
p187
tp188
Rp189
ag10
(g14
S'\xdfXnnnn\x1c@'
p190
tp191
Rp192
ag10
(g14
S'M\x9b\xa5\xa5\xa5\xa5!@'
p193
tp194
Rp195
ag10
(g14
S'\x1e]\x8c\x8c\x8c\x8c&@'
p196
tp197
Rp198
ag10
(g14
S'.\x99\x96\x96\x96\x96\x14@'
p199
tp200
Rp201
ag10
(g14
S'\xd2fiiii\x1d@'
p202
tp203
Rp204
ag10
(g14
S'\xe2\xa2ssss+@'
p205
tp206
Rp207
ag10
(g14
S'Q\xcf\xaa\xaa\xaa\xaa0@'
p208
tp209
Rp210
ag10
(g14
S'!\xa7\x91\x91\x91\x91%@'
p211
tp212
Rp213
ag10
(g14
S'\x01J\x05\x05\x05\x05(@'
p214
tp215
Rp216
ag10
(g14
S'\xc0\xfb\xe1\xe1\xe1\xe1.@'
p217
tp218
Rp219
ag10
(g14
S'\xbf\xb1\xdc\xdc\xdc\xdc/@'
p220
tp221
Rp222
ag10
(g14
S'.\x99\x96\x96\x96\x96\x14@'
p223
tp224
Rp225
ag10
(g14
S'\xbfV____\x1f@'
p226
tp227
Rp228
ag10
(g14
S'\x1e]\x8c\x8c\x8c\x8c&@'
p229
tp230
Rp231
ag10
(g14
S'\xc5tdddd\x1e@'
p232
tp233
Rp234
ag10
(g14
S'A\xa9\xa0\xa0\xa0\xa0"@'
p235
tp236
Rp237
ag10
(g14
S'\xdfXnnnn,@'
p238
tp239
Rp240
ag10
(g14
S'\xde\x0eiiii-@'
p241
tp242
Rp243
ag10
(g14
S"\x1e\xb8\t\n\n\n'@"
p244
tp245
Rp246
ag10
(g14
S'A\xa9\xa0\xa0\xa0\xa0"@'
p247
tp248
Rp249
ag10
(g14
S'Z2---- @'
p250
tp251
Rp252
ag10
(g14
S'=\xba\x18\x19\x19\x19$@'
p253
tp254
Rp255
ag10
(g14
S'\xbfV____/@'
p256
tp257
Rp258
asssss.