(dp0
S'../Data/sqlite_73.csv'
p1
(dp2
S'../Data/sqlite_37.csv'
p3
(dp4
F0.3
(dp5
S'rank'
p6
(dp7
S'bellwether'
p8
(lp9
cnumpy.core.multiarray
scalar
p10
(cnumpy
dtype
p11
(S'f8'
p12
I0
I1
tp13
Rp14
(I3
S'<'
p15
NNNI-1
I-1
I0
tp16
bS'\x80RAAA\x81B@'
p17
tp18
Rp19
ag10
(g14
S'V\xfb\xeb\xeb\xebk@@'
p20
tp21
Rp22
ag10
(g14
S'\x80RAAA\x81B@'
p23
tp24
Rp25
ag10
(g14
S'\x80RAAA\x81B@'
p26
tp27
Rp28
ag10
(g14
S'\x80RAAA\x81B@'
p29
tp30
Rp31
ag10
(g14
S'I\xbc\xa5\xa5\xa5\xa5A@'
p32
tp33
Rp34
ag10
(g14
S'O\x85\xa5\xa5\xa5\xa51@'
p35
tp36
Rp37
ag10
(g14
S'\x80RAAA\x81B@'
p38
tp39
Rp40
ag10
(g14
S'V\xfb\xeb\xeb\xebk@@'
p41
tp42
Rp43
ag10
(g14
S'\x80RAAA\x81B@'
p44
tp45
Rp46
ag10
(g14
S'I\xbc\xa5\xa5\xa5\xa5A@'
p47
tp48
Rp49
ag10
(g14
S'O\x85\xa5\xa5\xa5\xa51@'
p50
tp51
Rp52
ag10
(g14
S'O\x85\xa5\xa5\xa5\xa51@'
p53
tp54
Rp55
ag10
(g14
S'\x80RAAA\x81B@'
p56
tp57
Rp58
ag10
(g14
S'V\xfb\xeb\xeb\xebk@@'
p59
tp60
Rp61
ag10
(g14
S'\x80RAAA\x81B@'
p62
tp63
Rp64
ag10
(g14
S'O\x85\xa5\xa5\xa5\xa51@'
p65
tp66
Rp67
ag10
(g14
S'O\x85\xa5\xa5\xa5\xa51@'
p68
tp69
Rp70
ag10
(g14
S'\x80RAAA\x81B@'
p71
tp72
Rp73
ag10
(g14
S'\x80RAAA\x81B@'
p74
tp75
Rp76
asS'target'
p77
(lp78
g10
(g14
S'\xde\x0eiiii-@'
p79
tp80
Rp81
ag10
(g14
S'\xd6\xa8\xaa\xaa\xaa\xaa@@'
p82
tp83
Rp84
ag10
(g14
S'\xc8iddd$H@'
p85
tp86
Rp87
ag10
(g14
S'\xc1\xa0dddd.@'
p88
tp89
Rp90
ag10
(g14
S'\x01\xa5\x82\x82\x82\x82(@'
p91
tp92
Rp93
ag10
(g14
S'\xbfV____\x1f@'
p94
tp95
Rp96
ag10
(g14
S'\xa0TPPP\xd0E@'
p97
tp98
Rp99
ag10
(g14
S'\x11&\n\n\n\n7@'
p100
tp101
Rp102
ag10
(g14
S'\xd0\xfe^___\xef?'
p103
tp104
Rp105
ag10
(g14
S'7\xa1\x9b\x9b\x9b\x9b#@'
p106
tp107
Rp108
ag10
(g14
S'\xb1zZZZ\xda3@'
p109
tp110
Rp111
ag10
(g14
S'\xde\x0eiiii-@'
p112
tp113
Rp114
ag10
(g14
S'\xb1zZZZ\xda3@'
p115
tp116
Rp117
ag10
(g14
S'P*((((1@'
p118
tp119
Rp120
ag10
(g14
S'WH---- @'
p121
tp122
Rp123
ag10
(g14
S'\xc0\xfb\xe1\xe1\xe1\xe1.@'
p124
tp125
Rp126
ag10
(g14
S'G"####"@'
p127
tp128
Rp129
ag10
(g14
S'\xffZ}}}})@'
p130
tp131
Rp132
ag10
(g14
S'\xe7ksss3E@'
p133
tp134
Rp135
ag10
(g14
S'.\x99\x96\x96\x96\x96\x14@'
p136
tp137
Rp138
asssss.