(dp0
S'../Data/sqlite_73.csv'
p1
(dp2
S'../Data/sqlite_37.csv'
p3
(dp4
F0.05
(dp5
S'rank'
p6
(dp7
S'bellwether'
p8
(lp9
cnumpy.core.multiarray
scalar
p10
(cnumpy
dtype
p11
(S'f8'
p12
I0
I1
tp13
Rp14
(I3
S'<'
p15
NNNI-1
I-1
I0
tp16
bS'\x80RAAA\x81B@'
p17
tp18
Rp19
ag10
(g14
S'\x80RAAA\x81B@'
p20
tp21
Rp22
ag10
(g14
S'\x80RAAA\x81B@'
p23
tp24
Rp25
ag10
(g14
S'\x80RAAA\x81B@'
p26
tp27
Rp28
ag10
(g14
S'\x80RAAA\x81B@'
p29
tp30
Rp31
ag10
(g14
S'\x80RAAA\x81B@'
p32
tp33
Rp34
ag10
(g14
S'\x80RAAA\x81B@'
p35
tp36
Rp37
ag10
(g14
S'\x80RAAA\x81B@'
p38
tp39
Rp40
ag10
(g14
S'\x80RAAA\x81B@'
p41
tp42
Rp43
ag10
(g14
S'\x80RAAA\x81B@'
p44
tp45
Rp46
ag10
(g14
S'\x80RAAA\x81B@'
p47
tp48
Rp49
ag10
(g14
S'\x80RAAA\x81B@'
p50
tp51
Rp52
ag10
(g14
S'\x80RAAA\x81B@'
p53
tp54
Rp55
ag10
(g14
S'\x80RAAA\x81B@'
p56
tp57
Rp58
ag10
(g14
S'\x80RAAA\x81B@'
p59
tp60
Rp61
ag10
(g14
S'\x80RAAA\x81B@'
p62
tp63
Rp64
ag10
(g14
S'\x80RAAA\x81B@'
p65
tp66
Rp67
ag10
(g14
S'\x80RAAA\x81B@'
p68
tp69
Rp70
ag10
(g14
S'\x80RAAA\x81B@'
p71
tp72
Rp73
ag10
(g14
S'\x80RAAA\x81B@'
p74
tp75
Rp76
asS'target'
p77
(lp78
g10
(g14
S'\xbfV____\x1f@'
p79
tp80
Rp81
ag10
(g14
S'M\x9b\xa5\xa5\xa5\xa5!@'
p82
tp83
Rp84
ag10
(g14
S'\x1e]\x8c\x8c\x8c\x8c&@'
p85
tp86
Rp87
ag10
(g14
S'.\x99\x96\x96\x96\x96\x14@'
p88
tp89
Rp90
ag10
(g14
S'\xdf\xb3\xeb\xeb\xeb\xeb,@'
p91
tp92
Rp93
ag10
(g14
S'\xdfXnnnn\x1c@'
p94
tp95
Rp96
ag10
(g14
S'A\xa9\xa0\xa0\xa0\xa0"@'
p97
tp98
Rp99
ag10
(g14
S'\x0e\x97\x87\x87\x87\x87\x17@'
p100
tp101
Rp102
ag10
(g14
S'\xdfXnnnn\x1c@'
p103
tp104
Rp105
ag10
(g14
S'>\x1a\x1e\x1e\x1e\x1e#@'
p106
tp107
Rp108
ag10
(g14
S'W\xa3\xaa\xaa\xaa\xaa @'
p109
tp110
Rp111
ag10
(g14
S'\xe0\xfd\xf0\xf0\xf0\xf0+@'
p112
tp113
Rp114
ag10
(g14
S'Q\xcf\xaa\xaa\xaa\xaa0@'
p115
tp116
Rp117
ag10
(g14
S'\x01J\x05\x05\x05\x05(@'
p118
tp119
Rp120
ag10
(g14
S'P*((((!@'
p121
tp122
Rp123
ag10
(g14
S'7\xa1\x9b\x9b\x9b\x9b#@'
p124
tp125
Rp126
ag10
(g14
S'\xc5tdddd\x1e@'
p127
tp128
Rp129
ag10
(g14
S'G"####"@'
p130
tp131
Rp132
ag10
(g14
S"\x1e\xb8\t\n\n\n'@"
p133
tp134
Rp135
ag10
(g14
S'7\xa1\x9b\x9b\x9b\x9b#@'
p136
tp137
Rp138
asssss.